
C:/Users/Bangho/Desktop/Trabajos_material/Especialidad_SEMB/RTOS_y_arquitecturas/Projectos/projecto_tp/build/projecto_tp.elf:     file format elf32-littlearm

Sections:
Idx Name          Size      VMA       LMA       File off  Algn
  0 .text         00009704  10000000  10000000  00001000  2**4
                  CONTENTS, ALLOC, LOAD, READONLY, CODE
  1 .rodata       00000650  10009708  10009708  0000a708  2**3
                  CONTENTS, ALLOC, LOAD, READONLY, DATA
  2 .ARM.exidx    00000008  10009d58  10009d58  0000ad58  2**2
                  CONTENTS, ALLOC, LOAD, READONLY, DATA
  3 .binary_info  00000024  10009d60  10009d60  0000ad60  2**2
                  CONTENTS, ALLOC, LOAD, READONLY, DATA
  4 .ram_vector_table 00000110  20000000  20000000  0000d000  2**2
                  ALLOC
  5 .uninitialized_data 00000000  20000110  20000110  0000cf44  2**0
                  CONTENTS
  6 .data         000011ac  20000110  10009d84  0000b110  2**3
                  CONTENTS, ALLOC, LOAD, READONLY, CODE
  7 .tdata        00000000  200012bc  200012bc  0000cf44  2**0
                  CONTENTS, ALLOC, LOAD, DATA, THREAD_LOCAL
  8 .tbss         00000000  200012bc  200012bc  00000000  2**0
                  ALLOC, THREAD_LOCAL
  9 .bss          0004102c  200012c0  1000af30  0000d2c0  2**3
                  ALLOC
 10 .heap         00000800  200422ec  1000af30  0000d2ec  2**2
                  ALLOC, READONLY
 11 .scratch_x    00000000  20080000  20080000  0000cf44  2**0
                  CONTENTS
 12 .scratch_y    00000000  20081000  20081000  0000cf44  2**0
                  CONTENTS
 13 .stack1_dummy 00000800  20080000  20080000  0000d000  2**2
                  ALLOC
 14 .stack_dummy  00000800  20081000  20081000  0000d000  2**5
                  ALLOC, READONLY
 15 .flash_end    00000014  1000af30  1000af30  0000cf30  2**2
                  CONTENTS, ALLOC, LOAD, READONLY, DATA
 16 .ARM.attributes 00000034  00000000  00000000  0000cf44  2**0
                  CONTENTS, READONLY
 17 .comment      00000049  00000000  00000000  0000cf78  2**0
                  CONTENTS, READONLY
 18 .debug_info   0004da5c  00000000  00000000  0000cfc1  2**0
                  CONTENTS, READONLY, DEBUGGING, OCTETS
 19 .debug_abbrev 0000b075  00000000  00000000  0005aa1d  2**0
                  CONTENTS, READONLY, DEBUGGING, OCTETS
 20 .debug_loc    000387e9  00000000  00000000  00065a92  2**0
                  CONTENTS, READONLY, DEBUGGING, OCTETS
 21 .debug_aranges 00001b80  00000000  00000000  0009e280  2**3
                  CONTENTS, READONLY, DEBUGGING, OCTETS
 22 .debug_ranges 00013f58  00000000  00000000  0009fe00  2**3
                  CONTENTS, READONLY, DEBUGGING, OCTETS
 23 .debug_line   0003918e  00000000  00000000  000b3d58  2**0
                  CONTENTS, READONLY, DEBUGGING, OCTETS
 24 .debug_str    0000db39  00000000  00000000  000ecee6  2**0
                  CONTENTS, READONLY, DEBUGGING, OCTETS
 25 .debug_frame  00005098  00000000  00000000  000faa20  2**2
                  CONTENTS, READONLY, DEBUGGING, OCTETS

C:/Users/Bangho/Desktop/Trabajos_material/Especialidad_SEMB/RTOS_y_arquitecturas/Projectos/projecto_tp/build/projecto_tp.elf:     file format elf32-littlearm


Disassembly of section .text:

10000000 <__VECTOR_TABLE>:
10000000:	20082000 	.word	0x20082000
10000004:	1000015d 	.word	0x1000015d
10000008:	1000011b 	.word	0x1000011b
1000000c:	1000011d 	.word	0x1000011d
10000010:	10000111 	.word	0x10000111
10000014:	10000111 	.word	0x10000111
10000018:	10000111 	.word	0x10000111
1000001c:	10000111 	.word	0x10000111
10000020:	10000119 	.word	0x10000119
10000024:	10000119 	.word	0x10000119
10000028:	10000119 	.word	0x10000119
1000002c:	1000011f 	.word	0x1000011f
10000030:	10000111 	.word	0x10000111
10000034:	10000119 	.word	0x10000119
10000038:	10000121 	.word	0x10000121
1000003c:	10000123 	.word	0x10000123
10000040:	10000111 	.word	0x10000111
10000044:	10000111 	.word	0x10000111
10000048:	10000111 	.word	0x10000111
1000004c:	10000111 	.word	0x10000111
10000050:	10000111 	.word	0x10000111
10000054:	10000111 	.word	0x10000111
10000058:	10000111 	.word	0x10000111
1000005c:	10000111 	.word	0x10000111
10000060:	10000111 	.word	0x10000111
10000064:	10000111 	.word	0x10000111
10000068:	10000111 	.word	0x10000111
1000006c:	10000111 	.word	0x10000111
10000070:	10000111 	.word	0x10000111
10000074:	10000111 	.word	0x10000111
10000078:	10000111 	.word	0x10000111
1000007c:	10000111 	.word	0x10000111
10000080:	10000111 	.word	0x10000111
10000084:	10000111 	.word	0x10000111
10000088:	10000111 	.word	0x10000111
1000008c:	10000111 	.word	0x10000111
10000090:	10000111 	.word	0x10000111
10000094:	10000111 	.word	0x10000111
10000098:	10000111 	.word	0x10000111
1000009c:	10000111 	.word	0x10000111
100000a0:	10000111 	.word	0x10000111
100000a4:	10000111 	.word	0x10000111
100000a8:	10000111 	.word	0x10000111
100000ac:	10000111 	.word	0x10000111
100000b0:	10000111 	.word	0x10000111
100000b4:	10000111 	.word	0x10000111
100000b8:	10000111 	.word	0x10000111
100000bc:	10000111 	.word	0x10000111
100000c0:	10000111 	.word	0x10000111
100000c4:	10000111 	.word	0x10000111
100000c8:	10000111 	.word	0x10000111
100000cc:	10000111 	.word	0x10000111
100000d0:	10000111 	.word	0x10000111
100000d4:	10000111 	.word	0x10000111
100000d8:	10000111 	.word	0x10000111
100000dc:	10000111 	.word	0x10000111
100000e0:	10000111 	.word	0x10000111
100000e4:	10000111 	.word	0x10000111
100000e8:	10000111 	.word	0x10000111
100000ec:	10000111 	.word	0x10000111
100000f0:	10000111 	.word	0x10000111
100000f4:	10000111 	.word	0x10000111
100000f8:	10000111 	.word	0x10000111
100000fc:	10000111 	.word	0x10000111
10000100:	10000111 	.word	0x10000111
10000104:	10000111 	.word	0x10000111
10000108:	10000111 	.word	0x10000111
1000010c:	10000111 	.word	0x10000111

10000110 <__unhandled_user_irq>:
10000110:	f3ef 8005 	mrs	r0, IPSR
10000114:	3810      	subs	r0, #16

10000116 <unhandled_user_irq_num_in_r0>:
10000116:	be00      	bkpt	0x0000

10000118 <isr_invalid>:
10000118:	be00      	bkpt	0x0000

1000011a <isr_nmi>:
1000011a:	be00      	bkpt	0x0000

1000011c <isr_hardfault>:
1000011c:	be00      	bkpt	0x0000

1000011e <isr_svcall>:
1000011e:	be00      	bkpt	0x0000

10000120 <isr_pendsv>:
10000120:	be00      	bkpt	0x0000

10000122 <isr_systick>:
10000122:	be00      	bkpt	0x0000

10000124 <__default_isrs_end>:
10000124:	7188ebf2 	.word	0x7188ebf2
10000128:	10009d60 	.word	0x10009d60
1000012c:	10009d84 	.word	0x10009d84
10000130:	100001a0 	.word	0x100001a0
10000134:	e71aa390 	.word	0xe71aa390

10000138 <__binary_info_header_end>:
10000138:	ffffded3 	.word	0xffffded3
1000013c:	10210142 	.word	0x10210142
10000140:	000001ff 	.word	0x000001ff
10000144:	0000adf8 	.word	0x0000adf8
10000148:	ab123579 	.word	0xab123579

1000014c <_entry_point>:
1000014c:	f04f 0000 	mov.w	r0, #0

10000150 <_enter_vtable_in_r0>:
10000150:	491e      	ldr	r1, [pc, #120]	; (100001cc <data_cpy_table+0x2c>)
10000152:	6008      	str	r0, [r1, #0]
10000154:	c806      	ldmia	r0!, {r1, r2}
10000156:	f381 8808 	msr	MSP, r1
1000015a:	4710      	bx	r2

1000015c <_reset_handler>:
1000015c:	f04f 4050 	mov.w	r0, #3489660928	; 0xd0000000
10000160:	6800      	ldr	r0, [r0, #0]
10000162:	b110      	cbz	r0, 1000016a <hold_non_core0_in_bootrom+0x6>

10000164 <hold_non_core0_in_bootrom>:
10000164:	f04f 0000 	mov.w	r0, #0
10000168:	e7f2      	b.n	10000150 <_enter_vtable_in_r0>
1000016a:	a40d      	add	r4, pc, #52	; (adr r4, 100001a0 <data_cpy_table>)
1000016c:	cc0e      	ldmia	r4!, {r1, r2, r3}
1000016e:	2900      	cmp	r1, #0
10000170:	d002      	beq.n	10000178 <hold_non_core0_in_bootrom+0x14>
10000172:	f000 f812 	bl	1000019a <data_cpy>
10000176:	e7f9      	b.n	1000016c <hold_non_core0_in_bootrom+0x8>
10000178:	4915      	ldr	r1, [pc, #84]	; (100001d0 <data_cpy_table+0x30>)
1000017a:	4a16      	ldr	r2, [pc, #88]	; (100001d4 <data_cpy_table+0x34>)
1000017c:	2000      	movs	r0, #0
1000017e:	e000      	b.n	10000182 <bss_fill_test>

10000180 <bss_fill_loop>:
10000180:	c101      	stmia	r1!, {r0}

10000182 <bss_fill_test>:
10000182:	4291      	cmp	r1, r2
10000184:	d1fc      	bne.n	10000180 <bss_fill_loop>

10000186 <platform_entry>:
10000186:	4914      	ldr	r1, [pc, #80]	; (100001d8 <data_cpy_table+0x38>)
10000188:	4788      	blx	r1
1000018a:	4914      	ldr	r1, [pc, #80]	; (100001dc <data_cpy_table+0x3c>)
1000018c:	4788      	blx	r1
1000018e:	4914      	ldr	r1, [pc, #80]	; (100001e0 <data_cpy_table+0x40>)
10000190:	4788      	blx	r1
10000192:	be00      	bkpt	0x0000
10000194:	e7fd      	b.n	10000192 <platform_entry+0xc>

10000196 <data_cpy_loop>:
10000196:	c901      	ldmia	r1!, {r0}
10000198:	c201      	stmia	r2!, {r0}

1000019a <data_cpy>:
1000019a:	429a      	cmp	r2, r3
1000019c:	d3fb      	bcc.n	10000196 <data_cpy_loop>
1000019e:	4770      	bx	lr

100001a0 <data_cpy_table>:
100001a0:	10009d84 	.word	0x10009d84
100001a4:	20000110 	.word	0x20000110
100001a8:	200012bc 	.word	0x200012bc
100001ac:	1000af30 	.word	0x1000af30
100001b0:	20080000 	.word	0x20080000
100001b4:	20080000 	.word	0x20080000
100001b8:	1000af30 	.word	0x1000af30
100001bc:	20081000 	.word	0x20081000
100001c0:	20081000 	.word	0x20081000
100001c4:	00000000 	.word	0x00000000
100001c8:	4770      	bx	lr
100001ca:	0000      	.short	0x0000
100001cc:	e000ed08 	.word	0xe000ed08
100001d0:	200012bc 	.word	0x200012bc
100001d4:	200422ec 	.word	0x200422ec
100001d8:	100068ad 	.word	0x100068ad
100001dc:	10000289 	.word	0x10000289
100001e0:	100068a5 	.word	0x100068a5

100001e4 <_init>:
100001e4:	b5f8      	push	{r3, r4, r5, r6, r7, lr}
100001e6:	bf00      	nop

100001e8 <__do_global_dtors_aux>:
100001e8:	b510      	push	{r4, lr}
100001ea:	4c05      	ldr	r4, [pc, #20]	; (10000200 <__do_global_dtors_aux+0x18>)
100001ec:	7823      	ldrb	r3, [r4, #0]
100001ee:	b933      	cbnz	r3, 100001fe <__do_global_dtors_aux+0x16>
100001f0:	4b04      	ldr	r3, [pc, #16]	; (10000204 <__do_global_dtors_aux+0x1c>)
100001f2:	b113      	cbz	r3, 100001fa <__do_global_dtors_aux+0x12>
100001f4:	4804      	ldr	r0, [pc, #16]	; (10000208 <__do_global_dtors_aux+0x20>)
100001f6:	e000      	b.n	100001fa <__do_global_dtors_aux+0x12>
100001f8:	bf00      	nop
100001fa:	2301      	movs	r3, #1
100001fc:	7023      	strb	r3, [r4, #0]
100001fe:	bd10      	pop	{r4, pc}
10000200:	20001488 	.word	0x20001488
10000204:	00000000 	.word	0x00000000
10000208:	10009704 	.word	0x10009704

1000020c <frame_dummy>:
1000020c:	b508      	push	{r3, lr}
1000020e:	4b03      	ldr	r3, [pc, #12]	; (1000021c <frame_dummy+0x10>)
10000210:	b11b      	cbz	r3, 1000021a <frame_dummy+0xe>
10000212:	4903      	ldr	r1, [pc, #12]	; (10000220 <frame_dummy+0x14>)
10000214:	4803      	ldr	r0, [pc, #12]	; (10000224 <frame_dummy+0x18>)
10000216:	e000      	b.n	1000021a <frame_dummy+0xe>
10000218:	bf00      	nop
1000021a:	bd08      	pop	{r3, pc}
1000021c:	00000000 	.word	0x00000000
10000220:	2000148c 	.word	0x2000148c
10000224:	10009704 	.word	0x10009704

10000228 <init_queues_and_stuff>:
10000228:	b570      	push	{r4, r5, r6, lr}
1000022a:	2200      	movs	r2, #0
1000022c:	2104      	movs	r1, #4
1000022e:	2001      	movs	r0, #1
10000230:	f002 fae4 	bl	100027fc <xQueueGenericCreate>
10000234:	4603      	mov	r3, r0
10000236:	4e0f      	ldr	r6, [pc, #60]	; (10000274 <init_queues_and_stuff+0x4c>)
10000238:	2200      	movs	r2, #0
1000023a:	2104      	movs	r1, #4
1000023c:	2001      	movs	r0, #1
1000023e:	6033      	str	r3, [r6, #0]
10000240:	f002 fadc 	bl	100027fc <xQueueGenericCreate>
10000244:	4603      	mov	r3, r0
10000246:	4d0c      	ldr	r5, [pc, #48]	; (10000278 <init_queues_and_stuff+0x50>)
10000248:	2200      	movs	r2, #0
1000024a:	2104      	movs	r1, #4
1000024c:	2001      	movs	r0, #1
1000024e:	602b      	str	r3, [r5, #0]
10000250:	f002 fad4 	bl	100027fc <xQueueGenericCreate>
10000254:	4c09      	ldr	r4, [pc, #36]	; (1000027c <init_queues_and_stuff+0x54>)
10000256:	6020      	str	r0, [r4, #0]
10000258:	f002 f8bc 	bl	100023d4 <xEventGroupCreate>
1000025c:	4b08      	ldr	r3, [pc, #32]	; (10000280 <init_queues_and_stuff+0x58>)
1000025e:	4a09      	ldr	r2, [pc, #36]	; (10000284 <init_queues_and_stuff+0x5c>)
10000260:	6836      	ldr	r6, [r6, #0]
10000262:	682d      	ldr	r5, [r5, #0]
10000264:	6821      	ldr	r1, [r4, #0]
10000266:	e9c3 6500 	strd	r6, r5, [r3]
1000026a:	6099      	str	r1, [r3, #8]
1000026c:	6010      	str	r0, [r2, #0]
1000026e:	60d8      	str	r0, [r3, #12]
10000270:	bd70      	pop	{r4, r5, r6, pc}
10000272:	bf00      	nop
10000274:	200014ac 	.word	0x200014ac
10000278:	200014c0 	.word	0x200014c0
1000027c:	200014a4 	.word	0x200014a4
10000280:	200014b0 	.word	0x200014b0
10000284:	200014a8 	.word	0x200014a8

10000288 <main>:
10000288:	b530      	push	{r4, r5, lr}
1000028a:	b083      	sub	sp, #12
1000028c:	f006 fc32 	bl	10006af4 <stdio_init_all>
10000290:	4924      	ldr	r1, [pc, #144]	; (10000324 <main+0x9c>)
10000292:	4825      	ldr	r0, [pc, #148]	; (10000328 <main+0xa0>)
10000294:	f001 fada 	bl	1000184c <i2c_init>
10000298:	2103      	movs	r1, #3
1000029a:	2005      	movs	r0, #5
1000029c:	f000 f9f2 	bl	10000684 <gpio_set_function>
100002a0:	2103      	movs	r1, #3
100002a2:	2004      	movs	r0, #4
100002a4:	f000 f9ee 	bl	10000684 <gpio_set_function>
100002a8:	2200      	movs	r2, #0
100002aa:	2101      	movs	r1, #1
100002ac:	2004      	movs	r0, #4
100002ae:	f000 fa07 	bl	100006c0 <gpio_set_pulls>
100002b2:	2200      	movs	r2, #0
100002b4:	2101      	movs	r1, #1
100002b6:	2005      	movs	r0, #5
100002b8:	f000 fa02 	bl	100006c0 <gpio_set_pulls>
100002bc:	2006      	movs	r0, #6
100002be:	f000 fa19 	bl	100006f4 <gpio_init>
100002c2:	2200      	movs	r2, #0
100002c4:	2101      	movs	r1, #1
100002c6:	2006      	movs	r0, #6
100002c8:	f000 f9fa 	bl	100006c0 <gpio_set_pulls>
100002cc:	2400      	movs	r4, #0
100002ce:	2306      	movs	r3, #6
100002d0:	ec44 3044 	gpioc_bit_oe_put r3, r4
100002d4:	2502      	movs	r5, #2
100002d6:	f000 f8c9 	bl	1000046c <max30100_init_with_interrupts>
100002da:	f7ff ffa5 	bl	10000228 <init_queues_and_stuff>
100002de:	9500      	str	r5, [sp, #0]
100002e0:	2503      	movs	r5, #3
100002e2:	f44f 7200 	mov.w	r2, #512	; 0x200
100002e6:	4b11      	ldr	r3, [pc, #68]	; (1000032c <main+0xa4>)
100002e8:	4911      	ldr	r1, [pc, #68]	; (10000330 <main+0xa8>)
100002ea:	9401      	str	r4, [sp, #4]
100002ec:	4811      	ldr	r0, [pc, #68]	; (10000334 <main+0xac>)
100002ee:	f003 fddd 	bl	10003eac <xTaskCreate>
100002f2:	9500      	str	r5, [sp, #0]
100002f4:	2504      	movs	r5, #4
100002f6:	f44f 6280 	mov.w	r2, #1024	; 0x400
100002fa:	4b0c      	ldr	r3, [pc, #48]	; (1000032c <main+0xa4>)
100002fc:	490e      	ldr	r1, [pc, #56]	; (10000338 <main+0xb0>)
100002fe:	9401      	str	r4, [sp, #4]
10000300:	480e      	ldr	r0, [pc, #56]	; (1000033c <main+0xb4>)
10000302:	f003 fdd3 	bl	10003eac <xTaskCreate>
10000306:	f44f 6280 	mov.w	r2, #1024	; 0x400
1000030a:	4b08      	ldr	r3, [pc, #32]	; (1000032c <main+0xa4>)
1000030c:	490c      	ldr	r1, [pc, #48]	; (10000340 <main+0xb8>)
1000030e:	9401      	str	r4, [sp, #4]
10000310:	9500      	str	r5, [sp, #0]
10000312:	480c      	ldr	r0, [pc, #48]	; (10000344 <main+0xbc>)
10000314:	f003 fdca 	bl	10003eac <xTaskCreate>
10000318:	f003 ff46 	bl	100041a8 <vTaskStartScheduler>
1000031c:	4620      	mov	r0, r4
1000031e:	b003      	add	sp, #12
10000320:	bd30      	pop	{r4, r5, pc}
10000322:	bf00      	nop
10000324:	00061a80 	.word	0x00061a80
10000328:	20001264 	.word	0x20001264
1000032c:	200014b0 	.word	0x200014b0
10000330:	10009708 	.word	0x10009708
10000334:	10000349 	.word	0x10000349
10000338:	10009714 	.word	0x10009714
1000033c:	10000371 	.word	0x10000371
10000340:	1000971c 	.word	0x1000971c
10000344:	100003a5 	.word	0x100003a5

10000348 <gpio_check>:
10000348:	b538      	push	{r3, r4, r5, lr}
1000034a:	f04f 4450 	mov.w	r4, #3489660928	; 0xd0000000
1000034e:	4605      	mov	r5, r0
10000350:	6863      	ldr	r3, [r4, #4]
10000352:	065b      	lsls	r3, r3, #25
10000354:	d408      	bmi.n	10000368 <gpio_check+0x20>
10000356:	f000 f86b 	bl	10000430 <max30100_read_interrupt_status>
1000035a:	2101      	movs	r1, #1
1000035c:	68e8      	ldr	r0, [r5, #12]
1000035e:	f002 f8a1 	bl	100024a4 <xEventGroupSetBits>
10000362:	6863      	ldr	r3, [r4, #4]
10000364:	065b      	lsls	r3, r3, #25
10000366:	d5f6      	bpl.n	10000356 <gpio_check+0xe>
10000368:	2032      	movs	r0, #50	; 0x32
1000036a:	f004 f883 	bl	10004474 <vTaskDelay>
1000036e:	e7ef      	b.n	10000350 <gpio_check+0x8>

10000370 <Filtrar_muestras>:
10000370:	b530      	push	{r4, r5, lr}
10000372:	4604      	mov	r4, r0
10000374:	b083      	sub	sp, #12
10000376:	4809      	ldr	r0, [pc, #36]	; (1000039c <Filtrar_muestras+0x2c>)
10000378:	4d09      	ldr	r5, [pc, #36]	; (100003a0 <Filtrar_muestras+0x30>)
1000037a:	f006 fbfb 	bl	10006b74 <__wrap_puts>
1000037e:	a901      	add	r1, sp, #4
10000380:	f04f 32ff 	mov.w	r2, #4294967295
10000384:	6820      	ldr	r0, [r4, #0]
10000386:	f002 fb5f 	bl	10002a48 <xQueueReceive>
1000038a:	4628      	mov	r0, r5
1000038c:	f8bd 2004 	ldrh.w	r2, [sp, #4]
10000390:	f8bd 1006 	ldrh.w	r1, [sp, #6]
10000394:	f006 fc6c 	bl	10006c70 <__wrap_printf>
10000398:	e7f1      	b.n	1000037e <Filtrar_muestras+0xe>
1000039a:	bf00      	nop
1000039c:	10009734 	.word	0x10009734
100003a0:	10009770 	.word	0x10009770

100003a4 <MAX30100_Read_data>:
100003a4:	2305      	movs	r3, #5
100003a6:	b5f0      	push	{r4, r5, r6, r7, lr}
100003a8:	4605      	mov	r5, r0
100003aa:	b087      	sub	sp, #28
100003ac:	481d      	ldr	r0, [pc, #116]	; (10000424 <MAX30100_Read_data+0x80>)
100003ae:	2701      	movs	r7, #1
100003b0:	4e1d      	ldr	r6, [pc, #116]	; (10000428 <MAX30100_Read_data+0x84>)
100003b2:	f88d 300f 	strb.w	r3, [sp, #15]
100003b6:	f006 fbdd 	bl	10006b74 <__wrap_puts>
100003ba:	24fa      	movs	r4, #250	; 0xfa
100003bc:	2301      	movs	r3, #1
100003be:	68e8      	ldr	r0, [r5, #12]
100003c0:	461a      	mov	r2, r3
100003c2:	4619      	mov	r1, r3
100003c4:	9400      	str	r4, [sp, #0]
100003c6:	f002 f813 	bl	100023f0 <xEventGroupWaitBits>
100003ca:	07c3      	lsls	r3, r0, #31
100003cc:	d5f6      	bpl.n	100003bc <MAX30100_Read_data+0x18>
100003ce:	2400      	movs	r4, #0
100003d0:	2301      	movs	r3, #1
100003d2:	2157      	movs	r1, #87	; 0x57
100003d4:	f10d 020f 	add.w	r2, sp, #15
100003d8:	4630      	mov	r0, r6
100003da:	9700      	str	r7, [sp, #0]
100003dc:	f001 fa5c 	bl	10001898 <i2c_write_blocking>
100003e0:	2304      	movs	r3, #4
100003e2:	2157      	movs	r1, #87	; 0x57
100003e4:	4630      	mov	r0, r6
100003e6:	aa04      	add	r2, sp, #16
100003e8:	9400      	str	r4, [sp, #0]
100003ea:	f001 fa5d 	bl	100018a8 <i2c_read_blocking>
100003ee:	b2c0      	uxtb	r0, r0
100003f0:	2804      	cmp	r0, #4
100003f2:	d112      	bne.n	1000041a <MAX30100_Read_data+0x76>
100003f4:	f8bd e010 	ldrh.w	lr, [sp, #16]
100003f8:	f8bd c012 	ldrh.w	ip, [sp, #18]
100003fc:	fa9e fe9e 	rev16.w	lr, lr
10000400:	fa9c fc9c 	rev16.w	ip, ip
10000404:	4623      	mov	r3, r4
10000406:	2264      	movs	r2, #100	; 0x64
10000408:	6828      	ldr	r0, [r5, #0]
1000040a:	a905      	add	r1, sp, #20
1000040c:	f8ad e016 	strh.w	lr, [sp, #22]
10000410:	f8ad c014 	strh.w	ip, [sp, #20]
10000414:	f002 fa32 	bl	1000287c <xQueueGenericSend>
10000418:	e7cf      	b.n	100003ba <MAX30100_Read_data+0x16>
1000041a:	4804      	ldr	r0, [pc, #16]	; (1000042c <MAX30100_Read_data+0x88>)
1000041c:	f006 fbaa 	bl	10006b74 <__wrap_puts>
10000420:	e7cb      	b.n	100003ba <MAX30100_Read_data+0x16>
10000422:	bf00      	nop
10000424:	100097a8 	.word	0x100097a8
10000428:	20001264 	.word	0x20001264
1000042c:	100097e4 	.word	0x100097e4

10000430 <max30100_read_interrupt_status>:
10000430:	2301      	movs	r3, #1
10000432:	b530      	push	{r4, r5, lr}
10000434:	2400      	movs	r4, #0
10000436:	4d0c      	ldr	r5, [pc, #48]	; (10000468 <max30100_read_interrupt_status+0x38>)
10000438:	b085      	sub	sp, #20
1000043a:	f10d 020e 	add.w	r2, sp, #14
1000043e:	9300      	str	r3, [sp, #0]
10000440:	2157      	movs	r1, #87	; 0x57
10000442:	4628      	mov	r0, r5
10000444:	f88d 400e 	strb.w	r4, [sp, #14]
10000448:	f88d 400f 	strb.w	r4, [sp, #15]
1000044c:	f001 fa24 	bl	10001898 <i2c_write_blocking>
10000450:	2301      	movs	r3, #1
10000452:	2157      	movs	r1, #87	; 0x57
10000454:	4628      	mov	r0, r5
10000456:	9400      	str	r4, [sp, #0]
10000458:	f10d 020f 	add.w	r2, sp, #15
1000045c:	f001 fa24 	bl	100018a8 <i2c_read_blocking>
10000460:	f89d 000f 	ldrb.w	r0, [sp, #15]
10000464:	b005      	add	sp, #20
10000466:	bd30      	pop	{r4, r5, pc}
10000468:	20001264 	.word	0x20001264

1000046c <max30100_init_with_interrupts>:
1000046c:	2301      	movs	r3, #1
1000046e:	b530      	push	{r4, r5, lr}
10000470:	2400      	movs	r4, #0
10000472:	f244 0506 	movw	r5, #16390	; 0x4006
10000476:	b085      	sub	sp, #20
10000478:	2157      	movs	r1, #87	; 0x57
1000047a:	f10d 020b 	add.w	r2, sp, #11
1000047e:	9300      	str	r3, [sp, #0]
10000480:	4876      	ldr	r0, [pc, #472]	; (1000065c <max30100_init_with_interrupts+0x1f0>)
10000482:	f88d 400b 	strb.w	r4, [sp, #11]
10000486:	f88d 400c 	strb.w	r4, [sp, #12]
1000048a:	f001 fa05 	bl	10001898 <i2c_write_blocking>
1000048e:	2301      	movs	r3, #1
10000490:	aa03      	add	r2, sp, #12
10000492:	2157      	movs	r1, #87	; 0x57
10000494:	9400      	str	r4, [sp, #0]
10000496:	4871      	ldr	r0, [pc, #452]	; (1000065c <max30100_init_with_interrupts+0x1f0>)
10000498:	f001 fa06 	bl	100018a8 <i2c_read_blocking>
1000049c:	4621      	mov	r1, r4
1000049e:	4870      	ldr	r0, [pc, #448]	; (10000660 <max30100_init_with_interrupts+0x1f4>)
100004a0:	f006 fbe6 	bl	10006c70 <__wrap_printf>
100004a4:	2302      	movs	r3, #2
100004a6:	2157      	movs	r1, #87	; 0x57
100004a8:	9400      	str	r4, [sp, #0]
100004aa:	aa03      	add	r2, sp, #12
100004ac:	486b      	ldr	r0, [pc, #428]	; (1000065c <max30100_init_with_interrupts+0x1f0>)
100004ae:	f8ad 500c 	strh.w	r5, [sp, #12]
100004b2:	f001 f9f1 	bl	10001898 <i2c_write_blocking>
100004b6:	4604      	mov	r4, r0
100004b8:	200a      	movs	r0, #10
100004ba:	b2e4      	uxtb	r4, r4
100004bc:	f001 f81c 	bl	100014f8 <sleep_ms>
100004c0:	2c02      	cmp	r4, #2
100004c2:	f000 808c 	beq.w	100005de <max30100_init_with_interrupts+0x172>
100004c6:	f04f 4350 	mov.w	r3, #3489660928	; 0xd0000000
100004ca:	685c      	ldr	r4, [r3, #4]
100004cc:	f014 0440 	ands.w	r4, r4, #64	; 0x40
100004d0:	f000 8092 	beq.w	100005f8 <max30100_init_with_interrupts+0x18c>
100004d4:	2500      	movs	r5, #0
100004d6:	f240 3406 	movw	r4, #774	; 0x306
100004da:	2302      	movs	r3, #2
100004dc:	2157      	movs	r1, #87	; 0x57
100004de:	aa03      	add	r2, sp, #12
100004e0:	485e      	ldr	r0, [pc, #376]	; (1000065c <max30100_init_with_interrupts+0x1f0>)
100004e2:	9500      	str	r5, [sp, #0]
100004e4:	f8ad 400c 	strh.w	r4, [sp, #12]
100004e8:	f001 f9d6 	bl	10001898 <i2c_write_blocking>
100004ec:	4604      	mov	r4, r0
100004ee:	200a      	movs	r0, #10
100004f0:	b2e4      	uxtb	r4, r4
100004f2:	f001 f801 	bl	100014f8 <sleep_ms>
100004f6:	2c02      	cmp	r4, #2
100004f8:	f000 80ac 	beq.w	10000654 <max30100_init_with_interrupts+0x1e8>
100004fc:	2500      	movs	r5, #0
100004fe:	f240 7407 	movw	r4, #1799	; 0x707
10000502:	2302      	movs	r3, #2
10000504:	2157      	movs	r1, #87	; 0x57
10000506:	aa03      	add	r2, sp, #12
10000508:	4854      	ldr	r0, [pc, #336]	; (1000065c <max30100_init_with_interrupts+0x1f0>)
1000050a:	9500      	str	r5, [sp, #0]
1000050c:	f8ad 400c 	strh.w	r4, [sp, #12]
10000510:	f001 f9c2 	bl	10001898 <i2c_write_blocking>
10000514:	4604      	mov	r4, r0
10000516:	200a      	movs	r0, #10
10000518:	b2e4      	uxtb	r4, r4
1000051a:	f000 ffed 	bl	100014f8 <sleep_ms>
1000051e:	2c02      	cmp	r4, #2
10000520:	f000 8094 	beq.w	1000064c <max30100_init_with_interrupts+0x1e0>
10000524:	2500      	movs	r5, #0
10000526:	f64a 2409 	movw	r4, #43529	; 0xaa09
1000052a:	2302      	movs	r3, #2
1000052c:	2157      	movs	r1, #87	; 0x57
1000052e:	aa03      	add	r2, sp, #12
10000530:	484a      	ldr	r0, [pc, #296]	; (1000065c <max30100_init_with_interrupts+0x1f0>)
10000532:	9500      	str	r5, [sp, #0]
10000534:	f8ad 400c 	strh.w	r4, [sp, #12]
10000538:	f001 f9ae 	bl	10001898 <i2c_write_blocking>
1000053c:	4604      	mov	r4, r0
1000053e:	200a      	movs	r0, #10
10000540:	b2e4      	uxtb	r4, r4
10000542:	f000 ffd9 	bl	100014f8 <sleep_ms>
10000546:	2c02      	cmp	r4, #2
10000548:	d07c      	beq.n	10000644 <max30100_init_with_interrupts+0x1d8>
1000054a:	2400      	movs	r4, #0
1000054c:	2302      	movs	r3, #2
1000054e:	2157      	movs	r1, #87	; 0x57
10000550:	aa03      	add	r2, sp, #12
10000552:	9400      	str	r4, [sp, #0]
10000554:	4841      	ldr	r0, [pc, #260]	; (1000065c <max30100_init_with_interrupts+0x1f0>)
10000556:	f8ad 300c 	strh.w	r3, [sp, #12]
1000055a:	f001 f99d 	bl	10001898 <i2c_write_blocking>
1000055e:	4604      	mov	r4, r0
10000560:	200a      	movs	r0, #10
10000562:	b2e4      	uxtb	r4, r4
10000564:	f000 ffc8 	bl	100014f8 <sleep_ms>
10000568:	2c02      	cmp	r4, #2
1000056a:	d067      	beq.n	1000063c <max30100_init_with_interrupts+0x1d0>
1000056c:	2500      	movs	r5, #0
1000056e:	2403      	movs	r4, #3
10000570:	2302      	movs	r3, #2
10000572:	2157      	movs	r1, #87	; 0x57
10000574:	aa03      	add	r2, sp, #12
10000576:	4839      	ldr	r0, [pc, #228]	; (1000065c <max30100_init_with_interrupts+0x1f0>)
10000578:	9500      	str	r5, [sp, #0]
1000057a:	f8ad 400c 	strh.w	r4, [sp, #12]
1000057e:	f001 f98b 	bl	10001898 <i2c_write_blocking>
10000582:	4604      	mov	r4, r0
10000584:	200a      	movs	r0, #10
10000586:	b2e4      	uxtb	r4, r4
10000588:	f000 ffb6 	bl	100014f8 <sleep_ms>
1000058c:	2c02      	cmp	r4, #2
1000058e:	d051      	beq.n	10000634 <max30100_init_with_interrupts+0x1c8>
10000590:	2400      	movs	r4, #0
10000592:	250a      	movs	r5, #10
10000594:	2302      	movs	r3, #2
10000596:	2157      	movs	r1, #87	; 0x57
10000598:	aa03      	add	r2, sp, #12
1000059a:	9400      	str	r4, [sp, #0]
1000059c:	482f      	ldr	r0, [pc, #188]	; (1000065c <max30100_init_with_interrupts+0x1f0>)
1000059e:	f8ad 500c 	strh.w	r5, [sp, #12]
100005a2:	f001 f979 	bl	10001898 <i2c_write_blocking>
100005a6:	4604      	mov	r4, r0
100005a8:	4628      	mov	r0, r5
100005aa:	b2e4      	uxtb	r4, r4
100005ac:	f000 ffa4 	bl	100014f8 <sleep_ms>
100005b0:	2c02      	cmp	r4, #2
100005b2:	d03b      	beq.n	1000062c <max30100_init_with_interrupts+0x1c0>
100005b4:	2500      	movs	r5, #0
100005b6:	f242 0401 	movw	r4, #8193	; 0x2001
100005ba:	2302      	movs	r3, #2
100005bc:	2157      	movs	r1, #87	; 0x57
100005be:	aa03      	add	r2, sp, #12
100005c0:	4826      	ldr	r0, [pc, #152]	; (1000065c <max30100_init_with_interrupts+0x1f0>)
100005c2:	9500      	str	r5, [sp, #0]
100005c4:	f8ad 400c 	strh.w	r4, [sp, #12]
100005c8:	f001 f966 	bl	10001898 <i2c_write_blocking>
100005cc:	4604      	mov	r4, r0
100005ce:	200a      	movs	r0, #10
100005d0:	b2e4      	uxtb	r4, r4
100005d2:	f000 ff91 	bl	100014f8 <sleep_ms>
100005d6:	2c02      	cmp	r4, #2
100005d8:	d022      	beq.n	10000620 <max30100_init_with_interrupts+0x1b4>
100005da:	b005      	add	sp, #20
100005dc:	bd30      	pop	{r4, r5, pc}
100005de:	2064      	movs	r0, #100	; 0x64
100005e0:	f000 ff8a 	bl	100014f8 <sleep_ms>
100005e4:	481f      	ldr	r0, [pc, #124]	; (10000664 <max30100_init_with_interrupts+0x1f8>)
100005e6:	f006 fac5 	bl	10006b74 <__wrap_puts>
100005ea:	f04f 4350 	mov.w	r3, #3489660928	; 0xd0000000
100005ee:	685c      	ldr	r4, [r3, #4]
100005f0:	f014 0440 	ands.w	r4, r4, #64	; 0x40
100005f4:	f47f af6e 	bne.w	100004d4 <max30100_init_with_interrupts+0x68>
100005f8:	2301      	movs	r3, #1
100005fa:	f10d 020b 	add.w	r2, sp, #11
100005fe:	9300      	str	r3, [sp, #0]
10000600:	2157      	movs	r1, #87	; 0x57
10000602:	4816      	ldr	r0, [pc, #88]	; (1000065c <max30100_init_with_interrupts+0x1f0>)
10000604:	f88d 400b 	strb.w	r4, [sp, #11]
10000608:	f88d 400c 	strb.w	r4, [sp, #12]
1000060c:	f001 f944 	bl	10001898 <i2c_write_blocking>
10000610:	2301      	movs	r3, #1
10000612:	2157      	movs	r1, #87	; 0x57
10000614:	aa03      	add	r2, sp, #12
10000616:	9400      	str	r4, [sp, #0]
10000618:	4810      	ldr	r0, [pc, #64]	; (1000065c <max30100_init_with_interrupts+0x1f0>)
1000061a:	f001 f945 	bl	100018a8 <i2c_read_blocking>
1000061e:	e759      	b.n	100004d4 <max30100_init_with_interrupts+0x68>
10000620:	4811      	ldr	r0, [pc, #68]	; (10000668 <max30100_init_with_interrupts+0x1fc>)
10000622:	b005      	add	sp, #20
10000624:	e8bd 4030 	ldmia.w	sp!, {r4, r5, lr}
10000628:	f006 baa4 	b.w	10006b74 <__wrap_puts>
1000062c:	480f      	ldr	r0, [pc, #60]	; (1000066c <max30100_init_with_interrupts+0x200>)
1000062e:	f006 faa1 	bl	10006b74 <__wrap_puts>
10000632:	e7bf      	b.n	100005b4 <max30100_init_with_interrupts+0x148>
10000634:	480e      	ldr	r0, [pc, #56]	; (10000670 <max30100_init_with_interrupts+0x204>)
10000636:	f006 fa9d 	bl	10006b74 <__wrap_puts>
1000063a:	e7a9      	b.n	10000590 <max30100_init_with_interrupts+0x124>
1000063c:	480d      	ldr	r0, [pc, #52]	; (10000674 <max30100_init_with_interrupts+0x208>)
1000063e:	f006 fa99 	bl	10006b74 <__wrap_puts>
10000642:	e793      	b.n	1000056c <max30100_init_with_interrupts+0x100>
10000644:	480c      	ldr	r0, [pc, #48]	; (10000678 <max30100_init_with_interrupts+0x20c>)
10000646:	f006 fa95 	bl	10006b74 <__wrap_puts>
1000064a:	e77e      	b.n	1000054a <max30100_init_with_interrupts+0xde>
1000064c:	480b      	ldr	r0, [pc, #44]	; (1000067c <max30100_init_with_interrupts+0x210>)
1000064e:	f006 fa91 	bl	10006b74 <__wrap_puts>
10000652:	e767      	b.n	10000524 <max30100_init_with_interrupts+0xb8>
10000654:	480a      	ldr	r0, [pc, #40]	; (10000680 <max30100_init_with_interrupts+0x214>)
10000656:	f006 fa8d 	bl	10006b74 <__wrap_puts>
1000065a:	e74f      	b.n	100004fc <max30100_init_with_interrupts+0x90>
1000065c:	20001264 	.word	0x20001264
10000660:	10009808 	.word	0x10009808
10000664:	10009824 	.word	0x10009824
10000668:	10009910 	.word	0x10009910
1000066c:	100098e4 	.word	0x100098e4
10000670:	100098bc 	.word	0x100098bc
10000674:	100098a4 	.word	0x100098a4
10000678:	10009888 	.word	0x10009888
1000067c:	1000986c 	.word	0x1000986c
10000680:	10009850 	.word	0x10009850

10000684 <gpio_set_function>:
10000684:	b410      	push	{r4}
10000686:	f44f 7480 	mov.w	r4, #256	; 0x100
1000068a:	4b0c      	ldr	r3, [pc, #48]	; (100006bc <gpio_set_function+0x38>)
1000068c:	f853 2020 	ldr.w	r2, [r3, r0, lsl #2]
10000690:	eb03 0380 	add.w	r3, r3, r0, lsl #2
10000694:	00c0      	lsls	r0, r0, #3
10000696:	f082 0240 	eor.w	r2, r2, #64	; 0x40
1000069a:	f100 4080 	add.w	r0, r0, #1073741824	; 0x40000000
1000069e:	f503 5c80 	add.w	ip, r3, #4096	; 0x1000
100006a2:	f002 02c0 	and.w	r2, r2, #192	; 0xc0
100006a6:	f500 3020 	add.w	r0, r0, #163840	; 0x28000
100006aa:	f503 5340 	add.w	r3, r3, #12288	; 0x3000
100006ae:	f8cc 2000 	str.w	r2, [ip]
100006b2:	6041      	str	r1, [r0, #4]
100006b4:	601c      	str	r4, [r3, #0]
100006b6:	f85d 4b04 	ldr.w	r4, [sp], #4
100006ba:	4770      	bx	lr
100006bc:	40038004 	.word	0x40038004

100006c0 <gpio_set_pulls>:
100006c0:	2900      	cmp	r1, #0
100006c2:	bf15      	itete	ne
100006c4:	210c      	movne	r1, #12
100006c6:	2104      	moveq	r1, #4
100006c8:	f04f 0c08 	movne.w	ip, #8
100006cc:	f04f 0c00 	moveq.w	ip, #0
100006d0:	2a00      	cmp	r2, #0
100006d2:	bf08      	it	eq
100006d4:	4661      	moveq	r1, ip
100006d6:	4b06      	ldr	r3, [pc, #24]	; (100006f0 <gpio_set_pulls+0x30>)
100006d8:	f853 2020 	ldr.w	r2, [r3, r0, lsl #2]
100006dc:	eb03 0380 	add.w	r3, r3, r0, lsl #2
100006e0:	404a      	eors	r2, r1
100006e2:	f503 5380 	add.w	r3, r3, #4096	; 0x1000
100006e6:	f002 020c 	and.w	r2, r2, #12
100006ea:	601a      	str	r2, [r3, #0]
100006ec:	4770      	bx	lr
100006ee:	bf00      	nop
100006f0:	40038004 	.word	0x40038004

100006f4 <gpio_init>:
100006f4:	b430      	push	{r4, r5}
100006f6:	2300      	movs	r3, #0
100006f8:	ec43 0044 	gpioc_bit_oe_put r0, r3
100006fc:	ec43 0040 	gpioc_bit_out_put r0, r3
10000700:	2505      	movs	r5, #5
10000702:	f44f 7480 	mov.w	r4, #256	; 0x100
10000706:	4b0b      	ldr	r3, [pc, #44]	; (10000734 <gpio_init+0x40>)
10000708:	00c2      	lsls	r2, r0, #3
1000070a:	f853 1020 	ldr.w	r1, [r3, r0, lsl #2]
1000070e:	eb03 0080 	add.w	r0, r3, r0, lsl #2
10000712:	f081 0140 	eor.w	r1, r1, #64	; 0x40
10000716:	f102 4380 	add.w	r3, r2, #1073741824	; 0x40000000
1000071a:	f503 3320 	add.w	r3, r3, #163840	; 0x28000
1000071e:	f001 02c0 	and.w	r2, r1, #192	; 0xc0
10000722:	f500 5180 	add.w	r1, r0, #4096	; 0x1000
10000726:	f500 5040 	add.w	r0, r0, #12288	; 0x3000
1000072a:	600a      	str	r2, [r1, #0]
1000072c:	605d      	str	r5, [r3, #4]
1000072e:	6004      	str	r4, [r0, #0]
10000730:	bc30      	pop	{r4, r5}
10000732:	4770      	bx	lr
10000734:	40038004 	.word	0x40038004

10000738 <panic>:
10000738:	b40f      	push	{r0, r1, r2, r3}
1000073a:	b500      	push	{lr}
1000073c:	b083      	sub	sp, #12
1000073e:	9c04      	ldr	r4, [sp, #16]
10000740:	4807      	ldr	r0, [pc, #28]	; (10000760 <panic+0x28>)
10000742:	f006 fa17 	bl	10006b74 <__wrap_puts>
10000746:	b13c      	cbz	r4, 10000758 <panic+0x20>
10000748:	a905      	add	r1, sp, #20
1000074a:	4620      	mov	r0, r4
1000074c:	9101      	str	r1, [sp, #4]
1000074e:	f006 f88f 	bl	10006870 <weak_raw_vprintf>
10000752:	4804      	ldr	r0, [pc, #16]	; (10000764 <panic+0x2c>)
10000754:	f006 fa0e 	bl	10006b74 <__wrap_puts>
10000758:	2001      	movs	r0, #1
1000075a:	f006 f8a1 	bl	100068a0 <_exit>
1000075e:	bf00      	nop
10000760:	10009940 	.word	0x10009940
10000764:	10009950 	.word	0x10009950

10000768 <hw_claim_lock>:
10000768:	f3ef 8010 	mrs	r0, PRIMASK
1000076c:	b672      	cpsid	i
1000076e:	4b06      	ldr	r3, [pc, #24]	; (10000788 <hw_claim_lock+0x20>)
10000770:	e8d3 1fcf 	ldaexb	r1, [r3]
10000774:	2201      	movs	r2, #1
10000776:	2900      	cmp	r1, #0
10000778:	d1fa      	bne.n	10000770 <hw_claim_lock+0x8>
1000077a:	e8c3 2f41 	strexb	r1, r2, [r3]
1000077e:	2900      	cmp	r1, #0
10000780:	d1f6      	bne.n	10000770 <hw_claim_lock+0x8>
10000782:	f3bf 8f5f 	dmb	sy
10000786:	4770      	bx	lr
10000788:	20001673 	.word	0x20001673

1000078c <hw_claim_unlock>:
1000078c:	2300      	movs	r3, #0
1000078e:	4a03      	ldr	r2, [pc, #12]	; (1000079c <hw_claim_unlock+0x10>)
10000790:	e8c2 3f8f 	stlb	r3, [r2]
10000794:	f380 8810 	msr	PRIMASK, r0
10000798:	4770      	bx	lr
1000079a:	bf00      	nop
1000079c:	20001673 	.word	0x20001673

100007a0 <hw_claim_or_assert>:
100007a0:	b570      	push	{r4, r5, r6, lr}
100007a2:	f3ef 8510 	mrs	r5, PRIMASK
100007a6:	b672      	cpsid	i
100007a8:	4c13      	ldr	r4, [pc, #76]	; (100007f8 <hw_claim_or_assert+0x58>)
100007aa:	e8d4 cfcf 	ldaexb	ip, [r4]
100007ae:	2601      	movs	r6, #1
100007b0:	f1bc 0f00 	cmp.w	ip, #0
100007b4:	d1f9      	bne.n	100007aa <hw_claim_or_assert+0xa>
100007b6:	e8c4 6f4c 	strexb	ip, r6, [r4]
100007ba:	f1bc 0f00 	cmp.w	ip, #0
100007be:	d1f4      	bne.n	100007aa <hw_claim_or_assert+0xa>
100007c0:	f3bf 8f5f 	dmb	sy
100007c4:	f04f 0c01 	mov.w	ip, #1
100007c8:	ea4f 0ed1 	mov.w	lr, r1, lsr #3
100007cc:	f001 0307 	and.w	r3, r1, #7
100007d0:	fa0c f303 	lsl.w	r3, ip, r3
100007d4:	f810 c00e 	ldrb.w	ip, [r0, lr]
100007d8:	ea1c 0603 	ands.w	r6, ip, r3
100007dc:	d108      	bne.n	100007f0 <hw_claim_or_assert+0x50>
100007de:	ea4c 0303 	orr.w	r3, ip, r3
100007e2:	f800 300e 	strb.w	r3, [r0, lr]
100007e6:	e8c4 6f8f 	stlb	r6, [r4]
100007ea:	f385 8810 	msr	PRIMASK, r5
100007ee:	bd70      	pop	{r4, r5, r6, pc}
100007f0:	4610      	mov	r0, r2
100007f2:	f7ff ffa1 	bl	10000738 <panic>
100007f6:	bf00      	nop
100007f8:	20001673 	.word	0x20001673

100007fc <hw_claim_unused_from_range>:
100007fc:	b5f8      	push	{r3, r4, r5, r6, r7, lr}
100007fe:	f3ef 8510 	mrs	r5, PRIMASK
10000802:	b672      	cpsid	i
10000804:	4c23      	ldr	r4, [pc, #140]	; (10000894 <hw_claim_unused_from_range+0x98>)
10000806:	e8d4 7fcf 	ldaexb	r7, [r4]
1000080a:	2601      	movs	r6, #1
1000080c:	2f00      	cmp	r7, #0
1000080e:	d1fa      	bne.n	10000806 <hw_claim_unused_from_range+0xa>
10000810:	e8c4 6f47 	strexb	r7, r6, [r4]
10000814:	2f00      	cmp	r7, #0
10000816:	d1f6      	bne.n	10000806 <hw_claim_unused_from_range+0xa>
10000818:	f3bf 8f5f 	dmb	sy
1000081c:	429a      	cmp	r2, r3
1000081e:	d827      	bhi.n	10000870 <hw_claim_unused_from_range+0x74>
10000820:	2601      	movs	r6, #1
10000822:	08d7      	lsrs	r7, r2, #3
10000824:	f810 e007 	ldrb.w	lr, [r0, r7]
10000828:	f002 0c07 	and.w	ip, r2, #7
1000082c:	fa06 fc0c 	lsl.w	ip, r6, ip
10000830:	ea1e 0f0c 	tst.w	lr, ip
10000834:	eb00 07d2 	add.w	r7, r0, r2, lsr #3
10000838:	d10d      	bne.n	10000856 <hw_claim_unused_from_range+0x5a>
1000083a:	e025      	b.n	10000888 <hw_claim_unused_from_range+0x8c>
1000083c:	ea4f 0ed2 	mov.w	lr, r2, lsr #3
10000840:	f810 e00e 	ldrb.w	lr, [r0, lr]
10000844:	f002 0c07 	and.w	ip, r2, #7
10000848:	fa06 fc0c 	lsl.w	ip, r6, ip
1000084c:	ea1e 0f0c 	tst.w	lr, ip
10000850:	eb00 07d2 	add.w	r7, r0, r2, lsr #3
10000854:	d018      	beq.n	10000888 <hw_claim_unused_from_range+0x8c>
10000856:	3201      	adds	r2, #1
10000858:	4293      	cmp	r3, r2
1000085a:	d2ef      	bcs.n	1000083c <hw_claim_unused_from_range+0x40>
1000085c:	f04f 30ff 	mov.w	r0, #4294967295
10000860:	2300      	movs	r3, #0
10000862:	e8c4 3f8f 	stlb	r3, [r4]
10000866:	f385 8810 	msr	PRIMASK, r5
1000086a:	4298      	cmp	r0, r3
1000086c:	db07      	blt.n	1000087e <hw_claim_unused_from_range+0x82>
1000086e:	bdf8      	pop	{r3, r4, r5, r6, r7, pc}
10000870:	2300      	movs	r3, #0
10000872:	e8c4 3f8f 	stlb	r3, [r4]
10000876:	f385 8810 	msr	PRIMASK, r5
1000087a:	f04f 30ff 	mov.w	r0, #4294967295
1000087e:	2900      	cmp	r1, #0
10000880:	d0f5      	beq.n	1000086e <hw_claim_unused_from_range+0x72>
10000882:	9806      	ldr	r0, [sp, #24]
10000884:	f7ff ff58 	bl	10000738 <panic>
10000888:	ea4e 0c0c 	orr.w	ip, lr, ip
1000088c:	4610      	mov	r0, r2
1000088e:	f887 c000 	strb.w	ip, [r7]
10000892:	e7e5      	b.n	10000860 <hw_claim_unused_from_range+0x64>
10000894:	20001673 	.word	0x20001673

10000898 <next_striped_spin_lock_num>:
10000898:	4a04      	ldr	r2, [pc, #16]	; (100008ac <next_striped_spin_lock_num+0x14>)
1000089a:	7810      	ldrb	r0, [r2, #0]
1000089c:	1c43      	adds	r3, r0, #1
1000089e:	b2db      	uxtb	r3, r3
100008a0:	2b17      	cmp	r3, #23
100008a2:	bf88      	it	hi
100008a4:	2310      	movhi	r3, #16
100008a6:	7013      	strb	r3, [r2, #0]
100008a8:	4770      	bx	lr
100008aa:	bf00      	nop
100008ac:	20001200 	.word	0x20001200

100008b0 <spin_lock_claim>:
100008b0:	4601      	mov	r1, r0
100008b2:	4a02      	ldr	r2, [pc, #8]	; (100008bc <spin_lock_claim+0xc>)
100008b4:	4802      	ldr	r0, [pc, #8]	; (100008c0 <spin_lock_claim+0x10>)
100008b6:	f7ff bf73 	b.w	100007a0 <hw_claim_or_assert>
100008ba:	bf00      	nop
100008bc:	10009954 	.word	0x10009954
100008c0:	20001a84 	.word	0x20001a84

100008c4 <spin_lock_claim_unused>:
100008c4:	b510      	push	{r4, lr}
100008c6:	4c05      	ldr	r4, [pc, #20]	; (100008dc <spin_lock_claim_unused+0x18>)
100008c8:	b082      	sub	sp, #8
100008ca:	4601      	mov	r1, r0
100008cc:	231f      	movs	r3, #31
100008ce:	2218      	movs	r2, #24
100008d0:	9400      	str	r4, [sp, #0]
100008d2:	4803      	ldr	r0, [pc, #12]	; (100008e0 <spin_lock_claim_unused+0x1c>)
100008d4:	f7ff ff92 	bl	100007fc <hw_claim_unused_from_range>
100008d8:	b002      	add	sp, #8
100008da:	bd10      	pop	{r4, pc}
100008dc:	10009974 	.word	0x10009974
100008e0:	20001a84 	.word	0x20001a84

100008e4 <spinlock_set_extexclall>:
100008e4:	f04f 22e0 	mov.w	r2, #3758153728	; 0xe000e000
100008e8:	6893      	ldr	r3, [r2, #8]
100008ea:	f043 5300 	orr.w	r3, r3, #536870912	; 0x20000000
100008ee:	6093      	str	r3, [r2, #8]
100008f0:	4770      	bx	lr
100008f2:	bf00      	nop

100008f4 <spin_locks_reset>:
100008f4:	2100      	movs	r1, #0
100008f6:	4b04      	ldr	r3, [pc, #16]	; (10000908 <spin_locks_reset+0x14>)
100008f8:	f103 0220 	add.w	r2, r3, #32
100008fc:	e8c3 1f8f 	stlb	r1, [r3]
10000900:	3301      	adds	r3, #1
10000902:	4293      	cmp	r3, r2
10000904:	d1fa      	bne.n	100008fc <spin_locks_reset+0x8>
10000906:	4770      	bx	lr
10000908:	20001668 	.word	0x20001668

1000090c <runtime_init_per_core_irq_priorities>:
1000090c:	f04f 23e0 	mov.w	r3, #3758153728	; 0xe000e000
10000910:	f04f 3280 	mov.w	r2, #2155905152	; 0x80808080
10000914:	f8c3 2400 	str.w	r2, [r3, #1024]	; 0x400
10000918:	f8c3 2404 	str.w	r2, [r3, #1028]	; 0x404
1000091c:	f8c3 2408 	str.w	r2, [r3, #1032]	; 0x408
10000920:	f8c3 240c 	str.w	r2, [r3, #1036]	; 0x40c
10000924:	f8c3 2410 	str.w	r2, [r3, #1040]	; 0x410
10000928:	f8c3 2414 	str.w	r2, [r3, #1044]	; 0x414
1000092c:	f8c3 2418 	str.w	r2, [r3, #1048]	; 0x418
10000930:	f8c3 241c 	str.w	r2, [r3, #1052]	; 0x41c
10000934:	f8c3 2420 	str.w	r2, [r3, #1056]	; 0x420
10000938:	f8c3 2424 	str.w	r2, [r3, #1060]	; 0x424
1000093c:	f8c3 2428 	str.w	r2, [r3, #1064]	; 0x428
10000940:	f8c3 242c 	str.w	r2, [r3, #1068]	; 0x42c
10000944:	f8c3 2430 	str.w	r2, [r3, #1072]	; 0x430
10000948:	b662      	cpsie	i
1000094a:	4770      	bx	lr

1000094c <irq_set_enabled>:
1000094c:	2301      	movs	r3, #1
1000094e:	f000 021f 	and.w	r2, r0, #31
10000952:	4093      	lsls	r3, r2
10000954:	0940      	lsrs	r0, r0, #5
10000956:	b141      	cbz	r1, 1000096a <irq_set_enabled+0x1e>
10000958:	0080      	lsls	r0, r0, #2
1000095a:	f100 4060 	add.w	r0, r0, #3758096384	; 0xe0000000
1000095e:	f500 4061 	add.w	r0, r0, #57600	; 0xe100
10000962:	f8c0 3180 	str.w	r3, [r0, #384]	; 0x180
10000966:	6003      	str	r3, [r0, #0]
10000968:	4770      	bx	lr
1000096a:	4a02      	ldr	r2, [pc, #8]	; (10000974 <irq_set_enabled+0x28>)
1000096c:	3020      	adds	r0, #32
1000096e:	f842 3020 	str.w	r3, [r2, r0, lsl #2]
10000972:	4770      	bx	lr
10000974:	e000e100 	.word	0xe000e100

10000978 <irq_is_enabled>:
10000978:	2301      	movs	r3, #1
1000097a:	4a06      	ldr	r2, [pc, #24]	; (10000994 <irq_is_enabled+0x1c>)
1000097c:	0941      	lsrs	r1, r0, #5
1000097e:	f852 2021 	ldr.w	r2, [r2, r1, lsl #2]
10000982:	f000 001f 	and.w	r0, r0, #31
10000986:	fa03 f000 	lsl.w	r0, r3, r0
1000098a:	4210      	tst	r0, r2
1000098c:	bf14      	ite	ne
1000098e:	4618      	movne	r0, r3
10000990:	2000      	moveq	r0, #0
10000992:	4770      	bx	lr
10000994:	e000e100 	.word	0xe000e100

10000998 <irq_set_pending>:
10000998:	2201      	movs	r2, #1
1000099a:	0943      	lsrs	r3, r0, #5
1000099c:	4904      	ldr	r1, [pc, #16]	; (100009b0 <irq_set_pending+0x18>)
1000099e:	f000 001f 	and.w	r0, r0, #31
100009a2:	fa02 f000 	lsl.w	r0, r2, r0
100009a6:	3340      	adds	r3, #64	; 0x40
100009a8:	f841 0023 	str.w	r0, [r1, r3, lsl #2]
100009ac:	4770      	bx	lr
100009ae:	bf00      	nop
100009b0:	e000e100 	.word	0xe000e100

100009b4 <irq_has_shared_handler>:
100009b4:	4a05      	ldr	r2, [pc, #20]	; (100009cc <irq_has_shared_handler+0x18>)
100009b6:	3010      	adds	r0, #16
100009b8:	6892      	ldr	r2, [r2, #8]
100009ba:	4b05      	ldr	r3, [pc, #20]	; (100009d0 <irq_has_shared_handler+0x1c>)
100009bc:	f852 0020 	ldr.w	r0, [r2, r0, lsl #2]
100009c0:	1ac0      	subs	r0, r0, r3
100009c2:	282f      	cmp	r0, #47	; 0x2f
100009c4:	bf8c      	ite	hi
100009c6:	2000      	movhi	r0, #0
100009c8:	2001      	movls	r0, #1
100009ca:	4770      	bx	lr
100009cc:	e000ed00 	.word	0xe000ed00
100009d0:	20001204 	.word	0x20001204

100009d4 <irq_set_exclusive_handler>:
100009d4:	b5f8      	push	{r3, r4, r5, r6, r7, lr}
100009d6:	460d      	mov	r5, r1
100009d8:	f3ef 8710 	mrs	r7, PRIMASK
100009dc:	b672      	cpsid	i
100009de:	4e12      	ldr	r6, [pc, #72]	; (10000a28 <irq_set_exclusive_handler+0x54>)
100009e0:	e8d6 2fcf 	ldaexb	r2, [r6]
100009e4:	2301      	movs	r3, #1
100009e6:	2a00      	cmp	r2, #0
100009e8:	d1fa      	bne.n	100009e0 <irq_set_exclusive_handler+0xc>
100009ea:	e8c6 3f42 	strexb	r2, r3, [r6]
100009ee:	2a00      	cmp	r2, #0
100009f0:	d1f6      	bne.n	100009e0 <irq_set_exclusive_handler+0xc>
100009f2:	f3bf 8f5f 	dmb	sy
100009f6:	4b0d      	ldr	r3, [pc, #52]	; (10000a2c <irq_set_exclusive_handler+0x58>)
100009f8:	f100 0410 	add.w	r4, r0, #16
100009fc:	689b      	ldr	r3, [r3, #8]
100009fe:	4a0c      	ldr	r2, [pc, #48]	; (10000a30 <irq_set_exclusive_handler+0x5c>)
10000a00:	f853 3024 	ldr.w	r3, [r3, r4, lsl #2]
10000a04:	4293      	cmp	r3, r2
10000a06:	d003      	beq.n	10000a10 <irq_set_exclusive_handler+0x3c>
10000a08:	4299      	cmp	r1, r3
10000a0a:	d001      	beq.n	10000a10 <irq_set_exclusive_handler+0x3c>
10000a0c:	f004 fa1a 	bl	10004e44 <hard_assertion_failure>
10000a10:	4b06      	ldr	r3, [pc, #24]	; (10000a2c <irq_set_exclusive_handler+0x58>)
10000a12:	689b      	ldr	r3, [r3, #8]
10000a14:	f843 5024 	str.w	r5, [r3, r4, lsl #2]
10000a18:	f3bf 8f5f 	dmb	sy
10000a1c:	2300      	movs	r3, #0
10000a1e:	e8c6 3f8f 	stlb	r3, [r6]
10000a22:	f387 8810 	msr	PRIMASK, r7
10000a26:	bdf8      	pop	{r3, r4, r5, r6, r7, pc}
10000a28:	20001671 	.word	0x20001671
10000a2c:	e000ed00 	.word	0xe000ed00
10000a30:	10000111 	.word	0x10000111

10000a34 <irq_add_shared_handler>:
10000a34:	e92d 4ff0 	stmdb	sp!, {r4, r5, r6, r7, r8, r9, sl, fp, lr}
10000a38:	4680      	mov	r8, r0
10000a3a:	468b      	mov	fp, r1
10000a3c:	4617      	mov	r7, r2
10000a3e:	b083      	sub	sp, #12
10000a40:	f3ef 8310 	mrs	r3, PRIMASK
10000a44:	b672      	cpsid	i
10000a46:	f8df a1d0 	ldr.w	sl, [pc, #464]	; 10000c18 <irq_add_shared_handler+0x1e4>
10000a4a:	9300      	str	r3, [sp, #0]
10000a4c:	e8da 1fcf 	ldaexb	r1, [sl]
10000a50:	2301      	movs	r3, #1
10000a52:	2900      	cmp	r1, #0
10000a54:	d1fa      	bne.n	10000a4c <irq_add_shared_handler+0x18>
10000a56:	e8ca 3f41 	strexb	r1, r3, [sl]
10000a5a:	2900      	cmp	r1, #0
10000a5c:	d1f6      	bne.n	10000a4c <irq_add_shared_handler+0x18>
10000a5e:	f3bf 8f5f 	dmb	sy
10000a62:	4e66      	ldr	r6, [pc, #408]	; (10000bfc <irq_add_shared_handler+0x1c8>)
10000a64:	f996 5000 	ldrsb.w	r5, [r6]
10000a68:	2d00      	cmp	r5, #0
10000a6a:	f2c0 80a0 	blt.w	10000bae <irq_add_shared_handler+0x17a>
10000a6e:	4c64      	ldr	r4, [pc, #400]	; (10000c00 <irq_add_shared_handler+0x1cc>)
10000a70:	eb05 0345 	add.w	r3, r5, r5, lsl #1
10000a74:	eb04 0083 	add.w	r0, r4, r3, lsl #2
10000a78:	7981      	ldrb	r1, [r0, #6]
10000a7a:	f108 0810 	add.w	r8, r8, #16
10000a7e:	7031      	strb	r1, [r6, #0]
10000a80:	4960      	ldr	r1, [pc, #384]	; (10000c04 <irq_add_shared_handler+0x1d0>)
10000a82:	009b      	lsls	r3, r3, #2
10000a84:	6889      	ldr	r1, [r1, #8]
10000a86:	4699      	mov	r9, r3
10000a88:	f851 e028 	ldr.w	lr, [r1, r8, lsl #2]
10000a8c:	4606      	mov	r6, r0
10000a8e:	ebae 0104 	sub.w	r1, lr, r4
10000a92:	292f      	cmp	r1, #47	; 0x2f
10000a94:	ea4f 0245 	mov.w	r2, r5, lsl #1
10000a98:	d931      	bls.n	10000afe <irq_add_shared_handler+0xca>
10000a9a:	4b5b      	ldr	r3, [pc, #364]	; (10000c08 <irq_add_shared_handler+0x1d4>)
10000a9c:	459e      	cmp	lr, r3
10000a9e:	f040 80a2 	bne.w	10000be6 <irq_add_shared_handler+0x1b2>
10000aa2:	4b5a      	ldr	r3, [pc, #360]	; (10000c0c <irq_add_shared_handler+0x1d8>)
10000aa4:	f109 0902 	add.w	r9, r9, #2
10000aa8:	44a1      	add	r9, r4
10000aaa:	3b04      	subs	r3, #4
10000aac:	eba3 0309 	sub.w	r3, r3, r9
10000ab0:	f3c3 034a 	ubfx	r3, r3, #1, #11
10000ab4:	ea6f 43c3 	mvn.w	r3, r3, lsl #19
10000ab8:	f44f 4121 	mov.w	r1, #41216	; 0xa100
10000abc:	ea6f 43d3 	mvn.w	r3, r3, lsr #19
10000ac0:	4415      	add	r5, r2
10000ac2:	f824 1025 	strh.w	r1, [r4, r5, lsl #2]
10000ac6:	eb04 0585 	add.w	r5, r4, r5, lsl #2
10000aca:	806b      	strh	r3, [r5, #2]
10000acc:	f64b 5301 	movw	r3, #48385	; 0xbd01
10000ad0:	80ab      	strh	r3, [r5, #4]
10000ad2:	23ff      	movs	r3, #255	; 0xff
10000ad4:	f046 0e01 	orr.w	lr, r6, #1
10000ad8:	71ef      	strb	r7, [r5, #7]
10000ada:	f8c5 b008 	str.w	fp, [r5, #8]
10000ade:	71ab      	strb	r3, [r5, #6]
10000ae0:	4b48      	ldr	r3, [pc, #288]	; (10000c04 <irq_add_shared_handler+0x1d0>)
10000ae2:	689b      	ldr	r3, [r3, #8]
10000ae4:	f843 e028 	str.w	lr, [r3, r8, lsl #2]
10000ae8:	f3bf 8f5f 	dmb	sy
10000aec:	2300      	movs	r3, #0
10000aee:	e8ca 3f8f 	stlb	r3, [sl]
10000af2:	9b00      	ldr	r3, [sp, #0]
10000af4:	f383 8810 	msr	PRIMASK, r3
10000af8:	b003      	add	sp, #12
10000afa:	e8bd 8ff0 	ldmia.w	sp!, {r4, r5, r6, r7, r8, r9, sl, fp, pc}
10000afe:	f02e 0101 	bic.w	r1, lr, #1
10000b02:	f891 c007 	ldrb.w	ip, [r1, #7]
10000b06:	45bc      	cmp	ip, r7
10000b08:	d82b      	bhi.n	10000b62 <irq_add_shared_handler+0x12e>
10000b0a:	f44f 4621 	mov.w	r6, #41216	; 0xa100
10000b0e:	52e6      	strh	r6, [r4, r3]
10000b10:	4b3e      	ldr	r3, [pc, #248]	; (10000c0c <irq_add_shared_handler+0x1d8>)
10000b12:	f109 0602 	add.w	r6, r9, #2
10000b16:	4426      	add	r6, r4
10000b18:	3b04      	subs	r3, #4
10000b1a:	f109 0904 	add.w	r9, r9, #4
10000b1e:	1b9b      	subs	r3, r3, r6
10000b20:	44a1      	add	r9, r4
10000b22:	1f0e      	subs	r6, r1, #4
10000b24:	71c7      	strb	r7, [r0, #7]
10000b26:	eba6 0609 	sub.w	r6, r6, r9
10000b2a:	4f39      	ldr	r7, [pc, #228]	; (10000c10 <irq_add_shared_handler+0x1dc>)
10000b2c:	f3c6 064a 	ubfx	r6, r6, #1, #11
10000b30:	433e      	orrs	r6, r7
10000b32:	8086      	strh	r6, [r0, #4]
10000b34:	f3c3 034a 	ubfx	r3, r3, #1, #11
10000b38:	4e36      	ldr	r6, [pc, #216]	; (10000c14 <irq_add_shared_handler+0x1e0>)
10000b3a:	433b      	orrs	r3, r7
10000b3c:	8043      	strh	r3, [r0, #2]
10000b3e:	f64a 25aa 	movw	r5, #43690	; 0xaaaa
10000b42:	460b      	mov	r3, r1
10000b44:	1b1b      	subs	r3, r3, r4
10000b46:	415b      	adcs	r3, r3
10000b48:	435d      	muls	r5, r3
10000b4a:	0d2d      	lsrs	r5, r5, #20
10000b4c:	f8c0 b008 	str.w	fp, [r0, #8]
10000b50:	7185      	strb	r5, [r0, #6]
10000b52:	f040 0e01 	orr.w	lr, r0, #1
10000b56:	600e      	str	r6, [r1, #0]
10000b58:	e7c2      	b.n	10000ae0 <irq_add_shared_handler+0xac>
10000b5a:	79c0      	ldrb	r0, [r0, #7]
10000b5c:	42b8      	cmp	r0, r7
10000b5e:	d92b      	bls.n	10000bb8 <irq_add_shared_handler+0x184>
10000b60:	4661      	mov	r1, ip
10000b62:	f991 3006 	ldrsb.w	r3, [r1, #6]
10000b66:	eb03 0043 	add.w	r0, r3, r3, lsl #1
10000b6a:	eb04 0080 	add.w	r0, r4, r0, lsl #2
10000b6e:	2b00      	cmp	r3, #0
10000b70:	4684      	mov	ip, r0
10000b72:	daf2      	bge.n	10000b5a <irq_add_shared_handler+0x126>
10000b74:	f64b 5001 	movw	r0, #48385	; 0xbd01
10000b78:	9301      	str	r3, [sp, #4]
10000b7a:	1d0b      	adds	r3, r1, #4
10000b7c:	3e04      	subs	r6, #4
10000b7e:	1af6      	subs	r6, r6, r3
10000b80:	f3c6 064a 	ubfx	r6, r6, #1, #11
10000b84:	ea6f 46c6 	mvn.w	r6, r6, lsl #19
10000b88:	ea6f 46d6 	mvn.w	r6, r6, lsr #19
10000b8c:	eb02 0c05 	add.w	ip, r2, r5
10000b90:	f8df 9080 	ldr.w	r9, [pc, #128]	; 10000c14 <irq_add_shared_handler+0x1e0>
10000b94:	9b01      	ldr	r3, [sp, #4]
10000b96:	718d      	strb	r5, [r1, #6]
10000b98:	eb04 058c 	add.w	r5, r4, ip, lsl #2
10000b9c:	808e      	strh	r6, [r1, #4]
10000b9e:	f844 902c 	str.w	r9, [r4, ip, lsl #2]
10000ba2:	80a8      	strh	r0, [r5, #4]
10000ba4:	71ab      	strb	r3, [r5, #6]
10000ba6:	71ef      	strb	r7, [r5, #7]
10000ba8:	f8c5 b008 	str.w	fp, [r5, #8]
10000bac:	e798      	b.n	10000ae0 <irq_add_shared_handler+0xac>
10000bae:	f004 f949 	bl	10004e44 <hard_assertion_failure>
10000bb2:	f996 5000 	ldrsb.w	r5, [r6]
10000bb6:	e75a      	b.n	10000a6e <irq_add_shared_handler+0x3a>
10000bb8:	8888      	ldrh	r0, [r1, #4]
10000bba:	9301      	str	r3, [sp, #4]
10000bbc:	0540      	lsls	r0, r0, #21
10000bbe:	f101 0304 	add.w	r3, r1, #4
10000bc2:	d415      	bmi.n	10000bf0 <irq_add_shared_handler+0x1bc>
10000bc4:	ea4f 5c60 	mov.w	ip, r0, asr #21
10000bc8:	f06f 0007 	mvn.w	r0, #7
10000bcc:	f10c 0c02 	add.w	ip, ip, #2
10000bd0:	eba0 0009 	sub.w	r0, r0, r9
10000bd4:	eb03 0c4c 	add.w	ip, r3, ip, lsl #1
10000bd8:	1b00      	subs	r0, r0, r4
10000bda:	4460      	add	r0, ip
10000bdc:	f3c0 004a 	ubfx	r0, r0, #1, #11
10000be0:	f440 4060 	orr.w	r0, r0, #57344	; 0xe000
10000be4:	e7ca      	b.n	10000b7c <irq_add_shared_handler+0x148>
10000be6:	9201      	str	r2, [sp, #4]
10000be8:	f004 f92c 	bl	10004e44 <hard_assertion_failure>
10000bec:	9a01      	ldr	r2, [sp, #4]
10000bee:	e758      	b.n	10000aa2 <irq_add_shared_handler+0x6e>
10000bf0:	f500 10ff 	add.w	r0, r0, #2088960	; 0x1fe000
10000bf4:	f500 50ff 	add.w	r0, r0, #8160	; 0x1fe0
10000bf8:	301f      	adds	r0, #31
10000bfa:	e7e3      	b.n	10000bc4 <irq_add_shared_handler+0x190>
10000bfc:	200422e7 	.word	0x200422e7
10000c00:	20001204 	.word	0x20001204
10000c04:	e000ed00 	.word	0xe000ed00
10000c08:	10000111 	.word	0x10000111
10000c0c:	20001234 	.word	0x20001234
10000c10:	ffffe000 	.word	0xffffe000
10000c14:	47804801 	.word	0x47804801
10000c18:	20001671 	.word	0x20001671

10000c1c <irq_set_priority>:
10000c1c:	f04f 0cff 	mov.w	ip, #255	; 0xff
10000c20:	f020 0303 	bic.w	r3, r0, #3
10000c24:	f103 4360 	add.w	r3, r3, #3758096384	; 0xe0000000
10000c28:	f503 4364 	add.w	r3, r3, #58368	; 0xe400
10000c2c:	f000 0003 	and.w	r0, r0, #3
10000c30:	681a      	ldr	r2, [r3, #0]
10000c32:	00c0      	lsls	r0, r0, #3
10000c34:	fa0c fc00 	lsl.w	ip, ip, r0
10000c38:	ea22 020c 	bic.w	r2, r2, ip
10000c3c:	4081      	lsls	r1, r0
10000c3e:	430a      	orrs	r2, r1
10000c40:	601a      	str	r2, [r3, #0]
10000c42:	4770      	bx	lr

10000c44 <irq_add_tail_to_free_list>:
10000c44:	b5f0      	push	{r4, r5, r6, r7, lr}
10000c46:	f3ef 8505 	mrs	r5, IPSR
10000c4a:	b2ed      	uxtb	r5, r5
10000c4c:	f3ef 8c10 	mrs	ip, PRIMASK
10000c50:	b672      	cpsid	i
10000c52:	4926      	ldr	r1, [pc, #152]	; (10000cec <irq_add_tail_to_free_list+0xa8>)
10000c54:	e8d1 2fcf 	ldaexb	r2, [r1]
10000c58:	2301      	movs	r3, #1
10000c5a:	2a00      	cmp	r2, #0
10000c5c:	d1fa      	bne.n	10000c54 <irq_add_tail_to_free_list+0x10>
10000c5e:	e8c1 3f42 	strexb	r2, r3, [r1]
10000c62:	2a00      	cmp	r2, #0
10000c64:	d1f6      	bne.n	10000c54 <irq_add_tail_to_free_list+0x10>
10000c66:	f3bf 8f5f 	dmb	sy
10000c6a:	4e21      	ldr	r6, [pc, #132]	; (10000cf0 <irq_add_tail_to_free_list+0xac>)
10000c6c:	f040 0e01 	orr.w	lr, r0, #1
10000c70:	68b4      	ldr	r4, [r6, #8]
10000c72:	f64a 23aa 	movw	r3, #43690	; 0xaaaa
10000c76:	f854 7025 	ldr.w	r7, [r4, r5, lsl #2]
10000c7a:	4a1e      	ldr	r2, [pc, #120]	; (10000cf4 <irq_add_tail_to_free_list+0xb0>)
10000c7c:	4604      	mov	r4, r0
10000c7e:	1aa4      	subs	r4, r4, r2
10000c80:	4164      	adcs	r4, r4
10000c82:	4363      	muls	r3, r4
10000c84:	0d1b      	lsrs	r3, r3, #20
10000c86:	4577      	cmp	r7, lr
10000c88:	b25b      	sxtb	r3, r3
10000c8a:	d01b      	beq.n	10000cc4 <irq_add_tail_to_free_list+0x80>
10000c8c:	f992 4006 	ldrsb.w	r4, [r2, #6]
10000c90:	429c      	cmp	r4, r3
10000c92:	d01c      	beq.n	10000cce <irq_add_tail_to_free_list+0x8a>
10000c94:	f992 4012 	ldrsb.w	r4, [r2, #18]
10000c98:	429c      	cmp	r4, r3
10000c9a:	d023      	beq.n	10000ce4 <irq_add_tail_to_free_list+0xa0>
10000c9c:	f992 401e 	ldrsb.w	r4, [r2, #30]
10000ca0:	429c      	cmp	r4, r3
10000ca2:	d021      	beq.n	10000ce8 <irq_add_tail_to_free_list+0xa4>
10000ca4:	f992 402a 	ldrsb.w	r4, [r2, #42]	; 0x2a
10000ca8:	429c      	cmp	r4, r3
10000caa:	bf08      	it	eq
10000cac:	2403      	moveq	r4, #3
10000cae:	d00f      	beq.n	10000cd0 <irq_add_tail_to_free_list+0x8c>
10000cb0:	4a11      	ldr	r2, [pc, #68]	; (10000cf8 <irq_add_tail_to_free_list+0xb4>)
10000cb2:	2400      	movs	r4, #0
10000cb4:	7815      	ldrb	r5, [r2, #0]
10000cb6:	7013      	strb	r3, [r2, #0]
10000cb8:	7185      	strb	r5, [r0, #6]
10000cba:	e8c1 4f8f 	stlb	r4, [r1]
10000cbe:	f38c 8810 	msr	PRIMASK, ip
10000cc2:	bdf0      	pop	{r4, r5, r6, r7, pc}
10000cc4:	68b2      	ldr	r2, [r6, #8]
10000cc6:	4c0d      	ldr	r4, [pc, #52]	; (10000cfc <irq_add_tail_to_free_list+0xb8>)
10000cc8:	f842 4025 	str.w	r4, [r2, r5, lsl #2]
10000ccc:	e7f0      	b.n	10000cb0 <irq_add_tail_to_free_list+0x6c>
10000cce:	2400      	movs	r4, #0
10000cd0:	eb04 0444 	add.w	r4, r4, r4, lsl #1
10000cd4:	eb02 0284 	add.w	r2, r2, r4, lsl #2
10000cd8:	24ff      	movs	r4, #255	; 0xff
10000cda:	7194      	strb	r4, [r2, #6]
10000cdc:	f64b 5401 	movw	r4, #48385	; 0xbd01
10000ce0:	8094      	strh	r4, [r2, #4]
10000ce2:	e7e5      	b.n	10000cb0 <irq_add_tail_to_free_list+0x6c>
10000ce4:	2401      	movs	r4, #1
10000ce6:	e7f3      	b.n	10000cd0 <irq_add_tail_to_free_list+0x8c>
10000ce8:	2402      	movs	r4, #2
10000cea:	e7f1      	b.n	10000cd0 <irq_add_tail_to_free_list+0x8c>
10000cec:	20001671 	.word	0x20001671
10000cf0:	e000ed00 	.word	0xe000ed00
10000cf4:	20001204 	.word	0x20001204
10000cf8:	200422e7 	.word	0x200422e7
10000cfc:	10000111 	.word	0x10000111

10000d00 <user_irq_claim_unused>:
10000d00:	b510      	push	{r4, lr}
10000d02:	4c07      	ldr	r4, [pc, #28]	; (10000d20 <user_irq_claim_unused+0x20>)
10000d04:	b082      	sub	sp, #8
10000d06:	4601      	mov	r1, r0
10000d08:	2305      	movs	r3, #5
10000d0a:	2200      	movs	r2, #0
10000d0c:	9400      	str	r4, [sp, #0]
10000d0e:	4805      	ldr	r0, [pc, #20]	; (10000d24 <user_irq_claim_unused+0x24>)
10000d10:	f7ff fd74 	bl	100007fc <hw_claim_unused_from_range>
10000d14:	2800      	cmp	r0, #0
10000d16:	bfa8      	it	ge
10000d18:	f1c0 0033 	rsbge	r0, r0, #51	; 0x33
10000d1c:	b002      	add	sp, #8
10000d1e:	bd10      	pop	{r4, pc}
10000d20:	10009990 	.word	0x10009990
10000d24:	200422eb 	.word	0x200422eb

10000d28 <lock_init>:
10000d28:	4b01      	ldr	r3, [pc, #4]	; (10000d30 <lock_init+0x8>)
10000d2a:	4419      	add	r1, r3
10000d2c:	6001      	str	r1, [r0, #0]
10000d2e:	4770      	bx	lr
10000d30:	20001668 	.word	0x20001668

10000d34 <runtime_init_mutex>:
10000d34:	e92d 41f0 	stmdb	sp!, {r4, r5, r6, r7, r8, lr}
10000d38:	4d15      	ldr	r5, [pc, #84]	; (10000d90 <runtime_init_mutex+0x5c>)
10000d3a:	4e16      	ldr	r6, [pc, #88]	; (10000d94 <runtime_init_mutex+0x60>)
10000d3c:	42b5      	cmp	r5, r6
10000d3e:	d224      	bcs.n	10000d8a <runtime_init_mutex+0x56>
10000d40:	462c      	mov	r4, r5
10000d42:	6823      	ldr	r3, [r4, #0]
10000d44:	f04f 37ff 	mov.w	r7, #4294967295
10000d48:	f04f 0800 	mov.w	r8, #0
10000d4c:	b18b      	cbz	r3, 10000d72 <runtime_init_mutex+0x3e>
10000d4e:	f7ff fda3 	bl	10000898 <next_striped_spin_lock_num>
10000d52:	4601      	mov	r1, r0
10000d54:	4628      	mov	r0, r5
10000d56:	f7ff ffe7 	bl	10000d28 <lock_init>
10000d5a:	6067      	str	r7, [r4, #4]
10000d5c:	f884 8008 	strb.w	r8, [r4, #8]
10000d60:	f3bf 8f5f 	dmb	sy
10000d64:	340c      	adds	r4, #12
10000d66:	42b4      	cmp	r4, r6
10000d68:	d20f      	bcs.n	10000d8a <runtime_init_mutex+0x56>
10000d6a:	6823      	ldr	r3, [r4, #0]
10000d6c:	4625      	mov	r5, r4
10000d6e:	2b00      	cmp	r3, #0
10000d70:	d1ed      	bne.n	10000d4e <runtime_init_mutex+0x1a>
10000d72:	f7ff fd91 	bl	10000898 <next_striped_spin_lock_num>
10000d76:	4601      	mov	r1, r0
10000d78:	4628      	mov	r0, r5
10000d7a:	f7ff ffd5 	bl	10000d28 <lock_init>
10000d7e:	6067      	str	r7, [r4, #4]
10000d80:	f3bf 8f5f 	dmb	sy
10000d84:	3408      	adds	r4, #8
10000d86:	42b4      	cmp	r4, r6
10000d88:	d3ef      	bcc.n	10000d6a <runtime_init_mutex+0x36>
10000d8a:	e8bd 81f0 	ldmia.w	sp!, {r4, r5, r6, r7, r8, pc}
10000d8e:	bf00      	nop
10000d90:	200012ac 	.word	0x200012ac
10000d94:	200012bc 	.word	0x200012bc

10000d98 <mutex_init>:
10000d98:	b510      	push	{r4, lr}
10000d9a:	4604      	mov	r4, r0
10000d9c:	f7ff fd7c 	bl	10000898 <next_striped_spin_lock_num>
10000da0:	4601      	mov	r1, r0
10000da2:	4620      	mov	r0, r4
10000da4:	f7ff ffc0 	bl	10000d28 <lock_init>
10000da8:	f04f 33ff 	mov.w	r3, #4294967295
10000dac:	6063      	str	r3, [r4, #4]
10000dae:	f3bf 8f5f 	dmb	sy
10000db2:	bd10      	pop	{r4, pc}

10000db4 <critical_section_init>:
10000db4:	b510      	push	{r4, lr}
10000db6:	4604      	mov	r4, r0
10000db8:	2001      	movs	r0, #1
10000dba:	f7ff fd83 	bl	100008c4 <spin_lock_claim_unused>
10000dbe:	4b03      	ldr	r3, [pc, #12]	; (10000dcc <critical_section_init+0x18>)
10000dc0:	4418      	add	r0, r3
10000dc2:	6020      	str	r0, [r4, #0]
10000dc4:	f3bf 8f5f 	dmb	sy
10000dc8:	bd10      	pop	{r4, pc}
10000dca:	bf00      	nop
10000dcc:	20001668 	.word	0x20001668

10000dd0 <critical_section_init_with_lock_num>:
10000dd0:	4b02      	ldr	r3, [pc, #8]	; (10000ddc <critical_section_init_with_lock_num+0xc>)
10000dd2:	4419      	add	r1, r3
10000dd4:	6001      	str	r1, [r0, #0]
10000dd6:	f3bf 8f5f 	dmb	sy
10000dda:	4770      	bx	lr
10000ddc:	20001668 	.word	0x20001668

10000de0 <alarm_pool_irq_handler>:
10000de0:	e92d 4ff0 	stmdb	sp!, {r4, r5, r6, r7, r8, r9, sl, fp, lr}
10000de4:	ed2d 8b02 	vpush	{d8}
10000de8:	b085      	sub	sp, #20
10000dea:	f3ef 8305 	mrs	r3, IPSR
10000dee:	b2db      	uxtb	r3, r3
10000df0:	3b10      	subs	r3, #16
10000df2:	089a      	lsrs	r2, r3, #2
10000df4:	bf18      	it	ne
10000df6:	2201      	movne	r2, #1
10000df8:	f04f 0101 	mov.w	r1, #1
10000dfc:	f003 0003 	and.w	r0, r3, #3
10000e00:	4bad      	ldr	r3, [pc, #692]	; (100010b8 <alarm_pool_irq_handler+0x2d8>)
10000e02:	eb00 0282 	add.w	r2, r0, r2, lsl #2
10000e06:	bf0c      	ite	eq
10000e08:	4fac      	ldreq	r7, [pc, #688]	; (100010bc <alarm_pool_irq_handler+0x2dc>)
10000e0a:	4fad      	ldrne	r7, [pc, #692]	; (100010c0 <alarm_pool_irq_handler+0x2e0>)
10000e0c:	f853 6022 	ldr.w	r6, [r3, r2, lsl #2]
10000e10:	fa01 f200 	lsl.w	r2, r1, r0
10000e14:	f507 5341 	add.w	r3, r7, #12352	; 0x3040
10000e18:	ed9f 8ba5 	vldr	d8, [pc, #660]	; 100010b0 <alarm_pool_irq_handler+0x2d0>
10000e1c:	46b0      	mov	r8, r6
10000e1e:	9001      	str	r0, [sp, #4]
10000e20:	9200      	str	r2, [sp, #0]
10000e22:	605a      	str	r2, [r3, #4]
10000e24:	e035      	b.n	10000e92 <alarm_pool_irq_handler+0xb2>
10000e26:	f8b8 3004 	ldrh.w	r3, [r8, #4]
10000e2a:	041b      	lsls	r3, r3, #16
10000e2c:	f140 8092 	bpl.w	10000f54 <alarm_pool_irq_handler+0x174>
10000e30:	f898 3006 	ldrb.w	r3, [r8, #6]
10000e34:	2b00      	cmp	r3, #0
10000e36:	f040 80df 	bne.w	10000ff8 <alarm_pool_irq_handler+0x218>
10000e3a:	f9b8 2008 	ldrsh.w	r2, [r8, #8]
10000e3e:	2a00      	cmp	r2, #0
10000e40:	f2c0 8125 	blt.w	1000108e <alarm_pool_irq_handler+0x2ae>
10000e44:	f8d8 3014 	ldr.w	r3, [r8, #20]
10000e48:	eb02 0242 	add.w	r2, r2, r2, lsl #1
10000e4c:	eb03 02c2 	add.w	r2, r3, r2, lsl #3
10000e50:	e9d2 4502 	ldrd	r4, r5, [r2, #8]
10000e54:	f1b5 3fff 	cmp.w	r5, #4294967295
10000e58:	bf08      	it	eq
10000e5a:	f1b4 3fff 	cmpeq.w	r4, #4294967295
10000e5e:	d00d      	beq.n	10000e7c <alarm_pool_irq_handler+0x9c>
10000e60:	9b01      	ldr	r3, [sp, #4]
10000e62:	eb07 0183 	add.w	r1, r7, r3, lsl #2
10000e66:	6abb      	ldr	r3, [r7, #40]	; 0x28
10000e68:	690a      	ldr	r2, [r1, #16]
10000e6a:	1ad2      	subs	r2, r2, r3
10000e6c:	1ae3      	subs	r3, r4, r3
10000e6e:	4293      	cmp	r3, r2
10000e70:	d303      	bcc.n	10000e7a <alarm_pool_irq_handler+0x9a>
10000e72:	6a3b      	ldr	r3, [r7, #32]
10000e74:	9a00      	ldr	r2, [sp, #0]
10000e76:	4213      	tst	r3, r2
10000e78:	d100      	bne.n	10000e7c <alarm_pool_irq_handler+0x9c>
10000e7a:	610c      	str	r4, [r1, #16]
10000e7c:	4638      	mov	r0, r7
10000e7e:	f000 fbcd 	bl	1000161c <timer_time_us_64>
10000e82:	1a20      	subs	r0, r4, r0
10000e84:	eb65 0501 	sbc.w	r5, r5, r1
10000e88:	2801      	cmp	r0, #1
10000e8a:	f175 0300 	sbcs.w	r3, r5, #0
10000e8e:	f280 80fe 	bge.w	1000108e <alarm_pool_irq_handler+0x2ae>
10000e92:	f9b8 4008 	ldrsh.w	r4, [r8, #8]
10000e96:	9b00      	ldr	r3, [sp, #0]
10000e98:	2c00      	cmp	r4, #0
10000e9a:	63fb      	str	r3, [r7, #60]	; 0x3c
10000e9c:	dbc3      	blt.n	10000e26 <alarm_pool_irq_handler+0x46>
10000e9e:	f8d8 a014 	ldr.w	sl, [r8, #20]
10000ea2:	eb04 0b44 	add.w	fp, r4, r4, lsl #1
10000ea6:	4638      	mov	r0, r7
10000ea8:	eb0a 05cb 	add.w	r5, sl, fp, lsl #3
10000eac:	e9d5 9602 	ldrd	r9, r6, [r5, #8]
10000eb0:	f000 fbb4 	bl	1000161c <timer_time_us_64>
10000eb4:	4548      	cmp	r0, r9
10000eb6:	eb61 0106 	sbc.w	r1, r1, r6
10000eba:	2900      	cmp	r1, #0
10000ebc:	dbb3      	blt.n	10000e26 <alarm_pool_irq_handler+0x46>
10000ebe:	2e00      	cmp	r6, #0
10000ec0:	f2c0 80c3 	blt.w	1000104a <alarm_pool_irq_handler+0x26a>
10000ec4:	692b      	ldr	r3, [r5, #16]
10000ec6:	4a7f      	ldr	r2, [pc, #508]	; (100010c4 <alarm_pool_irq_handler+0x2e4>)
10000ec8:	4293      	cmp	r3, r2
10000eca:	f000 80fd 	beq.w	100010c8 <alarm_pool_irq_handler+0x2e8>
10000ece:	886a      	ldrh	r2, [r5, #2]
10000ed0:	f9b8 0008 	ldrsh.w	r0, [r8, #8]
10000ed4:	b292      	uxth	r2, r2
10000ed6:	ea42 4000 	orr.w	r0, r2, r0, lsl #16
10000eda:	6969      	ldr	r1, [r5, #20]
10000edc:	4798      	blx	r3
10000ede:	4602      	mov	r2, r0
10000ee0:	460b      	mov	r3, r1
10000ee2:	ea52 0103 	orrs.w	r1, r2, r3
10000ee6:	f000 80b0 	beq.w	1000104a <alarm_pool_irq_handler+0x26a>
10000eea:	2b00      	cmp	r3, #0
10000eec:	f280 80d5 	bge.w	1000109a <alarm_pool_irq_handler+0x2ba>
10000ef0:	ebb9 0002 	subs.w	r0, r9, r2
10000ef4:	eb66 0303 	sbc.w	r3, r6, r3
10000ef8:	e9c5 0302 	strd	r0, r3, [r5, #8]
10000efc:	f93a 503b 	ldrsh.w	r5, [sl, fp, lsl #3]
10000f00:	2d00      	cmp	r5, #0
10000f02:	db90      	blt.n	10000e26 <alarm_pool_irq_handler+0x46>
10000f04:	f8d8 c014 	ldr.w	ip, [r8, #20]
10000f08:	eb05 0145 	add.w	r1, r5, r5, lsl #1
10000f0c:	eb0c 01c1 	add.w	r1, ip, r1, lsl #3
10000f10:	688a      	ldr	r2, [r1, #8]
10000f12:	1a82      	subs	r2, r0, r2
10000f14:	68ca      	ldr	r2, [r1, #12]
10000f16:	eb63 0202 	sbc.w	r2, r3, r2
10000f1a:	2a00      	cmp	r2, #0
10000f1c:	db83      	blt.n	10000e26 <alarm_pool_irq_handler+0x46>
10000f1e:	f8a8 5008 	strh.w	r5, [r8, #8]
10000f22:	e007      	b.n	10000f34 <alarm_pool_irq_handler+0x154>
10000f24:	6895      	ldr	r5, [r2, #8]
10000f26:	1b45      	subs	r5, r0, r5
10000f28:	68d5      	ldr	r5, [r2, #12]
10000f2a:	eb63 0505 	sbc.w	r5, r3, r5
10000f2e:	2d00      	cmp	r5, #0
10000f30:	db08      	blt.n	10000f44 <alarm_pool_irq_handler+0x164>
10000f32:	4611      	mov	r1, r2
10000f34:	f9b1 6000 	ldrsh.w	r6, [r1]
10000f38:	eb06 0246 	add.w	r2, r6, r6, lsl #1
10000f3c:	2e00      	cmp	r6, #0
10000f3e:	eb0c 02c2 	add.w	r2, ip, r2, lsl #3
10000f42:	daef      	bge.n	10000f24 <alarm_pool_irq_handler+0x144>
10000f44:	f82a 603b 	strh.w	r6, [sl, fp, lsl #3]
10000f48:	800c      	strh	r4, [r1, #0]
10000f4a:	f8b8 3004 	ldrh.w	r3, [r8, #4]
10000f4e:	041b      	lsls	r3, r3, #16
10000f50:	f53f af6e 	bmi.w	10000e30 <alarm_pool_irq_handler+0x50>
10000f54:	f8d8 3010 	ldr.w	r3, [r8, #16]
10000f58:	f3ef 8210 	mrs	r2, PRIMASK
10000f5c:	b672      	cpsid	i
10000f5e:	e8d3 0fcf 	ldaexb	r0, [r3]
10000f62:	2101      	movs	r1, #1
10000f64:	2800      	cmp	r0, #0
10000f66:	d1fa      	bne.n	10000f5e <alarm_pool_irq_handler+0x17e>
10000f68:	e8c3 1f40 	strexb	r0, r1, [r3]
10000f6c:	2800      	cmp	r0, #0
10000f6e:	d1f6      	bne.n	10000f5e <alarm_pool_irq_handler+0x17e>
10000f70:	f3bf 8f5f 	dmb	sy
10000f74:	f64f 70ff 	movw	r0, #65535	; 0xffff
10000f78:	f8b8 9004 	ldrh.w	r9, [r8, #4]
10000f7c:	2300      	movs	r3, #0
10000f7e:	f8d8 1010 	ldr.w	r1, [r8, #16]
10000f82:	fa0f f989 	sxth.w	r9, r9
10000f86:	f8a8 0004 	strh.w	r0, [r8, #4]
10000f8a:	e8c1 3f8f 	stlb	r3, [r1]
10000f8e:	f382 8810 	msr	PRIMASK, r2
10000f92:	4599      	cmp	r9, r3
10000f94:	f6ff af4c 	blt.w	10000e30 <alarm_pool_irq_handler+0x50>
10000f98:	46ba      	mov	sl, r7
10000f9a:	f8d8 5014 	ldr.w	r5, [r8, #20]
10000f9e:	f108 0b08 	add.w	fp, r8, #8
10000fa2:	eb09 0e49 	add.w	lr, r9, r9, lsl #1
10000fa6:	eb05 03ce 	add.w	r3, r5, lr, lsl #3
10000faa:	e9d3 6702 	ldrd	r6, r7, [r3, #8]
10000fae:	f9b8 3008 	ldrsh.w	r3, [r8, #8]
10000fb2:	46dc      	mov	ip, fp
10000fb4:	2b00      	cmp	r3, #0
10000fb6:	da05      	bge.n	10000fc4 <alarm_pool_irq_handler+0x1e4>
10000fb8:	e00f      	b.n	10000fda <alarm_pool_irq_handler+0x1fa>
10000fba:	f935 3034 	ldrsh.w	r3, [r5, r4, lsl #3]
10000fbe:	4684      	mov	ip, r0
10000fc0:	2b00      	cmp	r3, #0
10000fc2:	db0a      	blt.n	10000fda <alarm_pool_irq_handler+0x1fa>
10000fc4:	eb03 0443 	add.w	r4, r3, r3, lsl #1
10000fc8:	eb05 00c4 	add.w	r0, r5, r4, lsl #3
10000fcc:	e9d0 1202 	ldrd	r1, r2, [r0, #8]
10000fd0:	1a71      	subs	r1, r6, r1
10000fd2:	eb67 0202 	sbc.w	r2, r7, r2
10000fd6:	2a00      	cmp	r2, #0
10000fd8:	daef      	bge.n	10000fba <alarm_pool_irq_handler+0x1da>
10000fda:	f8ac 9000 	strh.w	r9, [ip]
10000fde:	f935 903e 	ldrsh.w	r9, [r5, lr, lsl #3]
10000fe2:	f825 303e 	strh.w	r3, [r5, lr, lsl #3]
10000fe6:	f1b9 0f00 	cmp.w	r9, #0
10000fea:	dada      	bge.n	10000fa2 <alarm_pool_irq_handler+0x1c2>
10000fec:	f898 3006 	ldrb.w	r3, [r8, #6]
10000ff0:	4657      	mov	r7, sl
10000ff2:	2b00      	cmp	r3, #0
10000ff4:	f43f af21 	beq.w	10000e3a <alarm_pool_irq_handler+0x5a>
10000ff8:	2300      	movs	r3, #0
10000ffa:	f888 3006 	strb.w	r3, [r8, #6]
10000ffe:	f9b8 3008 	ldrsh.w	r3, [r8, #8]
10001002:	f108 0c08 	add.w	ip, r8, #8
10001006:	1c5e      	adds	r6, r3, #1
10001008:	d041      	beq.n	1000108e <alarm_pool_irq_handler+0x2ae>
1000100a:	461a      	mov	r2, r3
1000100c:	f8d8 4014 	ldr.w	r4, [r8, #20]
10001010:	e003      	b.n	1000101a <alarm_pool_irq_handler+0x23a>
10001012:	4684      	mov	ip, r0
10001014:	1c59      	adds	r1, r3, #1
10001016:	f43f af12 	beq.w	10000e3e <alarm_pool_irq_handler+0x5e>
1000101a:	eb03 0143 	add.w	r1, r3, r3, lsl #1
1000101e:	eb04 00c1 	add.w	r0, r4, r1, lsl #3
10001022:	8845      	ldrh	r5, [r0, #2]
10001024:	461e      	mov	r6, r3
10001026:	042d      	lsls	r5, r5, #16
10001028:	f934 3031 	ldrsh.w	r3, [r4, r1, lsl #3]
1000102c:	d5f1      	bpl.n	10001012 <alarm_pool_irq_handler+0x232>
1000102e:	4296      	cmp	r6, r2
10001030:	ed80 8b02 	vstr	d8, [r0, #8]
10001034:	d0ee      	beq.n	10001014 <alarm_pool_irq_handler+0x234>
10001036:	f8ac 3000 	strh.w	r3, [ip]
1000103a:	f8b8 2008 	ldrh.w	r2, [r8, #8]
1000103e:	f824 2031 	strh.w	r2, [r4, r1, lsl #3]
10001042:	4632      	mov	r2, r6
10001044:	f8a8 6008 	strh.w	r6, [r8, #8]
10001048:	e7e4      	b.n	10001014 <alarm_pool_irq_handler+0x234>
1000104a:	f83a 303b 	ldrh.w	r3, [sl, fp, lsl #3]
1000104e:	f8a8 3008 	strh.w	r3, [r8, #8]
10001052:	f8d8 3010 	ldr.w	r3, [r8, #16]
10001056:	f3ef 8210 	mrs	r2, PRIMASK
1000105a:	b672      	cpsid	i
1000105c:	e8d3 0fcf 	ldaexb	r0, [r3]
10001060:	2101      	movs	r1, #1
10001062:	2800      	cmp	r0, #0
10001064:	d1fa      	bne.n	1000105c <alarm_pool_irq_handler+0x27c>
10001066:	e8c3 1f40 	strexb	r0, r1, [r3]
1000106a:	2800      	cmp	r0, #0
1000106c:	d1f6      	bne.n	1000105c <alarm_pool_irq_handler+0x27c>
1000106e:	f3bf 8f5f 	dmb	sy
10001072:	f8b8 3002 	ldrh.w	r3, [r8, #2]
10001076:	f8d8 1010 	ldr.w	r1, [r8, #16]
1000107a:	f82a 303b 	strh.w	r3, [sl, fp, lsl #3]
1000107e:	2300      	movs	r3, #0
10001080:	f8a8 4002 	strh.w	r4, [r8, #2]
10001084:	e8c1 3f8f 	stlb	r3, [r1]
10001088:	f382 8810 	msr	PRIMASK, r2
1000108c:	e6cb      	b.n	10000e26 <alarm_pool_irq_handler+0x46>
1000108e:	bf40      	sev
10001090:	b005      	add	sp, #20
10001092:	ecbd 8b02 	vpop	{d8}
10001096:	e8bd 8ff0 	ldmia.w	sp!, {r4, r5, r6, r7, r8, r9, sl, fp, pc}
1000109a:	4638      	mov	r0, r7
1000109c:	e9cd 2302 	strd	r2, r3, [sp, #8]
100010a0:	f000 fabc 	bl	1000161c <timer_time_us_64>
100010a4:	9a02      	ldr	r2, [sp, #8]
100010a6:	9b03      	ldr	r3, [sp, #12]
100010a8:	1880      	adds	r0, r0, r2
100010aa:	eb43 0301 	adc.w	r3, r3, r1
100010ae:	e723      	b.n	10000ef8 <alarm_pool_irq_handler+0x118>
100010b0:	ffffffff 	.word	0xffffffff
100010b4:	ffffffff 	.word	0xffffffff
100010b8:	20001f00 	.word	0x20001f00
100010bc:	400b0000 	.word	0x400b0000
100010c0:	400b8000 	.word	0x400b8000
100010c4:	10000de1 	.word	0x10000de1
100010c8:	696b      	ldr	r3, [r5, #20]
100010ca:	4618      	mov	r0, r3
100010cc:	691a      	ldr	r2, [r3, #16]
100010ce:	9302      	str	r3, [sp, #8]
100010d0:	4790      	blx	r2
100010d2:	2800      	cmp	r0, #0
100010d4:	d0b9      	beq.n	1000104a <alarm_pool_irq_handler+0x26a>
100010d6:	9b02      	ldr	r3, [sp, #8]
100010d8:	e9d3 2300 	ldrd	r2, r3, [r3]
100010dc:	e701      	b.n	10000ee2 <alarm_pool_irq_handler+0x102>
100010de:	bf00      	nop

100010e0 <sleep_until_callback>:
100010e0:	480b      	ldr	r0, [pc, #44]	; (10001110 <sleep_until_callback+0x30>)
100010e2:	b508      	push	{r3, lr}
100010e4:	6803      	ldr	r3, [r0, #0]
100010e6:	f3ef 8110 	mrs	r1, PRIMASK
100010ea:	b672      	cpsid	i
100010ec:	e8d3 cfcf 	ldaexb	ip, [r3]
100010f0:	2201      	movs	r2, #1
100010f2:	f1bc 0f00 	cmp.w	ip, #0
100010f6:	d1f9      	bne.n	100010ec <sleep_until_callback+0xc>
100010f8:	e8c3 2f4c 	strexb	ip, r2, [r3]
100010fc:	f1bc 0f00 	cmp.w	ip, #0
10001100:	d1f4      	bne.n	100010ec <sleep_until_callback+0xc>
10001102:	f3bf 8f5f 	dmb	sy
10001106:	f000 ffcf 	bl	100020a8 <vPortLockInternalSpinUnlockWithNotify>
1000110a:	2000      	movs	r0, #0
1000110c:	2100      	movs	r1, #0
1000110e:	bd08      	pop	{r3, pc}
10001110:	200021c4 	.word	0x200021c4

10001114 <runtime_init_default_alarm_pool>:
10001114:	e92d 4ff8 	stmdb	sp!, {r3, r4, r5, r6, r7, r8, r9, sl, fp, lr}
10001118:	4c36      	ldr	r4, [pc, #216]	; (100011f4 <runtime_init_default_alarm_pool+0xe0>)
1000111a:	6925      	ldr	r5, [r4, #16]
1000111c:	b12d      	cbz	r5, 1000112a <runtime_init_default_alarm_pool+0x16>
1000111e:	e8bd 4ff8 	ldmia.w	sp!, {r3, r4, r5, r6, r7, r8, r9, sl, fp, lr}
10001122:	210a      	movs	r1, #10
10001124:	4834      	ldr	r0, [pc, #208]	; (100011f8 <runtime_init_default_alarm_pool+0xe4>)
10001126:	f7ff bdff 	b.w	10000d28 <lock_init>
1000112a:	f8df 80e4 	ldr.w	r8, [pc, #228]	; 10001210 <runtime_init_default_alarm_pool+0xfc>
1000112e:	2603      	movs	r6, #3
10001130:	2103      	movs	r1, #3
10001132:	4640      	mov	r0, r8
10001134:	f000 fa60 	bl	100015f8 <timer_hardware_alarm_claim>
10001138:	f8c4 800c 	str.w	r8, [r4, #12]
1000113c:	f7ff fbac 	bl	10000898 <next_striped_spin_lock_num>
10001140:	f04f 4c50 	mov.w	ip, #3489660928	; 0xd0000000
10001144:	4b2d      	ldr	r3, [pc, #180]	; (100011fc <runtime_init_default_alarm_pool+0xe8>)
10001146:	7026      	strb	r6, [r4, #0]
10001148:	4418      	add	r0, r3
1000114a:	f8dc 3000 	ldr.w	r3, [ip]
1000114e:	210f      	movs	r1, #15
10001150:	7063      	strb	r3, [r4, #1]
10001152:	6963      	ldr	r3, [r4, #20]
10001154:	8061      	strh	r1, [r4, #2]
10001156:	831d      	strh	r5, [r3, #24]
10001158:	f04f 0504 	mov.w	r5, #4
1000115c:	f8a3 5078 	strh.w	r5, [r3, #120]	; 0x78
10001160:	f04f 0505 	mov.w	r5, #5
10001164:	f8a3 5090 	strh.w	r5, [r3, #144]	; 0x90
10001168:	f04f 0506 	mov.w	r5, #6
1000116c:	f8a3 50a8 	strh.w	r5, [r3, #168]	; 0xa8
10001170:	f04f 0507 	mov.w	r5, #7
10001174:	210e      	movs	r1, #14
10001176:	6120      	str	r0, [r4, #16]
10001178:	2708      	movs	r7, #8
1000117a:	f64f 72ff 	movw	r2, #65535	; 0xffff
1000117e:	f04f 0e0a 	mov.w	lr, #10
10001182:	f8a3 50c0 	strh.w	r5, [r3, #192]	; 0xc0
10001186:	f04f 0901 	mov.w	r9, #1
1000118a:	f04f 0c0c 	mov.w	ip, #12
1000118e:	f04f 0b02 	mov.w	fp, #2
10001192:	f04f 0a09 	mov.w	sl, #9
10001196:	200d      	movs	r0, #13
10001198:	f04f 050b 	mov.w	r5, #11
1000119c:	f8a3 1168 	strh.w	r1, [r3, #360]	; 0x168
100011a0:	4917      	ldr	r1, [pc, #92]	; (10001200 <runtime_init_default_alarm_pool+0xec>)
100011a2:	80a2      	strh	r2, [r4, #4]
100011a4:	f8a3 e108 	strh.w	lr, [r3, #264]	; 0x108
100011a8:	60a1      	str	r1, [r4, #8]
100011aa:	f8a3 b048 	strh.w	fp, [r3, #72]	; 0x48
100011ae:	f8a3 a0f0 	strh.w	sl, [r3, #240]	; 0xf0
100011b2:	f8a3 5120 	strh.w	r5, [r3, #288]	; 0x120
100011b6:	f8a3 c138 	strh.w	ip, [r3, #312]	; 0x138
100011ba:	f8a3 0150 	strh.w	r0, [r3, #336]	; 0x150
100011be:	f8a3 9030 	strh.w	r9, [r3, #48]	; 0x30
100011c2:	f8a3 6060 	strh.w	r6, [r3, #96]	; 0x60
100011c6:	f8a3 70d8 	strh.w	r7, [r3, #216]	; 0xd8
100011ca:	801a      	strh	r2, [r3, #0]
100011cc:	4b0d      	ldr	r3, [pc, #52]	; (10001204 <runtime_init_default_alarm_pool+0xf0>)
100011ce:	4630      	mov	r0, r6
100011d0:	f8c8 7020 	str.w	r7, [r8, #32]
100011d4:	490c      	ldr	r1, [pc, #48]	; (10001208 <runtime_init_default_alarm_pool+0xf4>)
100011d6:	60dc      	str	r4, [r3, #12]
100011d8:	f7ff fbfc 	bl	100009d4 <irq_set_exclusive_handler>
100011dc:	4649      	mov	r1, r9
100011de:	4630      	mov	r0, r6
100011e0:	f7ff fbb4 	bl	1000094c <irq_set_enabled>
100011e4:	4b09      	ldr	r3, [pc, #36]	; (1000120c <runtime_init_default_alarm_pool+0xf8>)
100011e6:	210a      	movs	r1, #10
100011e8:	601f      	str	r7, [r3, #0]
100011ea:	4803      	ldr	r0, [pc, #12]	; (100011f8 <runtime_init_default_alarm_pool+0xe4>)
100011ec:	e8bd 4ff8 	ldmia.w	sp!, {r3, r4, r5, r6, r7, r8, r9, sl, fp, lr}
100011f0:	f7ff bd9a 	b.w	10000d28 <lock_init>
100011f4:	2000124c 	.word	0x2000124c
100011f8:	200021c4 	.word	0x200021c4
100011fc:	20001668 	.word	0x20001668
10001200:	0010ffff 	.word	0x0010ffff
10001204:	20001f00 	.word	0x20001f00
10001208:	10000de1 	.word	0x10000de1
1000120c:	400b2040 	.word	0x400b2040
10001210:	400b0000 	.word	0x400b0000

10001214 <alarm_pool_get_default>:
10001214:	4800      	ldr	r0, [pc, #0]	; (10001218 <alarm_pool_get_default+0x4>)
10001216:	4770      	bx	lr
10001218:	2000124c 	.word	0x2000124c

1000121c <alarm_pool_add_alarm_at>:
1000121c:	e92d 41f0 	stmdb	sp!, {r4, r5, r6, r7, r8, lr}
10001220:	f89d 5020 	ldrb.w	r5, [sp, #32]
10001224:	4604      	mov	r4, r0
10001226:	4617      	mov	r7, r2
10001228:	461e      	mov	r6, r3
1000122a:	b935      	cbnz	r5, 1000123a <alarm_pool_add_alarm_at+0x1e>
1000122c:	f000 f9fe 	bl	1000162c <time_us_64>
10001230:	4287      	cmp	r7, r0
10001232:	eb66 0101 	sbc.w	r1, r6, r1
10001236:	2900      	cmp	r1, #0
10001238:	db57      	blt.n	100012ea <alarm_pool_add_alarm_at+0xce>
1000123a:	6921      	ldr	r1, [r4, #16]
1000123c:	f3ef 8010 	mrs	r0, PRIMASK
10001240:	b672      	cpsid	i
10001242:	e8d1 2fcf 	ldaexb	r2, [r1]
10001246:	2301      	movs	r3, #1
10001248:	2a00      	cmp	r2, #0
1000124a:	d1fa      	bne.n	10001242 <alarm_pool_add_alarm_at+0x26>
1000124c:	e8c1 3f42 	strexb	r2, r3, [r1]
10001250:	2a00      	cmp	r2, #0
10001252:	d1f6      	bne.n	10001242 <alarm_pool_add_alarm_at+0x26>
10001254:	f3bf 8f5f 	dmb	sy
10001258:	f9b4 2002 	ldrsh.w	r2, [r4, #2]
1000125c:	f8d4 c014 	ldr.w	ip, [r4, #20]
10001260:	eb02 0142 	add.w	r1, r2, r2, lsl #1
10001264:	2a00      	cmp	r2, #0
10001266:	ea4f 0ec1 	mov.w	lr, r1, lsl #3
1000126a:	eb0c 01c1 	add.w	r1, ip, r1, lsl #3
1000126e:	db02      	blt.n	10001276 <alarm_pool_add_alarm_at+0x5a>
10001270:	f83c 300e 	ldrh.w	r3, [ip, lr]
10001274:	8063      	strh	r3, [r4, #2]
10001276:	f04f 0800 	mov.w	r8, #0
1000127a:	6923      	ldr	r3, [r4, #16]
1000127c:	e8c3 8f8f 	stlb	r8, [r3]
10001280:	f380 8810 	msr	PRIMASK, r0
10001284:	4542      	cmp	r2, r8
10001286:	db33      	blt.n	100012f0 <alarm_pool_add_alarm_at+0xd4>
10001288:	8848      	ldrh	r0, [r1, #2]
1000128a:	9b06      	ldr	r3, [sp, #24]
1000128c:	3001      	adds	r0, #1
1000128e:	f3c0 000e 	ubfx	r0, r0, #0, #15
10001292:	2801      	cmp	r0, #1
10001294:	bf38      	it	cc
10001296:	2001      	movcc	r0, #1
10001298:	610b      	str	r3, [r1, #16]
1000129a:	9b07      	ldr	r3, [sp, #28]
1000129c:	8048      	strh	r0, [r1, #2]
1000129e:	614b      	str	r3, [r1, #20]
100012a0:	e9c1 7602 	strd	r7, r6, [r1, #8]
100012a4:	ea40 4002 	orr.w	r0, r0, r2, lsl #16
100012a8:	6923      	ldr	r3, [r4, #16]
100012aa:	f3ef 8110 	mrs	r1, PRIMASK
100012ae:	b672      	cpsid	i
100012b0:	e8d3 6fcf 	ldaexb	r6, [r3]
100012b4:	2501      	movs	r5, #1
100012b6:	2e00      	cmp	r6, #0
100012b8:	d1fa      	bne.n	100012b0 <alarm_pool_add_alarm_at+0x94>
100012ba:	e8c3 5f46 	strexb	r6, r5, [r3]
100012be:	2e00      	cmp	r6, #0
100012c0:	d1f6      	bne.n	100012b0 <alarm_pool_add_alarm_at+0x94>
100012c2:	f3bf 8f5f 	dmb	sy
100012c6:	88a3      	ldrh	r3, [r4, #4]
100012c8:	f82c 300e 	strh.w	r3, [ip, lr]
100012cc:	80a2      	strh	r2, [r4, #4]
100012ce:	6923      	ldr	r3, [r4, #16]
100012d0:	e8c3 8f8f 	stlb	r8, [r3]
100012d4:	f381 8810 	msr	PRIMASK, r1
100012d8:	2201      	movs	r2, #1
100012da:	68e3      	ldr	r3, [r4, #12]
100012dc:	7821      	ldrb	r1, [r4, #0]
100012de:	f503 5301 	add.w	r3, r3, #8256	; 0x2040
100012e2:	408a      	lsls	r2, r1
100012e4:	605a      	str	r2, [r3, #4]
100012e6:	e8bd 81f0 	ldmia.w	sp!, {r4, r5, r6, r7, r8, pc}
100012ea:	4628      	mov	r0, r5
100012ec:	e8bd 81f0 	ldmia.w	sp!, {r4, r5, r6, r7, r8, pc}
100012f0:	f04f 30ff 	mov.w	r0, #4294967295
100012f4:	e7f7      	b.n	100012e6 <alarm_pool_add_alarm_at+0xca>
100012f6:	bf00      	nop

100012f8 <alarm_pool_add_alarm_at_force_in_context>:
100012f8:	4601      	mov	r1, r0
100012fa:	b5f0      	push	{r4, r5, r6, r7, lr}
100012fc:	6900      	ldr	r0, [r0, #16]
100012fe:	f3ef 8710 	mrs	r7, PRIMASK
10001302:	b672      	cpsid	i
10001304:	e8d0 5fcf 	ldaexb	r5, [r0]
10001308:	2401      	movs	r4, #1
1000130a:	2d00      	cmp	r5, #0
1000130c:	d1fa      	bne.n	10001304 <alarm_pool_add_alarm_at_force_in_context+0xc>
1000130e:	e8c0 4f45 	strexb	r5, r4, [r0]
10001312:	2d00      	cmp	r5, #0
10001314:	d1f6      	bne.n	10001304 <alarm_pool_add_alarm_at_force_in_context+0xc>
10001316:	f3bf 8f5f 	dmb	sy
1000131a:	f9b1 e002 	ldrsh.w	lr, [r1, #2]
1000131e:	694c      	ldr	r4, [r1, #20]
10001320:	eb0e 0c4e 	add.w	ip, lr, lr, lsl #1
10001324:	ea4f 06cc 	mov.w	r6, ip, lsl #3
10001328:	f1be 0f00 	cmp.w	lr, #0
1000132c:	bfa8      	it	ge
1000132e:	5ba0      	ldrhge	r0, [r4, r6]
10001330:	f04f 0500 	mov.w	r5, #0
10001334:	bfa8      	it	ge
10001336:	8048      	strhge	r0, [r1, #2]
10001338:	eb04 0ccc 	add.w	ip, r4, ip, lsl #3
1000133c:	6908      	ldr	r0, [r1, #16]
1000133e:	e8c0 5f8f 	stlb	r5, [r0]
10001342:	f387 8810 	msr	PRIMASK, r7
10001346:	45ae      	cmp	lr, r5
10001348:	db35      	blt.n	100013b6 <alarm_pool_add_alarm_at_force_in_context+0xbe>
1000134a:	f8bc 0002 	ldrh.w	r0, [ip, #2]
1000134e:	e9cc 2302 	strd	r2, r3, [ip, #8]
10001352:	3001      	adds	r0, #1
10001354:	f3c0 000e 	ubfx	r0, r0, #0, #15
10001358:	2801      	cmp	r0, #1
1000135a:	bf38      	it	cc
1000135c:	2001      	movcc	r0, #1
1000135e:	9b05      	ldr	r3, [sp, #20]
10001360:	f8ac 0002 	strh.w	r0, [ip, #2]
10001364:	f8cc 3010 	str.w	r3, [ip, #16]
10001368:	9b06      	ldr	r3, [sp, #24]
1000136a:	ea40 400e 	orr.w	r0, r0, lr, lsl #16
1000136e:	f8cc 3014 	str.w	r3, [ip, #20]
10001372:	690b      	ldr	r3, [r1, #16]
10001374:	f3ef 8210 	mrs	r2, PRIMASK
10001378:	b672      	cpsid	i
1000137a:	e8d3 cfcf 	ldaexb	ip, [r3]
1000137e:	2701      	movs	r7, #1
10001380:	f1bc 0f00 	cmp.w	ip, #0
10001384:	d1f9      	bne.n	1000137a <alarm_pool_add_alarm_at_force_in_context+0x82>
10001386:	e8c3 7f4c 	strexb	ip, r7, [r3]
1000138a:	f1bc 0f00 	cmp.w	ip, #0
1000138e:	d1f4      	bne.n	1000137a <alarm_pool_add_alarm_at_force_in_context+0x82>
10001390:	f3bf 8f5f 	dmb	sy
10001394:	888b      	ldrh	r3, [r1, #4]
10001396:	53a3      	strh	r3, [r4, r6]
10001398:	f8a1 e004 	strh.w	lr, [r1, #4]
1000139c:	690b      	ldr	r3, [r1, #16]
1000139e:	e8c3 5f8f 	stlb	r5, [r3]
100013a2:	f382 8810 	msr	PRIMASK, r2
100013a6:	2201      	movs	r2, #1
100013a8:	68cb      	ldr	r3, [r1, #12]
100013aa:	7809      	ldrb	r1, [r1, #0]
100013ac:	f503 5301 	add.w	r3, r3, #8256	; 0x2040
100013b0:	408a      	lsls	r2, r1
100013b2:	605a      	str	r2, [r3, #4]
100013b4:	bdf0      	pop	{r4, r5, r6, r7, pc}
100013b6:	f04f 30ff 	mov.w	r0, #4294967295
100013ba:	bdf0      	pop	{r4, r5, r6, r7, pc}

100013bc <alarm_pool_cancel_alarm>:
100013bc:	8942      	ldrh	r2, [r0, #10]
100013be:	ebb2 4f21 	cmp.w	r2, r1, asr #16
100013c2:	dd38      	ble.n	10001436 <alarm_pool_cancel_alarm+0x7a>
100013c4:	6942      	ldr	r2, [r0, #20]
100013c6:	140b      	asrs	r3, r1, #16
100013c8:	eb03 0343 	add.w	r3, r3, r3, lsl #1
100013cc:	b510      	push	{r4, lr}
100013ce:	eb02 03c3 	add.w	r3, r2, r3, lsl #3
100013d2:	6904      	ldr	r4, [r0, #16]
100013d4:	f3ef 8c10 	mrs	ip, PRIMASK
100013d8:	b672      	cpsid	i
100013da:	e8d4 efcf 	ldaexb	lr, [r4]
100013de:	2201      	movs	r2, #1
100013e0:	f1be 0f00 	cmp.w	lr, #0
100013e4:	d1f9      	bne.n	100013da <alarm_pool_cancel_alarm+0x1e>
100013e6:	e8c4 2f4e 	strexb	lr, r2, [r4]
100013ea:	f1be 0f00 	cmp.w	lr, #0
100013ee:	d1f4      	bne.n	100013da <alarm_pool_cancel_alarm+0x1e>
100013f0:	f3bf 8f5f 	dmb	sy
100013f4:	885a      	ldrh	r2, [r3, #2]
100013f6:	b289      	uxth	r1, r1
100013f8:	b292      	uxth	r2, r2
100013fa:	428a      	cmp	r2, r1
100013fc:	d007      	beq.n	1000140e <alarm_pool_cancel_alarm+0x52>
100013fe:	2300      	movs	r3, #0
10001400:	6902      	ldr	r2, [r0, #16]
10001402:	e8c2 3f8f 	stlb	r3, [r2]
10001406:	f38c 8810 	msr	PRIMASK, ip
1000140a:	4618      	mov	r0, r3
1000140c:	bd10      	pop	{r4, pc}
1000140e:	f442 4200 	orr.w	r2, r2, #32768	; 0x8000
10001412:	805a      	strh	r2, [r3, #2]
10001414:	2301      	movs	r3, #1
10001416:	2200      	movs	r2, #0
10001418:	6901      	ldr	r1, [r0, #16]
1000141a:	7183      	strb	r3, [r0, #6]
1000141c:	e8c1 2f8f 	stlb	r2, [r1]
10001420:	f38c 8810 	msr	PRIMASK, ip
10001424:	68c2      	ldr	r2, [r0, #12]
10001426:	7801      	ldrb	r1, [r0, #0]
10001428:	f502 5201 	add.w	r2, r2, #8256	; 0x2040
1000142c:	fa03 f101 	lsl.w	r1, r3, r1
10001430:	4618      	mov	r0, r3
10001432:	6051      	str	r1, [r2, #4]
10001434:	bd10      	pop	{r4, pc}
10001436:	2000      	movs	r0, #0
10001438:	4770      	bx	lr
1000143a:	bf00      	nop

1000143c <alarm_pool_core_num>:
1000143c:	7840      	ldrb	r0, [r0, #1]
1000143e:	4770      	bx	lr

10001440 <sleep_until>:
10001440:	e92d 43f0 	stmdb	sp!, {r4, r5, r6, r7, r8, r9, lr}
10001444:	f1b0 0696 	subs.w	r6, r0, #150	; 0x96
10001448:	f141 35ff 	adc.w	r5, r1, #4294967295
1000144c:	42b0      	cmp	r0, r6
1000144e:	eb71 0305 	sbcs.w	r3, r1, r5
10001452:	bf38      	it	cc
10001454:	2600      	movcc	r6, #0
10001456:	b083      	sub	sp, #12
10001458:	bf38      	it	cc
1000145a:	4635      	movcc	r5, r6
1000145c:	4604      	mov	r4, r0
1000145e:	460f      	mov	r7, r1
10001460:	f000 f8e4 	bl	1000162c <time_us_64>
10001464:	1a30      	subs	r0, r6, r0
10001466:	eb65 0101 	sbc.w	r1, r5, r1
1000146a:	2801      	cmp	r0, #1
1000146c:	f171 0300 	sbcs.w	r3, r1, #0
10001470:	da06      	bge.n	10001480 <sleep_until+0x40>
10001472:	4620      	mov	r0, r4
10001474:	4639      	mov	r1, r7
10001476:	b003      	add	sp, #12
10001478:	e8bd 43f0 	ldmia.w	sp!, {r4, r5, r6, r7, r8, r9, lr}
1000147c:	f000 b8e0 	b.w	10001640 <busy_wait_until>
10001480:	f000 f8d4 	bl	1000162c <time_us_64>
10001484:	4286      	cmp	r6, r0
10001486:	eb65 0101 	sbc.w	r1, r5, r1
1000148a:	2900      	cmp	r1, #0
1000148c:	db0a      	blt.n	100014a4 <sleep_until+0x64>
1000148e:	2100      	movs	r1, #0
10001490:	4b15      	ldr	r3, [pc, #84]	; (100014e8 <sleep_until+0xa8>)
10001492:	4632      	mov	r2, r6
10001494:	9300      	str	r3, [sp, #0]
10001496:	4815      	ldr	r0, [pc, #84]	; (100014ec <sleep_until+0xac>)
10001498:	462b      	mov	r3, r5
1000149a:	9101      	str	r1, [sp, #4]
1000149c:	f7ff ff2c 	bl	100012f8 <alarm_pool_add_alarm_at_force_in_context>
100014a0:	2800      	cmp	r0, #0
100014a2:	dbe6      	blt.n	10001472 <sleep_until+0x32>
100014a4:	f8df 804c 	ldr.w	r8, [pc, #76]	; 100014f4 <sleep_until+0xb4>
100014a8:	f8df 9044 	ldr.w	r9, [pc, #68]	; 100014f0 <sleep_until+0xb0>
100014ac:	f8d8 3024 	ldr.w	r3, [r8, #36]	; 0x24
100014b0:	429d      	cmp	r5, r3
100014b2:	d805      	bhi.n	100014c0 <sleep_until+0x80>
100014b4:	f8d8 2028 	ldr.w	r2, [r8, #40]	; 0x28
100014b8:	42b2      	cmp	r2, r6
100014ba:	d2da      	bcs.n	10001472 <sleep_until+0x32>
100014bc:	429d      	cmp	r5, r3
100014be:	d1d8      	bne.n	10001472 <sleep_until+0x32>
100014c0:	f8d9 3000 	ldr.w	r3, [r9]
100014c4:	f3ef 8110 	mrs	r1, PRIMASK
100014c8:	b672      	cpsid	i
100014ca:	e8d3 0fcf 	ldaexb	r0, [r3]
100014ce:	2201      	movs	r2, #1
100014d0:	2800      	cmp	r0, #0
100014d2:	d1fa      	bne.n	100014ca <sleep_until+0x8a>
100014d4:	e8c3 2f40 	strexb	r0, r2, [r3]
100014d8:	2800      	cmp	r0, #0
100014da:	d1f6      	bne.n	100014ca <sleep_until+0x8a>
100014dc:	f3bf 8f5f 	dmb	sy
100014e0:	4803      	ldr	r0, [pc, #12]	; (100014f0 <sleep_until+0xb0>)
100014e2:	f000 fdad 	bl	10002040 <vPortLockInternalSpinUnlockWithWait>
100014e6:	e7e1      	b.n	100014ac <sleep_until+0x6c>
100014e8:	100010e1 	.word	0x100010e1
100014ec:	2000124c 	.word	0x2000124c
100014f0:	200021c4 	.word	0x200021c4
100014f4:	400b0000 	.word	0x400b0000

100014f8 <sleep_ms>:
100014f8:	b510      	push	{r4, lr}
100014fa:	4604      	mov	r4, r0
100014fc:	f000 f896 	bl	1000162c <time_us_64>
10001500:	f44f 737a 	mov.w	r3, #1000	; 0x3e8
10001504:	fbe4 0103 	umlal	r0, r1, r4, r3
10001508:	e8bd 4010 	ldmia.w	sp!, {r4, lr}
1000150c:	2900      	cmp	r1, #0
1000150e:	bfbc      	itt	lt
10001510:	f04f 30ff 	movlt.w	r0, #4294967295
10001514:	f06f 4100 	mvnlt.w	r1, #2147483648	; 0x80000000
10001518:	f7ff bf92 	b.w	10001440 <sleep_until>

1000151c <best_effort_wfe_or_timeout>:
1000151c:	e92d 43f0 	stmdb	sp!, {r4, r5, r6, r7, r8, r9, lr}
10001520:	4607      	mov	r7, r0
10001522:	460e      	mov	r6, r1
10001524:	b083      	sub	sp, #12
10001526:	f3ef 8405 	mrs	r4, IPSR
1000152a:	b2e4      	uxtb	r4, r4
1000152c:	b174      	cbz	r4, 1000154c <best_effort_wfe_or_timeout+0x30>
1000152e:	4b2f      	ldr	r3, [pc, #188]	; (100015ec <best_effort_wfe_or_timeout+0xd0>)
10001530:	6a58      	ldr	r0, [r3, #36]	; 0x24
10001532:	4288      	cmp	r0, r1
10001534:	d203      	bcs.n	1000153e <best_effort_wfe_or_timeout+0x22>
10001536:	2000      	movs	r0, #0
10001538:	b003      	add	sp, #12
1000153a:	e8bd 83f0 	ldmia.w	sp!, {r4, r5, r6, r7, r8, r9, pc}
1000153e:	6a9b      	ldr	r3, [r3, #40]	; 0x28
10001540:	42bb      	cmp	r3, r7
10001542:	d348      	bcc.n	100015d6 <best_effort_wfe_or_timeout+0xba>
10001544:	2001      	movs	r0, #1
10001546:	b003      	add	sp, #12
10001548:	e8bd 83f0 	ldmia.w	sp!, {r4, r5, r6, r7, r8, r9, pc}
1000154c:	4d28      	ldr	r5, [pc, #160]	; (100015f0 <best_effort_wfe_or_timeout+0xd4>)
1000154e:	f8d5 900c 	ldr.w	r9, [r5, #12]
10001552:	f895 8000 	ldrb.w	r8, [r5]
10001556:	4648      	mov	r0, r9
10001558:	f000 f860 	bl	1000161c <timer_time_us_64>
1000155c:	f108 0804 	add.w	r8, r8, #4
10001560:	f859 3028 	ldr.w	r3, [r9, r8, lsl #2]
10001564:	1a1b      	subs	r3, r3, r0
10001566:	1a38      	subs	r0, r7, r0
10001568:	eb66 0101 	sbc.w	r1, r6, r1
1000156c:	4298      	cmp	r0, r3
1000156e:	f171 0300 	sbcs.w	r3, r1, #0
10001572:	db0d      	blt.n	10001590 <best_effort_wfe_or_timeout+0x74>
10001574:	bf20      	wfe
10001576:	4b1d      	ldr	r3, [pc, #116]	; (100015ec <best_effort_wfe_or_timeout+0xd0>)
10001578:	6a58      	ldr	r0, [r3, #36]	; 0x24
1000157a:	4286      	cmp	r6, r0
1000157c:	d8db      	bhi.n	10001536 <best_effort_wfe_or_timeout+0x1a>
1000157e:	6a9b      	ldr	r3, [r3, #40]	; 0x28
10001580:	42bb      	cmp	r3, r7
10001582:	d2df      	bcs.n	10001544 <best_effort_wfe_or_timeout+0x28>
10001584:	1a30      	subs	r0, r6, r0
10001586:	bf18      	it	ne
10001588:	2001      	movne	r0, #1
1000158a:	b003      	add	sp, #12
1000158c:	e8bd 83f0 	ldmia.w	sp!, {r4, r5, r6, r7, r8, r9, pc}
10001590:	f000 f84c 	bl	1000162c <time_us_64>
10001594:	4287      	cmp	r7, r0
10001596:	eb66 0101 	sbc.w	r1, r6, r1
1000159a:	2900      	cmp	r1, #0
1000159c:	db13      	blt.n	100015c6 <best_effort_wfe_or_timeout+0xaa>
1000159e:	4b15      	ldr	r3, [pc, #84]	; (100015f4 <best_effort_wfe_or_timeout+0xd8>)
100015a0:	4628      	mov	r0, r5
100015a2:	e9cd 3400 	strd	r3, r4, [sp]
100015a6:	463a      	mov	r2, r7
100015a8:	4633      	mov	r3, r6
100015aa:	f7ff fea5 	bl	100012f8 <alarm_pool_add_alarm_at_force_in_context>
100015ae:	1e01      	subs	r1, r0, #0
100015b0:	dd09      	ble.n	100015c6 <best_effort_wfe_or_timeout+0xaa>
100015b2:	4b0e      	ldr	r3, [pc, #56]	; (100015ec <best_effort_wfe_or_timeout+0xd0>)
100015b4:	6a5a      	ldr	r2, [r3, #36]	; 0x24
100015b6:	4296      	cmp	r6, r2
100015b8:	d815      	bhi.n	100015e6 <best_effort_wfe_or_timeout+0xca>
100015ba:	6a9b      	ldr	r3, [r3, #40]	; 0x28
100015bc:	42bb      	cmp	r3, r7
100015be:	d310      	bcc.n	100015e2 <best_effort_wfe_or_timeout+0xc6>
100015c0:	480b      	ldr	r0, [pc, #44]	; (100015f0 <best_effort_wfe_or_timeout+0xd4>)
100015c2:	f7ff fefb 	bl	100013bc <alarm_pool_cancel_alarm>
100015c6:	4b09      	ldr	r3, [pc, #36]	; (100015ec <best_effort_wfe_or_timeout+0xd0>)
100015c8:	6a58      	ldr	r0, [r3, #36]	; 0x24
100015ca:	4286      	cmp	r6, r0
100015cc:	d8b3      	bhi.n	10001536 <best_effort_wfe_or_timeout+0x1a>
100015ce:	6a9b      	ldr	r3, [r3, #40]	; 0x28
100015d0:	42bb      	cmp	r3, r7
100015d2:	d2b7      	bcs.n	10001544 <best_effort_wfe_or_timeout+0x28>
100015d4:	e7d6      	b.n	10001584 <best_effort_wfe_or_timeout+0x68>
100015d6:	1a40      	subs	r0, r0, r1
100015d8:	bf18      	it	ne
100015da:	2001      	movne	r0, #1
100015dc:	b003      	add	sp, #12
100015de:	e8bd 83f0 	ldmia.w	sp!, {r4, r5, r6, r7, r8, r9, pc}
100015e2:	4296      	cmp	r6, r2
100015e4:	d1ec      	bne.n	100015c0 <best_effort_wfe_or_timeout+0xa4>
100015e6:	bf20      	wfe
100015e8:	e7ea      	b.n	100015c0 <best_effort_wfe_or_timeout+0xa4>
100015ea:	bf00      	nop
100015ec:	400b0000 	.word	0x400b0000
100015f0:	2000124c 	.word	0x2000124c
100015f4:	100010e1 	.word	0x100010e1

100015f8 <timer_hardware_alarm_claim>:
100015f8:	b410      	push	{r4}
100015fa:	4b05      	ldr	r3, [pc, #20]	; (10001610 <timer_hardware_alarm_claim+0x18>)
100015fc:	4c05      	ldr	r4, [pc, #20]	; (10001614 <timer_hardware_alarm_claim+0x1c>)
100015fe:	4a06      	ldr	r2, [pc, #24]	; (10001618 <timer_hardware_alarm_claim+0x20>)
10001600:	42a0      	cmp	r0, r4
10001602:	bf14      	ite	ne
10001604:	4618      	movne	r0, r3
10001606:	1c58      	addeq	r0, r3, #1
10001608:	f85d 4b04 	ldr.w	r4, [sp], #4
1000160c:	f7ff b8c8 	b.w	100007a0 <hw_claim_or_assert>
10001610:	20001a88 	.word	0x20001a88
10001614:	400b8000 	.word	0x400b8000
10001618:	100099ac 	.word	0x100099ac

1000161c <timer_time_us_64>:
1000161c:	6a41      	ldr	r1, [r0, #36]	; 0x24
1000161e:	460b      	mov	r3, r1
10001620:	6a82      	ldr	r2, [r0, #40]	; 0x28
10001622:	6a41      	ldr	r1, [r0, #36]	; 0x24
10001624:	428b      	cmp	r3, r1
10001626:	d1fa      	bne.n	1000161e <timer_time_us_64+0x2>
10001628:	4610      	mov	r0, r2
1000162a:	4770      	bx	lr

1000162c <time_us_64>:
1000162c:	4b03      	ldr	r3, [pc, #12]	; (1000163c <time_us_64+0x10>)
1000162e:	6a59      	ldr	r1, [r3, #36]	; 0x24
10001630:	460a      	mov	r2, r1
10001632:	6a98      	ldr	r0, [r3, #40]	; 0x28
10001634:	6a59      	ldr	r1, [r3, #36]	; 0x24
10001636:	4291      	cmp	r1, r2
10001638:	d1fa      	bne.n	10001630 <time_us_64+0x4>
1000163a:	4770      	bx	lr
1000163c:	400b0000 	.word	0x400b0000

10001640 <busy_wait_until>:
10001640:	4a07      	ldr	r2, [pc, #28]	; (10001660 <busy_wait_until+0x20>)
10001642:	6a53      	ldr	r3, [r2, #36]	; 0x24
10001644:	4299      	cmp	r1, r3
10001646:	d8fc      	bhi.n	10001642 <busy_wait_until+0x2>
10001648:	4299      	cmp	r1, r3
1000164a:	d107      	bne.n	1000165c <busy_wait_until+0x1c>
1000164c:	4b04      	ldr	r3, [pc, #16]	; (10001660 <busy_wait_until+0x20>)
1000164e:	e002      	b.n	10001656 <busy_wait_until+0x16>
10001650:	6a5a      	ldr	r2, [r3, #36]	; 0x24
10001652:	4291      	cmp	r1, r2
10001654:	d102      	bne.n	1000165c <busy_wait_until+0x1c>
10001656:	6a9a      	ldr	r2, [r3, #40]	; 0x28
10001658:	4282      	cmp	r2, r0
1000165a:	d3f9      	bcc.n	10001650 <busy_wait_until+0x10>
1000165c:	4770      	bx	lr
1000165e:	bf00      	nop
10001660:	400b0000 	.word	0x400b0000

10001664 <i2c_read_blocking_internal.constprop.0>:
10001664:	b5f0      	push	{r4, r5, r6, r7, lr}
10001666:	2600      	movs	r6, #0
10001668:	2701      	movs	r7, #1
1000166a:	6804      	ldr	r4, [r0, #0]
1000166c:	2b00      	cmp	r3, #0
1000166e:	66e6      	str	r6, [r4, #108]	; 0x6c
10001670:	4684      	mov	ip, r0
10001672:	6061      	str	r1, [r4, #4]
10001674:	4630      	mov	r0, r6
10001676:	f89d 5014 	ldrb.w	r5, [sp, #20]
1000167a:	66e7      	str	r7, [r4, #108]	; 0x6c
1000167c:	dd1a      	ble.n	100016b4 <i2c_read_blocking_internal.constprop.0+0x50>
1000167e:	ea85 0607 	eor.w	r6, r5, r7
10001682:	0276      	lsls	r6, r6, #9
10001684:	f103 3eff 	add.w	lr, r3, #4294967295
10001688:	6f61      	ldr	r1, [r4, #116]	; 0x74
1000168a:	2910      	cmp	r1, #16
1000168c:	d0fc      	beq.n	10001688 <i2c_read_blocking_internal.constprop.0+0x24>
1000168e:	b300      	cbz	r0, 100016d2 <i2c_read_blocking_internal.constprop.0+0x6e>
10001690:	f44f 7180 	mov.w	r1, #256	; 0x100
10001694:	2700      	movs	r7, #0
10001696:	4586      	cmp	lr, r0
10001698:	bf04      	itt	eq
1000169a:	ea47 0106 	orreq.w	r1, r7, r6
1000169e:	f441 7180 	orreq.w	r1, r1, #256	; 0x100
100016a2:	6121      	str	r1, [r4, #16]
100016a4:	f8d4 1080 	ldr.w	r1, [r4, #128]	; 0x80
100016a8:	6b61      	ldr	r1, [r4, #52]	; 0x34
100016aa:	0649      	lsls	r1, r1, #25
100016ac:	d505      	bpl.n	100016ba <i2c_read_blocking_internal.constprop.0+0x56>
100016ae:	f04f 30ff 	mov.w	r0, #4294967295
100016b2:	6d63      	ldr	r3, [r4, #84]	; 0x54
100016b4:	f88c 5004 	strb.w	r5, [ip, #4]
100016b8:	bdf0      	pop	{r4, r5, r6, r7, pc}
100016ba:	6fa1      	ldr	r1, [r4, #120]	; 0x78
100016bc:	2900      	cmp	r1, #0
100016be:	d0f1      	beq.n	100016a4 <i2c_read_blocking_internal.constprop.0+0x40>
100016c0:	6921      	ldr	r1, [r4, #16]
100016c2:	3001      	adds	r0, #1
100016c4:	4283      	cmp	r3, r0
100016c6:	f802 1b01 	strb.w	r1, [r2], #1
100016ca:	d0f3      	beq.n	100016b4 <i2c_read_blocking_internal.constprop.0+0x50>
100016cc:	f8dc 4000 	ldr.w	r4, [ip]
100016d0:	e7da      	b.n	10001688 <i2c_read_blocking_internal.constprop.0+0x24>
100016d2:	f89c 1004 	ldrb.w	r1, [ip, #4]
100016d6:	2900      	cmp	r1, #0
100016d8:	bf0b      	itete	eq
100016da:	f44f 7180 	moveq.w	r1, #256	; 0x100
100016de:	f44f 61a0 	movne.w	r1, #1280	; 0x500
100016e2:	2700      	moveq	r7, #0
100016e4:	f44f 6780 	movne.w	r7, #1024	; 0x400
100016e8:	e7d5      	b.n	10001696 <i2c_read_blocking_internal.constprop.0+0x32>
100016ea:	bf00      	nop

100016ec <i2c_write_blocking_internal.constprop.0>:
100016ec:	e92d 41f0 	stmdb	sp!, {r4, r5, r6, r7, r8, lr}
100016f0:	f04f 0c01 	mov.w	ip, #1
100016f4:	2500      	movs	r5, #0
100016f6:	6804      	ldr	r4, [r0, #0]
100016f8:	2b00      	cmp	r3, #0
100016fa:	66e5      	str	r5, [r4, #108]	; 0x6c
100016fc:	4606      	mov	r6, r0
100016fe:	6061      	str	r1, [r4, #4]
10001700:	4628      	mov	r0, r5
10001702:	f89d 7018 	ldrb.w	r7, [sp, #24]
10001706:	f8c4 c06c 	str.w	ip, [r4, #108]	; 0x6c
1000170a:	dd20      	ble.n	1000174e <i2c_write_blocking_internal.constprop.0+0x62>
1000170c:	ea87 050c 	eor.w	r5, r7, ip
10001710:	026d      	lsls	r5, r5, #9
10001712:	f103 3eff 	add.w	lr, r3, #4294967295
10001716:	b1e8      	cbz	r0, 10001754 <i2c_write_blocking_internal.constprop.0+0x68>
10001718:	f04f 0800 	mov.w	r8, #0
1000171c:	4586      	cmp	lr, r0
1000171e:	bf0c      	ite	eq
10001720:	46ac      	moveq	ip, r5
10001722:	f04f 0c00 	movne.w	ip, #0
10001726:	f812 1b01 	ldrb.w	r1, [r2], #1
1000172a:	ea41 0108 	orr.w	r1, r1, r8
1000172e:	ea41 010c 	orr.w	r1, r1, ip
10001732:	6121      	str	r1, [r4, #16]
10001734:	6b61      	ldr	r1, [r4, #52]	; 0x34
10001736:	06c9      	lsls	r1, r1, #27
10001738:	d5fc      	bpl.n	10001734 <i2c_write_blocking_internal.constprop.0+0x48>
1000173a:	f8d4 c080 	ldr.w	ip, [r4, #128]	; 0x80
1000173e:	f1bc 0f00 	cmp.w	ip, #0
10001742:	d10f      	bne.n	10001764 <i2c_write_blocking_internal.constprop.0+0x78>
10001744:	4586      	cmp	lr, r0
10001746:	d025      	beq.n	10001794 <i2c_write_blocking_internal.constprop.0+0xa8>
10001748:	3001      	adds	r0, #1
1000174a:	4283      	cmp	r3, r0
1000174c:	d1e3      	bne.n	10001716 <i2c_write_blocking_internal.constprop.0+0x2a>
1000174e:	7137      	strb	r7, [r6, #4]
10001750:	e8bd 81f0 	ldmia.w	sp!, {r4, r5, r6, r7, r8, pc}
10001754:	7931      	ldrb	r1, [r6, #4]
10001756:	2900      	cmp	r1, #0
10001758:	bf0c      	ite	eq
1000175a:	f04f 0800 	moveq.w	r8, #0
1000175e:	f44f 6880 	movne.w	r8, #1024	; 0x400
10001762:	e7db      	b.n	1000171c <i2c_write_blocking_internal.constprop.0+0x30>
10001764:	f04f 0801 	mov.w	r8, #1
10001768:	6d61      	ldr	r1, [r4, #84]	; 0x54
1000176a:	6b61      	ldr	r1, [r4, #52]	; 0x34
1000176c:	0589      	lsls	r1, r1, #22
1000176e:	d5fc      	bpl.n	1000176a <i2c_write_blocking_internal.constprop.0+0x7e>
10001770:	6e21      	ldr	r1, [r4, #96]	; 0x60
10001772:	f1b8 0f00 	cmp.w	r8, #0
10001776:	d0e7      	beq.n	10001748 <i2c_write_blocking_internal.constprop.0+0x5c>
10001778:	f1bc 0f00 	cmp.w	ip, #0
1000177c:	d00e      	beq.n	1000179c <i2c_write_blocking_internal.constprop.0+0xb0>
1000177e:	f01c 0f01 	tst.w	ip, #1
10001782:	d10b      	bne.n	1000179c <i2c_write_blocking_internal.constprop.0+0xb0>
10001784:	f01c 0f08 	tst.w	ip, #8
10001788:	bf08      	it	eq
1000178a:	f04f 30ff 	moveq.w	r0, #4294967295
1000178e:	7137      	strb	r7, [r6, #4]
10001790:	e8bd 81f0 	ldmia.w	sp!, {r4, r5, r6, r7, r8, pc}
10001794:	2f00      	cmp	r7, #0
10001796:	d1d7      	bne.n	10001748 <i2c_write_blocking_internal.constprop.0+0x5c>
10001798:	46b8      	mov	r8, r7
1000179a:	e7e6      	b.n	1000176a <i2c_write_blocking_internal.constprop.0+0x7e>
1000179c:	f04f 30ff 	mov.w	r0, #4294967295
100017a0:	e7d5      	b.n	1000174e <i2c_write_blocking_internal.constprop.0+0x62>
100017a2:	bf00      	nop

100017a4 <i2c_set_baudrate>:
100017a4:	b5f8      	push	{r3, r4, r5, r6, r7, lr}
100017a6:	4606      	mov	r6, r0
100017a8:	2005      	movs	r0, #5
100017aa:	460c      	mov	r4, r1
100017ac:	f000 f8ec 	bl	10001988 <clock_get_hz>
100017b0:	eb00 0c54 	add.w	ip, r0, r4, lsr #1
100017b4:	fbbc fcf4 	udiv	ip, ip, r4
100017b8:	4b21      	ldr	r3, [pc, #132]	; (10001840 <i2c_set_baudrate+0x9c>)
100017ba:	eb0c 024c 	add.w	r2, ip, ip, lsl #1
100017be:	fba3 5302 	umull	r5, r3, r3, r2
100017c2:	4920      	ldr	r1, [pc, #128]	; (10001844 <i2c_set_baudrate+0xa0>)
100017c4:	089f      	lsrs	r7, r3, #2
100017c6:	428c      	cmp	r4, r1
100017c8:	ebac 0593 	sub.w	r5, ip, r3, lsr #2
100017cc:	d830      	bhi.n	10001830 <i2c_set_baudrate+0x8c>
100017ce:	f101 41d6 	add.w	r1, r1, #1795162112	; 0x6b000000
100017d2:	f501 01a1 	add.w	r1, r1, #5275648	; 0x508000
100017d6:	f601 012c 	addw	r1, r1, #2092	; 0x82c
100017da:	eb00 0340 	add.w	r3, r0, r0, lsl #1
100017de:	fba1 1303 	umull	r1, r3, r1, r3
100017e2:	0d9b      	lsrs	r3, r3, #22
100017e4:	3301      	adds	r3, #1
100017e6:	2400      	movs	r4, #0
100017e8:	2a4f      	cmp	r2, #79	; 0x4f
100017ea:	bf98      	it	ls
100017ec:	2201      	movls	r2, #1
100017ee:	6831      	ldr	r1, [r6, #0]
100017f0:	fbb0 f0fc 	udiv	r0, r0, ip
100017f4:	66cc      	str	r4, [r1, #108]	; 0x6c
100017f6:	680c      	ldr	r4, [r1, #0]
100017f8:	f501 5680 	add.w	r6, r1, #4096	; 0x1000
100017fc:	f084 0404 	eor.w	r4, r4, #4
10001800:	f004 0406 	and.w	r4, r4, #6
10001804:	6034      	str	r4, [r6, #0]
10001806:	bf88      	it	hi
10001808:	4c0d      	ldrhi	r4, [pc, #52]	; (10001840 <i2c_set_baudrate+0x9c>)
1000180a:	61cd      	str	r5, [r1, #28]
1000180c:	bf84      	itt	hi
1000180e:	fba4 4202 	umullhi	r4, r2, r4, r2
10001812:	0992      	lsrhi	r2, r2, #6
10001814:	620f      	str	r7, [r1, #32]
10001816:	f8c1 20a0 	str.w	r2, [r1, #160]	; 0xa0
1000181a:	460a      	mov	r2, r1
1000181c:	2401      	movs	r4, #1
1000181e:	f852 5f7c 	ldr.w	r5, [r2, #124]!
10001822:	406b      	eors	r3, r5
10001824:	b29b      	uxth	r3, r3
10001826:	f502 5280 	add.w	r2, r2, #4096	; 0x1000
1000182a:	6013      	str	r3, [r2, #0]
1000182c:	66cc      	str	r4, [r1, #108]	; 0x6c
1000182e:	bdf8      	pop	{r3, r4, r5, r6, r7, pc}
10001830:	4905      	ldr	r1, [pc, #20]	; (10001848 <i2c_set_baudrate+0xa4>)
10001832:	eb00 0340 	add.w	r3, r0, r0, lsl #1
10001836:	fba1 1303 	umull	r1, r3, r1, r3
1000183a:	0ddb      	lsrs	r3, r3, #23
1000183c:	3301      	adds	r3, #1
1000183e:	e7d2      	b.n	100017e6 <i2c_set_baudrate+0x42>
10001840:	cccccccd 	.word	0xcccccccd
10001844:	000f423f 	.word	0x000f423f
10001848:	55e63b89 	.word	0x55e63b89

1000184c <i2c_init>:
1000184c:	4a0e      	ldr	r2, [pc, #56]	; (10001888 <i2c_init+0x3c>)
1000184e:	b430      	push	{r4, r5}
10001850:	4290      	cmp	r0, r2
10001852:	bf0c      	ite	eq
10001854:	2210      	moveq	r2, #16
10001856:	2220      	movne	r2, #32
10001858:	4d0c      	ldr	r5, [pc, #48]	; (1000188c <i2c_init+0x40>)
1000185a:	4b0d      	ldr	r3, [pc, #52]	; (10001890 <i2c_init+0x44>)
1000185c:	4c0d      	ldr	r4, [pc, #52]	; (10001894 <i2c_init+0x48>)
1000185e:	602a      	str	r2, [r5, #0]
10001860:	601a      	str	r2, [r3, #0]
10001862:	68a3      	ldr	r3, [r4, #8]
10001864:	ea32 0303 	bics.w	r3, r2, r3
10001868:	d1fb      	bne.n	10001862 <i2c_init+0x16>
1000186a:	f240 1565 	movw	r5, #357	; 0x165
1000186e:	2403      	movs	r4, #3
10001870:	6802      	ldr	r2, [r0, #0]
10001872:	7103      	strb	r3, [r0, #4]
10001874:	66d3      	str	r3, [r2, #108]	; 0x6c
10001876:	6015      	str	r5, [r2, #0]
10001878:	63d3      	str	r3, [r2, #60]	; 0x3c
1000187a:	6393      	str	r3, [r2, #56]	; 0x38
1000187c:	f8c2 4088 	str.w	r4, [r2, #136]	; 0x88
10001880:	bc30      	pop	{r4, r5}
10001882:	f7ff bf8f 	b.w	100017a4 <i2c_set_baudrate>
10001886:	bf00      	nop
10001888:	20001264 	.word	0x20001264
1000188c:	40022000 	.word	0x40022000
10001890:	40023000 	.word	0x40023000
10001894:	40020000 	.word	0x40020000

10001898 <i2c_write_blocking>:
10001898:	b410      	push	{r4}
1000189a:	f89d 4004 	ldrb.w	r4, [sp, #4]
1000189e:	9401      	str	r4, [sp, #4]
100018a0:	f85d 4b04 	ldr.w	r4, [sp], #4
100018a4:	f7ff bf22 	b.w	100016ec <i2c_write_blocking_internal.constprop.0>

100018a8 <i2c_read_blocking>:
100018a8:	b410      	push	{r4}
100018aa:	f89d 4004 	ldrb.w	r4, [sp, #4]
100018ae:	9401      	str	r4, [sp, #4]
100018b0:	f85d 4b04 	ldr.w	r4, [sp], #4
100018b4:	f7ff bed6 	b.w	10001664 <i2c_read_blocking_internal.constprop.0>

100018b8 <clock_configure_undivided>:
100018b8:	eb00 0c40 	add.w	ip, r0, r0, lsl #1
100018bc:	ea4f 0c8c 	mov.w	ip, ip, lsl #2
100018c0:	f10c 4c80 	add.w	ip, ip, #1073741824	; 0x40000000
100018c4:	f50c 3c80 	add.w	ip, ip, #65536	; 0x10000
100018c8:	b570      	push	{r4, r5, r6, lr}
100018ca:	f8dc 4004 	ldr.w	r4, [ip, #4]
100018ce:	f1a0 0e04 	sub.w	lr, r0, #4
100018d2:	f5b4 3f80 	cmp.w	r4, #65536	; 0x10000
100018d6:	bf38      	it	cc
100018d8:	f44f 3480 	movcc.w	r4, #65536	; 0x10000
100018dc:	fa5f fe8e 	uxtb.w	lr, lr
100018e0:	bf38      	it	cc
100018e2:	f8cc 4004 	strcc.w	r4, [ip, #4]
100018e6:	f1be 0f01 	cmp.w	lr, #1
100018ea:	d929      	bls.n	10001940 <clock_configure_undivided+0x88>
100018ec:	f44f 6600 	mov.w	r6, #2048	; 0x800
100018f0:	4d24      	ldr	r5, [pc, #144]	; (10001984 <clock_configure_undivided+0xcc>)
100018f2:	f50c 5440 	add.w	r4, ip, #12288	; 0x3000
100018f6:	6026      	str	r6, [r4, #0]
100018f8:	f855 6020 	ldr.w	r6, [r5, r0, lsl #2]
100018fc:	b9be      	cbnz	r6, 1000192e <clock_configure_undivided+0x76>
100018fe:	f8dc 4000 	ldr.w	r4, [ip]
10001902:	f50c 5680 	add.w	r6, ip, #4096	; 0x1000
10001906:	ea84 1242 	eor.w	r2, r4, r2, lsl #5
1000190a:	f002 02e0 	and.w	r2, r2, #224	; 0xe0
1000190e:	f1be 0f01 	cmp.w	lr, #1
10001912:	6032      	str	r2, [r6, #0]
10001914:	d928      	bls.n	10001968 <clock_configure_undivided+0xb0>
10001916:	f44f 6100 	mov.w	r1, #2048	; 0x800
1000191a:	f845 3020 	str.w	r3, [r5, r0, lsl #2]
1000191e:	f44f 3380 	mov.w	r3, #65536	; 0x10000
10001922:	f50c 5200 	add.w	r2, ip, #8192	; 0x2000
10001926:	6011      	str	r1, [r2, #0]
10001928:	f8cc 3004 	str.w	r3, [ip, #4]
1000192c:	bd70      	pop	{r4, r5, r6, pc}
1000192e:	696c      	ldr	r4, [r5, #20]
10001930:	fbb4 f4f6 	udiv	r4, r4, r6
10001934:	3401      	adds	r4, #1
10001936:	eb04 0444 	add.w	r4, r4, r4, lsl #1
1000193a:	3c03      	subs	r4, #3
1000193c:	d2fd      	bcs.n	1000193a <clock_configure_undivided+0x82>
1000193e:	e7de      	b.n	100018fe <clock_configure_undivided+0x46>
10001940:	2901      	cmp	r1, #1
10001942:	d1d3      	bne.n	100018ec <clock_configure_undivided+0x34>
10001944:	2503      	movs	r5, #3
10001946:	f50c 5440 	add.w	r4, ip, #12288	; 0x3000
1000194a:	6025      	str	r5, [r4, #0]
1000194c:	f8dc 4008 	ldr.w	r4, [ip, #8]
10001950:	07e4      	lsls	r4, r4, #31
10001952:	d5fb      	bpl.n	1000194c <clock_configure_undivided+0x94>
10001954:	f8dc 4000 	ldr.w	r4, [ip]
10001958:	f50c 5680 	add.w	r6, ip, #4096	; 0x1000
1000195c:	ea84 1242 	eor.w	r2, r4, r2, lsl #5
10001960:	f002 02e0 	and.w	r2, r2, #224	; 0xe0
10001964:	4d07      	ldr	r5, [pc, #28]	; (10001984 <clock_configure_undivided+0xcc>)
10001966:	6032      	str	r2, [r6, #0]
10001968:	2201      	movs	r2, #1
1000196a:	f8dc 4000 	ldr.w	r4, [ip]
1000196e:	404c      	eors	r4, r1
10001970:	f004 0403 	and.w	r4, r4, #3
10001974:	6034      	str	r4, [r6, #0]
10001976:	fa02 f101 	lsl.w	r1, r2, r1
1000197a:	f8dc 2008 	ldr.w	r2, [ip, #8]
1000197e:	420a      	tst	r2, r1
10001980:	d0fb      	beq.n	1000197a <clock_configure_undivided+0xc2>
10001982:	e7c8      	b.n	10001916 <clock_configure_undivided+0x5e>
10001984:	20001a8c 	.word	0x20001a8c

10001988 <clock_get_hz>:
10001988:	4b01      	ldr	r3, [pc, #4]	; (10001990 <clock_get_hz+0x8>)
1000198a:	f853 0020 	ldr.w	r0, [r3, r0, lsl #2]
1000198e:	4770      	bx	lr
10001990:	20001a8c 	.word	0x20001a8c

10001994 <pll_init>:
10001994:	b470      	push	{r4, r5, r6}
10001996:	9c03      	ldr	r4, [sp, #12]
10001998:	6805      	ldr	r5, [r0, #0]
1000199a:	0324      	lsls	r4, r4, #12
1000199c:	ea44 4303 	orr.w	r3, r4, r3, lsl #16
100019a0:	4c1b      	ldr	r4, [pc, #108]	; (10001a10 <pll_init+0x7c>)
100019a2:	2d00      	cmp	r5, #0
100019a4:	fbb4 f4f1 	udiv	r4, r4, r1
100019a8:	fbb2 f2f4 	udiv	r2, r2, r4
100019ac:	db1f      	blt.n	100019ee <pll_init+0x5a>
100019ae:	4d19      	ldr	r5, [pc, #100]	; (10001a14 <pll_init+0x80>)
100019b0:	4c19      	ldr	r4, [pc, #100]	; (10001a18 <pll_init+0x84>)
100019b2:	42a8      	cmp	r0, r5
100019b4:	bf0c      	ite	eq
100019b6:	f44f 4500 	moveq.w	r5, #32768	; 0x8000
100019ba:	f44f 4580 	movne.w	r5, #16384	; 0x4000
100019be:	4e17      	ldr	r6, [pc, #92]	; (10001a1c <pll_init+0x88>)
100019c0:	6025      	str	r5, [r4, #0]
100019c2:	f504 5480 	add.w	r4, r4, #4096	; 0x1000
100019c6:	6025      	str	r5, [r4, #0]
100019c8:	68b4      	ldr	r4, [r6, #8]
100019ca:	ea35 0404 	bics.w	r4, r5, r4
100019ce:	d1fb      	bne.n	100019c8 <pll_init+0x34>
100019d0:	2521      	movs	r5, #33	; 0x21
100019d2:	f500 5440 	add.w	r4, r0, #12288	; 0x3000
100019d6:	3404      	adds	r4, #4
100019d8:	6001      	str	r1, [r0, #0]
100019da:	6082      	str	r2, [r0, #8]
100019dc:	6025      	str	r5, [r4, #0]
100019de:	6802      	ldr	r2, [r0, #0]
100019e0:	2a00      	cmp	r2, #0
100019e2:	dafc      	bge.n	100019de <pll_init+0x4a>
100019e4:	2208      	movs	r2, #8
100019e6:	60c3      	str	r3, [r0, #12]
100019e8:	6022      	str	r2, [r4, #0]
100019ea:	bc70      	pop	{r4, r5, r6}
100019ec:	4770      	bx	lr
100019ee:	6804      	ldr	r4, [r0, #0]
100019f0:	f004 043f 	and.w	r4, r4, #63	; 0x3f
100019f4:	428c      	cmp	r4, r1
100019f6:	d1da      	bne.n	100019ae <pll_init+0x1a>
100019f8:	6884      	ldr	r4, [r0, #8]
100019fa:	f3c4 040b 	ubfx	r4, r4, #0, #12
100019fe:	4294      	cmp	r4, r2
10001a00:	d1d5      	bne.n	100019ae <pll_init+0x1a>
10001a02:	68c4      	ldr	r4, [r0, #12]
10001a04:	f404 24ee 	and.w	r4, r4, #487424	; 0x77000
10001a08:	429c      	cmp	r4, r3
10001a0a:	d1d0      	bne.n	100019ae <pll_init+0x1a>
10001a0c:	e7ed      	b.n	100019ea <pll_init+0x56>
10001a0e:	bf00      	nop
10001a10:	00b71b00 	.word	0x00b71b00
10001a14:	40058000 	.word	0x40058000
10001a18:	40022000 	.word	0x40022000
10001a1c:	40020000 	.word	0x40020000

10001a20 <watchdog_reboot>:
10001a20:	b430      	push	{r4, r5}
10001a22:	f04f 4480 	mov.w	r4, #1073741824	; 0x40000000
10001a26:	4b1d      	ldr	r3, [pc, #116]	; (10001a9c <watchdog_reboot+0x7c>)
10001a28:	601c      	str	r4, [r3, #0]
10001a2a:	b1e0      	cbz	r0, 10001a66 <watchdog_reboot+0x46>
10001a2c:	4c1c      	ldr	r4, [pc, #112]	; (10001aa0 <watchdog_reboot+0x80>)
10001a2e:	f5a3 5340 	sub.w	r3, r3, #12288	; 0x3000
10001a32:	61dc      	str	r4, [r3, #28]
10001a34:	4c1b      	ldr	r4, [pc, #108]	; (10001aa4 <watchdog_reboot+0x84>)
10001a36:	f040 0001 	orr.w	r0, r0, #1
10001a3a:	4044      	eors	r4, r0
10001a3c:	621c      	str	r4, [r3, #32]
10001a3e:	6259      	str	r1, [r3, #36]	; 0x24
10001a40:	6298      	str	r0, [r3, #40]	; 0x28
10001a42:	f04f 4580 	mov.w	r5, #1073741824	; 0x40000000
10001a46:	f04f 61e0 	mov.w	r1, #117440512	; 0x7000000
10001a4a:	4b14      	ldr	r3, [pc, #80]	; (10001a9c <watchdog_reboot+0x7c>)
10001a4c:	4816      	ldr	r0, [pc, #88]	; (10001aa8 <watchdog_reboot+0x88>)
10001a4e:	4c17      	ldr	r4, [pc, #92]	; (10001aac <watchdog_reboot+0x8c>)
10001a50:	601d      	str	r5, [r3, #0]
10001a52:	6084      	str	r4, [r0, #8]
10001a54:	6019      	str	r1, [r3, #0]
10001a56:	b94a      	cbnz	r2, 10001a6c <watchdog_reboot+0x4c>
10001a58:	bc30      	pop	{r4, r5}
10001a5a:	f04f 4200 	mov.w	r2, #2147483648	; 0x80000000
10001a5e:	f5a3 5380 	sub.w	r3, r3, #4096	; 0x1000
10001a62:	601a      	str	r2, [r3, #0]
10001a64:	4770      	bx	lr
10001a66:	4b12      	ldr	r3, [pc, #72]	; (10001ab0 <watchdog_reboot+0x90>)
10001a68:	61d8      	str	r0, [r3, #28]
10001a6a:	e7ea      	b.n	10001a42 <watchdog_reboot+0x22>
10001a6c:	f44f 737a 	mov.w	r3, #1000	; 0x3e8
10001a70:	fb03 f202 	mul.w	r2, r3, r2
10001a74:	f1b2 7f80 	cmp.w	r2, #16777216	; 0x1000000
10001a78:	d209      	bcs.n	10001a8e <watchdog_reboot+0x6e>
10001a7a:	4b0e      	ldr	r3, [pc, #56]	; (10001ab4 <watchdog_reboot+0x94>)
10001a7c:	601a      	str	r2, [r3, #0]
10001a7e:	f04f 4180 	mov.w	r1, #1073741824	; 0x40000000
10001a82:	bc30      	pop	{r4, r5}
10001a84:	480a      	ldr	r0, [pc, #40]	; (10001ab0 <watchdog_reboot+0x90>)
10001a86:	4b0c      	ldr	r3, [pc, #48]	; (10001ab8 <watchdog_reboot+0x98>)
10001a88:	6042      	str	r2, [r0, #4]
10001a8a:	6019      	str	r1, [r3, #0]
10001a8c:	4770      	bx	lr
10001a8e:	f06f 437f 	mvn.w	r3, #4278190080	; 0xff000000
10001a92:	4908      	ldr	r1, [pc, #32]	; (10001ab4 <watchdog_reboot+0x94>)
10001a94:	461a      	mov	r2, r3
10001a96:	600b      	str	r3, [r1, #0]
10001a98:	e7f1      	b.n	10001a7e <watchdog_reboot+0x5e>
10001a9a:	bf00      	nop
10001a9c:	400db000 	.word	0x400db000
10001aa0:	b007c0d3 	.word	0xb007c0d3
10001aa4:	4ff83f2d 	.word	0x4ff83f2d
10001aa8:	4001a000 	.word	0x4001a000
10001aac:	01fffff3 	.word	0x01fffff3
10001ab0:	400d8000 	.word	0x400d8000
10001ab4:	20001ef0 	.word	0x20001ef0
10001ab8:	400da000 	.word	0x400da000

10001abc <tick_start>:
10001abc:	2301      	movs	r3, #1
10001abe:	eb00 0040 	add.w	r0, r0, r0, lsl #1
10001ac2:	0080      	lsls	r0, r0, #2
10001ac4:	f100 4080 	add.w	r0, r0, #1073741824	; 0x40000000
10001ac8:	f500 1084 	add.w	r0, r0, #1081344	; 0x108000
10001acc:	6041      	str	r1, [r0, #4]
10001ace:	6003      	str	r3, [r0, #0]
10001ad0:	4770      	bx	lr
10001ad2:	bf00      	nop

10001ad4 <rom_reboot.constprop.0.isra.0>:
10001ad4:	b510      	push	{r4, lr}
10001ad6:	2400      	movs	r4, #0
10001ad8:	b082      	sub	sp, #8
10001ada:	460b      	mov	r3, r1
10001adc:	8ae4      	ldrh	r4, [r4, #22]
10001ade:	2100      	movs	r1, #0
10001ae0:	e841 f100 	tt	r1, r1
10001ae4:	e9cd 0300 	strd	r0, r3, [sp]
10001ae8:	024b      	lsls	r3, r1, #9
10001aea:	bf54      	ite	pl
10001aec:	2110      	movpl	r1, #16
10001aee:	2104      	movmi	r1, #4
10001af0:	f244 2052 	movw	r0, #16978	; 0x4252
10001af4:	47a0      	blx	r4
10001af6:	e9dd 2300 	ldrd	r2, r3, [sp]
10001afa:	4686      	mov	lr, r0
10001afc:	210a      	movs	r1, #10
10001afe:	f44f 7081 	mov.w	r0, #258	; 0x102
10001b02:	46f4      	mov	ip, lr
10001b04:	b002      	add	sp, #8
10001b06:	e8bd 4010 	ldmia.w	sp!, {r4, lr}
10001b0a:	4760      	bx	ip

10001b0c <rom_func_lookup>:
10001b0c:	2300      	movs	r3, #0
10001b0e:	8adb      	ldrh	r3, [r3, #22]
10001b10:	2200      	movs	r2, #0
10001b12:	e842 f200 	tt	r2, r2
10001b16:	0252      	lsls	r2, r2, #9
10001b18:	d401      	bmi.n	10001b1e <rom_func_lookup+0x12>
10001b1a:	2110      	movs	r1, #16
10001b1c:	4718      	bx	r3
10001b1e:	2104      	movs	r1, #4
10001b20:	4718      	bx	r3
10001b22:	bf00      	nop

10001b24 <rom_reset_usb_boot_extra>:
10001b24:	b508      	push	{r3, lr}
10001b26:	460b      	mov	r3, r1
10001b28:	1e01      	subs	r1, r0, #0
10001b2a:	db02      	blt.n	10001b32 <rom_reset_usb_boot_extra+0xe>
10001b2c:	b122      	cbz	r2, 10001b38 <rom_reset_usb_boot_extra+0x14>
10001b2e:	f043 0330 	orr.w	r3, r3, #48	; 0x30
10001b32:	4618      	mov	r0, r3
10001b34:	f7ff ffce 	bl	10001ad4 <rom_reboot.constprop.0.isra.0>
10001b38:	f043 0320 	orr.w	r3, r3, #32
10001b3c:	e7f9      	b.n	10001b32 <rom_reset_usb_boot_extra+0xe>
10001b3e:	bf00      	nop

10001b40 <runtime_init_bootrom_locking_enable>:
10001b40:	4a03      	ldr	r2, [pc, #12]	; (10001b50 <runtime_init_bootrom_locking_enable+0x10>)
10001b42:	f8d2 3828 	ldr.w	r3, [r2, #2088]	; 0x828
10001b46:	2b00      	cmp	r3, #0
10001b48:	d0fb      	beq.n	10001b42 <runtime_init_bootrom_locking_enable+0x2>
10001b4a:	f3bf 8f5f 	dmb	sy
10001b4e:	4770      	bx	lr
10001b50:	400e0000 	.word	0x400e0000

10001b54 <runtime_init_boot_locks_reset>:
10001b54:	2100      	movs	r1, #0
10001b56:	4b04      	ldr	r3, [pc, #16]	; (10001b68 <runtime_init_boot_locks_reset+0x14>)
10001b58:	4a04      	ldr	r2, [pc, #16]	; (10001b6c <runtime_init_boot_locks_reset+0x18>)
10001b5a:	f3bf 8f5f 	dmb	sy
10001b5e:	f843 1b04 	str.w	r1, [r3], #4
10001b62:	4293      	cmp	r3, r2
10001b64:	d1f9      	bne.n	10001b5a <runtime_init_boot_locks_reset+0x6>
10001b66:	4770      	bx	lr
10001b68:	400e080c 	.word	0x400e080c
10001b6c:	400e082c 	.word	0x400e082c

10001b70 <xosc_init>:
10001b70:	b410      	push	{r4}
10001b72:	f44f 708d 	mov.w	r0, #282	; 0x11a
10001b76:	f44f 642a 	mov.w	r4, #2720	; 0xaa0
10001b7a:	4a06      	ldr	r2, [pc, #24]	; (10001b94 <xosc_init+0x24>)
10001b7c:	4b06      	ldr	r3, [pc, #24]	; (10001b98 <xosc_init+0x28>)
10001b7e:	4907      	ldr	r1, [pc, #28]	; (10001b9c <xosc_init+0x2c>)
10001b80:	6014      	str	r4, [r2, #0]
10001b82:	60d0      	str	r0, [r2, #12]
10001b84:	6019      	str	r1, [r3, #0]
10001b86:	6853      	ldr	r3, [r2, #4]
10001b88:	2b00      	cmp	r3, #0
10001b8a:	dafc      	bge.n	10001b86 <xosc_init+0x16>
10001b8c:	f85d 4b04 	ldr.w	r4, [sp], #4
10001b90:	4770      	bx	lr
10001b92:	bf00      	nop
10001b94:	40048000 	.word	0x40048000
10001b98:	4004a000 	.word	0x4004a000
10001b9c:	00fab000 	.word	0x00fab000

10001ba0 <pvPortMalloc>:
10001ba0:	b5f8      	push	{r3, r4, r5, r6, r7, lr}
10001ba2:	1e43      	subs	r3, r0, #1
10001ba4:	330a      	adds	r3, #10
10001ba6:	d811      	bhi.n	10001bcc <pvPortMalloc+0x2c>
10001ba8:	f100 0408 	add.w	r4, r0, #8
10001bac:	f010 0007 	ands.w	r0, r0, #7
10001bb0:	d005      	beq.n	10001bbe <pvPortMalloc+0x1e>
10001bb2:	f1c0 0008 	rsb	r0, r0, #8
10001bb6:	43c3      	mvns	r3, r0
10001bb8:	42a3      	cmp	r3, r4
10001bba:	d307      	bcc.n	10001bcc <pvPortMalloc+0x2c>
10001bbc:	4404      	add	r4, r0
10001bbe:	f001 fbeb 	bl	10003398 <vTaskSuspendAll>
10001bc2:	4933      	ldr	r1, [pc, #204]	; (10001c90 <pvPortMalloc+0xf0>)
10001bc4:	4623      	mov	r3, r4
10001bc6:	680d      	ldr	r5, [r1, #0]
10001bc8:	bb15      	cbnz	r5, 10001c10 <pvPortMalloc+0x70>
10001bca:	e00a      	b.n	10001be2 <pvPortMalloc+0x42>
10001bcc:	f001 fbe4 	bl	10003398 <vTaskSuspendAll>
10001bd0:	492f      	ldr	r1, [pc, #188]	; (10001c90 <pvPortMalloc+0xf0>)
10001bd2:	680b      	ldr	r3, [r1, #0]
10001bd4:	b123      	cbz	r3, 10001be0 <pvPortMalloc+0x40>
10001bd6:	2500      	movs	r5, #0
10001bd8:	f002 fc44 	bl	10004464 <xTaskResumeAll>
10001bdc:	4628      	mov	r0, r5
10001bde:	bdf8      	pop	{r3, r4, r5, r6, r7, pc}
10001be0:	461c      	mov	r4, r3
10001be2:	482c      	ldr	r0, [pc, #176]	; (10001c94 <pvPortMalloc+0xf4>)
10001be4:	0742      	lsls	r2, r0, #29
10001be6:	d14b      	bne.n	10001c80 <pvPortMalloc+0xe0>
10001be8:	4602      	mov	r2, r0
10001bea:	f500 2580 	add.w	r5, r0, #262144	; 0x40000
10001bee:	3d08      	subs	r5, #8
10001bf0:	f025 0507 	bic.w	r5, r5, #7
10001bf4:	600d      	str	r5, [r1, #0]
10001bf6:	2100      	movs	r1, #0
10001bf8:	4e27      	ldr	r6, [pc, #156]	; (10001c98 <pvPortMalloc+0xf8>)
10001bfa:	1aaa      	subs	r2, r5, r2
10001bfc:	e9c6 0100 	strd	r0, r1, [r6]
10001c00:	e9c5 1100 	strd	r1, r1, [r5]
10001c04:	4925      	ldr	r1, [pc, #148]	; (10001c9c <pvPortMalloc+0xfc>)
10001c06:	e9c0 5200 	strd	r5, r2, [r0]
10001c0a:	600a      	str	r2, [r1, #0]
10001c0c:	4924      	ldr	r1, [pc, #144]	; (10001ca0 <pvPortMalloc+0x100>)
10001c0e:	600a      	str	r2, [r1, #0]
10001c10:	2b00      	cmp	r3, #0
10001c12:	dde0      	ble.n	10001bd6 <pvPortMalloc+0x36>
10001c14:	4f22      	ldr	r7, [pc, #136]	; (10001ca0 <pvPortMalloc+0x100>)
10001c16:	683e      	ldr	r6, [r7, #0]
10001c18:	42a6      	cmp	r6, r4
10001c1a:	d3dc      	bcc.n	10001bd6 <pvPortMalloc+0x36>
10001c1c:	4b1e      	ldr	r3, [pc, #120]	; (10001c98 <pvPortMalloc+0xf8>)
10001c1e:	4618      	mov	r0, r3
10001c20:	681b      	ldr	r3, [r3, #0]
10001c22:	e003      	b.n	10001c2c <pvPortMalloc+0x8c>
10001c24:	681a      	ldr	r2, [r3, #0]
10001c26:	b122      	cbz	r2, 10001c32 <pvPortMalloc+0x92>
10001c28:	4618      	mov	r0, r3
10001c2a:	4613      	mov	r3, r2
10001c2c:	6859      	ldr	r1, [r3, #4]
10001c2e:	42a1      	cmp	r1, r4
10001c30:	d3f8      	bcc.n	10001c24 <pvPortMalloc+0x84>
10001c32:	42ab      	cmp	r3, r5
10001c34:	d0cf      	beq.n	10001bd6 <pvPortMalloc+0x36>
10001c36:	461d      	mov	r5, r3
10001c38:	eba1 0c04 	sub.w	ip, r1, r4
10001c3c:	f855 2b08 	ldr.w	r2, [r5], #8
10001c40:	f1bc 0f10 	cmp.w	ip, #16
10001c44:	6002      	str	r2, [r0, #0]
10001c46:	d907      	bls.n	10001c58 <pvPortMalloc+0xb8>
10001c48:	4621      	mov	r1, r4
10001c4a:	eb03 0e04 	add.w	lr, r3, r4
10001c4e:	f8ce c004 	str.w	ip, [lr, #4]
10001c52:	511a      	str	r2, [r3, r4]
10001c54:	f8c0 e000 	str.w	lr, [r0]
10001c58:	2400      	movs	r4, #0
10001c5a:	4a10      	ldr	r2, [pc, #64]	; (10001c9c <pvPortMalloc+0xfc>)
10001c5c:	1a76      	subs	r6, r6, r1
10001c5e:	6810      	ldr	r0, [r2, #0]
10001c60:	f041 4100 	orr.w	r1, r1, #2147483648	; 0x80000000
10001c64:	4286      	cmp	r6, r0
10001c66:	480f      	ldr	r0, [pc, #60]	; (10001ca4 <pvPortMalloc+0x104>)
10001c68:	bf38      	it	cc
10001c6a:	6016      	strcc	r6, [r2, #0]
10001c6c:	6802      	ldr	r2, [r0, #0]
10001c6e:	6059      	str	r1, [r3, #4]
10001c70:	3201      	adds	r2, #1
10001c72:	601c      	str	r4, [r3, #0]
10001c74:	603e      	str	r6, [r7, #0]
10001c76:	6002      	str	r2, [r0, #0]
10001c78:	f002 fbf4 	bl	10004464 <xTaskResumeAll>
10001c7c:	4628      	mov	r0, r5
10001c7e:	bdf8      	pop	{r3, r4, r5, r6, r7, pc}
10001c80:	1dc2      	adds	r2, r0, #7
10001c82:	f022 0207 	bic.w	r2, r2, #7
10001c86:	f500 2580 	add.w	r5, r0, #262144	; 0x40000
10001c8a:	4610      	mov	r0, r2
10001c8c:	e7af      	b.n	10001bee <pvPortMalloc+0x4e>
10001c8e:	bf00      	nop
10001c90:	20001f30 	.word	0x20001f30
10001c94:	200021d0 	.word	0x200021d0
10001c98:	200422a0 	.word	0x200422a0
10001c9c:	20042270 	.word	0x20042270
10001ca0:	20042260 	.word	0x20042260
10001ca4:	2004227c 	.word	0x2004227c

10001ca8 <vPortFree>:
10001ca8:	b130      	cbz	r0, 10001cb8 <vPortFree+0x10>
10001caa:	f850 3c04 	ldr.w	r3, [r0, #-4]
10001cae:	2b00      	cmp	r3, #0
10001cb0:	da02      	bge.n	10001cb8 <vPortFree+0x10>
10001cb2:	f850 2c08 	ldr.w	r2, [r0, #-8]
10001cb6:	b102      	cbz	r2, 10001cba <vPortFree+0x12>
10001cb8:	4770      	bx	lr
10001cba:	b510      	push	{r4, lr}
10001cbc:	f023 4300 	bic.w	r3, r3, #2147483648	; 0x80000000
10001cc0:	b082      	sub	sp, #8
10001cc2:	f840 3c04 	str.w	r3, [r0, #-4]
10001cc6:	4c19      	ldr	r4, [pc, #100]	; (10001d2c <vPortFree+0x84>)
10001cc8:	9001      	str	r0, [sp, #4]
10001cca:	f001 fb65 	bl	10003398 <vTaskSuspendAll>
10001cce:	9801      	ldr	r0, [sp, #4]
10001cd0:	6822      	ldr	r2, [r4, #0]
10001cd2:	f850 1c04 	ldr.w	r1, [r0, #-4]
10001cd6:	4b16      	ldr	r3, [pc, #88]	; (10001d30 <vPortFree+0x88>)
10001cd8:	440a      	add	r2, r1
10001cda:	3808      	subs	r0, #8
10001cdc:	6022      	str	r2, [r4, #0]
10001cde:	461a      	mov	r2, r3
10001ce0:	681b      	ldr	r3, [r3, #0]
10001ce2:	4298      	cmp	r0, r3
10001ce4:	d8fb      	bhi.n	10001cde <vPortFree+0x36>
10001ce6:	6854      	ldr	r4, [r2, #4]
10001ce8:	eb02 0c04 	add.w	ip, r2, r4
10001cec:	4560      	cmp	r0, ip
10001cee:	d019      	beq.n	10001d24 <vPortFree+0x7c>
10001cf0:	1844      	adds	r4, r0, r1
10001cf2:	42a3      	cmp	r3, r4
10001cf4:	d00c      	beq.n	10001d10 <vPortFree+0x68>
10001cf6:	6003      	str	r3, [r0, #0]
10001cf8:	4282      	cmp	r2, r0
10001cfa:	bf18      	it	ne
10001cfc:	6010      	strne	r0, [r2, #0]
10001cfe:	4a0d      	ldr	r2, [pc, #52]	; (10001d34 <vPortFree+0x8c>)
10001d00:	6813      	ldr	r3, [r2, #0]
10001d02:	3301      	adds	r3, #1
10001d04:	6013      	str	r3, [r2, #0]
10001d06:	b002      	add	sp, #8
10001d08:	e8bd 4010 	ldmia.w	sp!, {r4, lr}
10001d0c:	f002 bbaa 	b.w	10004464 <xTaskResumeAll>
10001d10:	4c09      	ldr	r4, [pc, #36]	; (10001d38 <vPortFree+0x90>)
10001d12:	6824      	ldr	r4, [r4, #0]
10001d14:	42a3      	cmp	r3, r4
10001d16:	d0ee      	beq.n	10001cf6 <vPortFree+0x4e>
10001d18:	e9d3 3400 	ldrd	r3, r4, [r3]
10001d1c:	4421      	add	r1, r4
10001d1e:	e9c0 3100 	strd	r3, r1, [r0]
10001d22:	e7e9      	b.n	10001cf8 <vPortFree+0x50>
10001d24:	4421      	add	r1, r4
10001d26:	4610      	mov	r0, r2
10001d28:	6051      	str	r1, [r2, #4]
10001d2a:	e7e1      	b.n	10001cf0 <vPortFree+0x48>
10001d2c:	20042260 	.word	0x20042260
10001d30:	200422a0 	.word	0x200422a0
10001d34:	20042280 	.word	0x20042280
10001d38:	20001f30 	.word	0x20001f30

10001d3c <prvDoorbellInterruptHandler>:
10001d3c:	4b0a      	ldr	r3, [pc, #40]	; (10001d68 <prvDoorbellInterruptHandler+0x2c>)
10001d3e:	f993 2000 	ldrsb.w	r2, [r3]
10001d42:	2a00      	cmp	r2, #0
10001d44:	db0f      	blt.n	10001d66 <prvDoorbellInterruptHandler+0x2a>
10001d46:	f04f 4150 	mov.w	r1, #3489660928	; 0xd0000000
10001d4a:	2301      	movs	r3, #1
10001d4c:	f8d1 0188 	ldr.w	r0, [r1, #392]	; 0x188
10001d50:	4093      	lsls	r3, r2
10001d52:	4218      	tst	r0, r3
10001d54:	d007      	beq.n	10001d66 <prvDoorbellInterruptHandler+0x2a>
10001d56:	f04f 22e0 	mov.w	r2, #3758153728	; 0xe000e000
10001d5a:	f04f 5080 	mov.w	r0, #268435456	; 0x10000000
10001d5e:	f8c1 318c 	str.w	r3, [r1, #396]	; 0x18c
10001d62:	f8c2 0d04 	str.w	r0, [r2, #3332]	; 0xd04
10001d66:	4770      	bx	lr
10001d68:	2000126c 	.word	0x2000126c

10001d6c <prvTaskExitError>:
10001d6c:	2300      	movs	r3, #0
10001d6e:	b500      	push	{lr}
10001d70:	b083      	sub	sp, #12
10001d72:	9301      	str	r3, [sp, #4]
10001d74:	f000 fa90 	bl	10002298 <ulSetInterruptMask>
10001d78:	9b01      	ldr	r3, [sp, #4]
10001d7a:	2b00      	cmp	r3, #0
10001d7c:	d0fc      	beq.n	10001d78 <prvTaskExitError+0xc>
10001d7e:	b003      	add	sp, #12
10001d80:	f85d fb04 	ldr.w	pc, [sp], #4

10001d84 <SysTick_Handler>:
10001d84:	b510      	push	{r4, lr}
10001d86:	f002 fc4b 	bl	10004620 <vTaskEnterCriticalFromISR>
10001d8a:	4604      	mov	r4, r0
10001d8c:	f001 fb18 	bl	100033c0 <xTaskIncrementTick>
10001d90:	b128      	cbz	r0, 10001d9e <SysTick_Handler+0x1a>
10001d92:	f04f 23e0 	mov.w	r3, #3758153728	; 0xe000e000
10001d96:	f04f 5280 	mov.w	r2, #268435456	; 0x10000000
10001d9a:	f8c3 2d04 	str.w	r2, [r3, #3332]	; 0xd04
10001d9e:	4620      	mov	r0, r4
10001da0:	e8bd 4010 	ldmia.w	sp!, {r4, lr}
10001da4:	f002 bcd2 	b.w	1000474c <vTaskExitCriticalFromISR>

10001da8 <vPortSetupTimerInterrupt>:
10001da8:	b510      	push	{r4, lr}
10001daa:	2204      	movs	r2, #4
10001dac:	f04f 24e0 	mov.w	r4, #3758153728	; 0xe000e000
10001db0:	2300      	movs	r3, #0
10001db2:	6122      	str	r2, [r4, #16]
10001db4:	2005      	movs	r0, #5
10001db6:	61a3      	str	r3, [r4, #24]
10001db8:	f7ff fde6 	bl	10001988 <clock_get_hz>
10001dbc:	2207      	movs	r2, #7
10001dbe:	4b04      	ldr	r3, [pc, #16]	; (10001dd0 <vPortSetupTimerInterrupt+0x28>)
10001dc0:	fba3 3000 	umull	r3, r0, r3, r0
10001dc4:	0983      	lsrs	r3, r0, #6
10001dc6:	3b01      	subs	r3, #1
10001dc8:	6163      	str	r3, [r4, #20]
10001dca:	6122      	str	r2, [r4, #16]
10001dcc:	bd10      	pop	{r4, pc}
10001dce:	bf00      	nop
10001dd0:	10624dd3 	.word	0x10624dd3

10001dd4 <xPortStartSchedulerOnCore.isra.0>:
10001dd4:	f04f 23e0 	mov.w	r3, #3758153728	; 0xe000e000
10001dd8:	f04f 427f 	mov.w	r2, #4278190080	; 0xff000000
10001ddc:	2100      	movs	r1, #0
10001dde:	b530      	push	{r4, r5, lr}
10001de0:	b085      	sub	sp, #20
10001de2:	9103      	str	r1, [sp, #12]
10001de4:	f8c3 2d1c 	str.w	r2, [r3, #3356]	; 0xd1c
10001de8:	f8d3 3d1c 	ldr.w	r3, [r3, #3356]	; 0xd1c
10001dec:	0e1b      	lsrs	r3, r3, #24
10001dee:	f88d 3007 	strb.w	r3, [sp, #7]
10001df2:	f89d 3007 	ldrb.w	r3, [sp, #7]
10001df6:	f89d 3007 	ldrb.w	r3, [sp, #7]
10001dfa:	061a      	lsls	r2, r3, #24
10001dfc:	d50c      	bpl.n	10001e18 <xPortStartSchedulerOnCore.isra.0+0x44>
10001dfe:	9b03      	ldr	r3, [sp, #12]
10001e00:	3301      	adds	r3, #1
10001e02:	9303      	str	r3, [sp, #12]
10001e04:	f89d 3007 	ldrb.w	r3, [sp, #7]
10001e08:	005b      	lsls	r3, r3, #1
10001e0a:	b2db      	uxtb	r3, r3
10001e0c:	f88d 3007 	strb.w	r3, [sp, #7]
10001e10:	f89d 3007 	ldrb.w	r3, [sp, #7]
10001e14:	061b      	lsls	r3, r3, #24
10001e16:	d4f2      	bmi.n	10001dfe <xPortStartSchedulerOnCore.isra.0+0x2a>
10001e18:	9b03      	ldr	r3, [sp, #12]
10001e1a:	2b08      	cmp	r3, #8
10001e1c:	d040      	beq.n	10001ea0 <xPortStartSchedulerOnCore.isra.0+0xcc>
10001e1e:	9b03      	ldr	r3, [sp, #12]
10001e20:	f1c3 0307 	rsb	r3, r3, #7
10001e24:	021b      	lsls	r3, r3, #8
10001e26:	f403 63e0 	and.w	r3, r3, #1792	; 0x700
10001e2a:	f04f 4150 	mov.w	r1, #3489660928	; 0xd0000000
10001e2e:	4825      	ldr	r0, [pc, #148]	; (10001ec4 <xPortStartSchedulerOnCore.isra.0+0xf0>)
10001e30:	4a25      	ldr	r2, [pc, #148]	; (10001ec8 <xPortStartSchedulerOnCore.isra.0+0xf4>)
10001e32:	6003      	str	r3, [r0, #0]
10001e34:	7812      	ldrb	r2, [r2, #0]
10001e36:	680b      	ldr	r3, [r1, #0]
10001e38:	429a      	cmp	r2, r3
10001e3a:	d033      	beq.n	10001ea4 <xPortStartSchedulerOnCore.isra.0+0xd0>
10001e3c:	f04f 23e0 	mov.w	r3, #3758153728	; 0xe000e000
10001e40:	2400      	movs	r4, #0
10001e42:	f04f 4550 	mov.w	r5, #3489660928	; 0xd0000000
10001e46:	f8d3 2d20 	ldr.w	r2, [r3, #3360]	; 0xd20
10001e4a:	4920      	ldr	r1, [pc, #128]	; (10001ecc <xPortStartSchedulerOnCore.isra.0+0xf8>)
10001e4c:	f442 027f 	orr.w	r2, r2, #16711680	; 0xff0000
10001e50:	f8c3 2d20 	str.w	r2, [r3, #3360]	; 0xd20
10001e54:	200e      	movs	r0, #14
10001e56:	f8c3 4d1c 	str.w	r4, [r3, #3356]	; 0xd1c
10001e5a:	f002 fedf 	bl	10004c1c <exception_set_exclusive_handler>
10001e5e:	491c      	ldr	r1, [pc, #112]	; (10001ed0 <xPortStartSchedulerOnCore.isra.0+0xfc>)
10001e60:	200b      	movs	r0, #11
10001e62:	f002 fedb 	bl	10004c1c <exception_set_exclusive_handler>
10001e66:	682a      	ldr	r2, [r5, #0]
10001e68:	4b1a      	ldr	r3, [pc, #104]	; (10001ed4 <xPortStartSchedulerOnCore.isra.0+0x100>)
10001e6a:	21ff      	movs	r1, #255	; 0xff
10001e6c:	f843 4022 	str.w	r4, [r3, r2, lsl #2]
10001e70:	201a      	movs	r0, #26
10001e72:	f7fe fed3 	bl	10000c1c <irq_set_priority>
10001e76:	201a      	movs	r0, #26
10001e78:	4917      	ldr	r1, [pc, #92]	; (10001ed8 <xPortStartSchedulerOnCore.isra.0+0x104>)
10001e7a:	f7fe fdab 	bl	100009d4 <irq_set_exclusive_handler>
10001e7e:	2101      	movs	r1, #1
10001e80:	201a      	movs	r0, #26
10001e82:	f7fe fd63 	bl	1000094c <irq_set_enabled>
10001e86:	f000 f9ff 	bl	10002288 <vStartFirstTask>
10001e8a:	6828      	ldr	r0, [r5, #0]
10001e8c:	f001 fbd4 	bl	10003638 <vTaskSwitchContext>
10001e90:	9402      	str	r4, [sp, #8]
10001e92:	f000 fa01 	bl	10002298 <ulSetInterruptMask>
10001e96:	9b02      	ldr	r3, [sp, #8]
10001e98:	2b00      	cmp	r3, #0
10001e9a:	d0fc      	beq.n	10001e96 <xPortStartSchedulerOnCore.isra.0+0xc2>
10001e9c:	b005      	add	sp, #20
10001e9e:	bd30      	pop	{r4, r5, pc}
10001ea0:	2300      	movs	r3, #0
10001ea2:	e7c2      	b.n	10001e2a <xPortStartSchedulerOnCore.isra.0+0x56>
10001ea4:	f7ff ff80 	bl	10001da8 <vPortSetupTimerInterrupt>
10001ea8:	f04f 22e0 	mov.w	r2, #3758153728	; 0xe000e000
10001eac:	f8d2 3d20 	ldr.w	r3, [r2, #3360]	; 0xd20
10001eb0:	490a      	ldr	r1, [pc, #40]	; (10001edc <xPortStartSchedulerOnCore.isra.0+0x108>)
10001eb2:	f043 437f 	orr.w	r3, r3, #4278190080	; 0xff000000
10001eb6:	f8c2 3d20 	str.w	r3, [r2, #3360]	; 0xd20
10001eba:	200f      	movs	r0, #15
10001ebc:	f002 feae 	bl	10004c1c <exception_set_exclusive_handler>
10001ec0:	e7bc      	b.n	10001e3c <xPortStartSchedulerOnCore.isra.0+0x68>
10001ec2:	bf00      	nop
10001ec4:	200421e0 	.word	0x200421e0
10001ec8:	2000126d 	.word	0x2000126d
10001ecc:	100022c1 	.word	0x100022c1
10001ed0:	10002359 	.word	0x10002359
10001ed4:	200421d8 	.word	0x200421d8
10001ed8:	10001d3d 	.word	0x10001d3d
10001edc:	10001d85 	.word	0x10001d85

10001ee0 <prvDisableInterruptsAndPortStartSchedulerOnCore>:
10001ee0:	b508      	push	{r3, lr}
10001ee2:	f000 f9d9 	bl	10002298 <ulSetInterruptMask>
10001ee6:	e8bd 4008 	ldmia.w	sp!, {r3, lr}
10001eea:	f7ff bf73 	b.w	10001dd4 <xPortStartSchedulerOnCore.isra.0>
10001eee:	bf00      	nop

10001ef0 <vPortYield>:
10001ef0:	f04f 23e0 	mov.w	r3, #3758153728	; 0xe000e000
10001ef4:	f04f 5280 	mov.w	r2, #268435456	; 0x10000000
10001ef8:	f8c3 2d04 	str.w	r2, [r3, #3332]	; 0xd04
10001efc:	f3bf 8f4f 	dsb	sy
10001f00:	f3bf 8f6f 	isb	sy
10001f04:	4770      	bx	lr
10001f06:	bf00      	nop

10001f08 <vPortSVCHandler_C>:
10001f08:	6983      	ldr	r3, [r0, #24]
10001f0a:	f813 3c02 	ldrb.w	r3, [r3, #-2]
10001f0e:	2b66      	cmp	r3, #102	; 0x66
10001f10:	d000      	beq.n	10001f14 <vPortSVCHandler_C+0xc>
10001f12:	4770      	bx	lr
10001f14:	f04f 23e0 	mov.w	r3, #3758153728	; 0xe000e000
10001f18:	f8d3 2d88 	ldr.w	r2, [r3, #3464]	; 0xd88
10001f1c:	f442 0270 	orr.w	r2, r2, #15728640	; 0xf00000
10001f20:	f8c3 2d88 	str.w	r2, [r3, #3464]	; 0xd88
10001f24:	f8d3 2f34 	ldr.w	r2, [r3, #3892]	; 0xf34
10001f28:	f042 4240 	orr.w	r2, r2, #3221225472	; 0xc0000000
10001f2c:	f8c3 2f34 	str.w	r2, [r3, #3892]	; 0xf34
10001f30:	f000 b98e 	b.w	10002250 <vRestoreContextOfFirstTask>

10001f34 <pxPortInitialiseStack>:
10001f34:	e92d 47f0 	stmdb	sp!, {r4, r5, r6, r7, r8, r9, sl, lr}
10001f38:	f04f 7480 	mov.w	r4, #16777216	; 0x1000000
10001f3c:	f04f 3710 	mov.w	r7, #269488144	; 0x10101010
10001f40:	f04f 3509 	mov.w	r5, #151587081	; 0x9090909
10001f44:	f840 4c04 	str.w	r4, [r0, #-4]
10001f48:	f04f 3407 	mov.w	r4, #117901063	; 0x7070707
10001f4c:	e940 570b 	strd	r5, r7, [r0, #-44]	; 0x2c
10001f50:	4d16      	ldr	r5, [pc, #88]	; (10001fac <pxPortInitialiseStack+0x78>)
10001f52:	f840 4c34 	str.w	r4, [r0, #-52]
10001f56:	e940 5203 	strd	r5, r2, [r0, #-12]
10001f5a:	f04f 3c11 	mov.w	ip, #286331153	; 0x11111111
10001f5e:	f04f 3406 	mov.w	r4, #101058054	; 0x6060606
10001f62:	f04f 3205 	mov.w	r2, #84215045	; 0x5050505
10001f66:	e940 c309 	strd	ip, r3, [r0, #-36]	; 0x24
10001f6a:	e940 240f 	strd	r2, r4, [r0, #-60]	; 0x3c
10001f6e:	4603      	mov	r3, r0
10001f70:	f04f 3a12 	mov.w	sl, #303174162	; 0x12121212
10001f74:	f04f 3903 	mov.w	r9, #50529027	; 0x3030303
10001f78:	f04f 3802 	mov.w	r8, #33686018	; 0x2020202
10001f7c:	f04f 3e01 	mov.w	lr, #16843009	; 0x1010101
10001f80:	f04f 3608 	mov.w	r6, #134744072	; 0x8080808
10001f84:	f04f 3504 	mov.w	r5, #67372036	; 0x4040404
10001f88:	f06f 0202 	mvn.w	r2, #2
10001f8c:	e940 9a05 	strd	r9, sl, [r0, #-20]
10001f90:	e940 e807 	strd	lr, r8, [r0, #-28]
10001f94:	f840 6c30 	str.w	r6, [r0, #-48]
10001f98:	f840 5c40 	str.w	r5, [r0, #-64]
10001f9c:	f840 2c44 	str.w	r2, [r0, #-68]
10001fa0:	f843 1d48 	str.w	r1, [r3, #-72]!
10001fa4:	4618      	mov	r0, r3
10001fa6:	e8bd 87f0 	ldmia.w	sp!, {r4, r5, r6, r7, r8, r9, sl, pc}
10001faa:	bf00      	nop
10001fac:	10001d6d 	.word	0x10001d6d

10001fb0 <xPortStartScheduler>:
10001fb0:	b570      	push	{r4, r5, r6, lr}
10001fb2:	200e      	movs	r0, #14
10001fb4:	f7fe fc7c 	bl	100008b0 <spin_lock_claim>
10001fb8:	200f      	movs	r0, #15
10001fba:	f7fe fc79 	bl	100008b0 <spin_lock_claim>
10001fbe:	2101      	movs	r1, #1
10001fc0:	2003      	movs	r0, #3
10001fc2:	f002 fec1 	bl	10004d48 <multicore_doorbell_claim_unused>
10001fc6:	4602      	mov	r2, r0
10001fc8:	2301      	movs	r3, #1
10001fca:	f04f 4150 	mov.w	r1, #3489660928	; 0xd0000000
10001fce:	2400      	movs	r4, #0
10001fd0:	b252      	sxtb	r2, r2
10001fd2:	4e08      	ldr	r6, [pc, #32]	; (10001ff4 <xPortStartScheduler+0x44>)
10001fd4:	4093      	lsls	r3, r2
10001fd6:	4d08      	ldr	r5, [pc, #32]	; (10001ff8 <xPortStartScheduler+0x48>)
10001fd8:	7032      	strb	r2, [r6, #0]
10001fda:	4808      	ldr	r0, [pc, #32]	; (10001ffc <xPortStartScheduler+0x4c>)
10001fdc:	f8c1 318c 	str.w	r3, [r1, #396]	; 0x18c
10001fe0:	f8c1 3184 	str.w	r3, [r1, #388]	; 0x184
10001fe4:	702c      	strb	r4, [r5, #0]
10001fe6:	f002 fe8d 	bl	10004d04 <multicore_launch_core1>
10001fea:	f7ff fef3 	bl	10001dd4 <xPortStartSchedulerOnCore.isra.0>
10001fee:	4620      	mov	r0, r4
10001ff0:	bd70      	pop	{r4, r5, r6, pc}
10001ff2:	bf00      	nop
10001ff4:	2000126c 	.word	0x2000126c
10001ff8:	2000126d 	.word	0x2000126d
10001ffc:	10001ee1 	.word	0x10001ee1

10002000 <vPortValidateInterruptPriority>:
10002000:	f3ef 8305 	mrs	r3, IPSR
10002004:	2b0f      	cmp	r3, #15
10002006:	bf84      	itt	hi
10002008:	4a01      	ldrhi	r2, [pc, #4]	; (10002010 <vPortValidateInterruptPriority+0x10>)
1000200a:	5c9b      	ldrbhi	r3, [r3, r2]
1000200c:	4770      	bx	lr
1000200e:	bf00      	nop
10002010:	e000e3f0 	.word	0xe000e3f0

10002014 <ulPortLockGetCurrentOwnerId>:
10002014:	4b09      	ldr	r3, [pc, #36]	; (1000203c <ulPortLockGetCurrentOwnerId+0x28>)
10002016:	781b      	ldrb	r3, [r3, #0]
10002018:	2bff      	cmp	r3, #255	; 0xff
1000201a:	d00b      	beq.n	10002034 <ulPortLockGetCurrentOwnerId+0x20>
1000201c:	f3ef 8305 	mrs	r3, IPSR
10002020:	b2db      	uxtb	r3, r3
10002022:	b12b      	cbz	r3, 10002030 <ulPortLockGetCurrentOwnerId+0x1c>
10002024:	f04f 4250 	mov.w	r2, #3489660928	; 0xd0000000
10002028:	6810      	ldr	r0, [r2, #0]
1000202a:	eb00 0043 	add.w	r0, r0, r3, lsl #1
1000202e:	4770      	bx	lr
10002030:	f001 bdb0 	b.w	10003b94 <xTaskGetCurrentTaskHandle>
10002034:	f04f 4350 	mov.w	r3, #3489660928	; 0xd0000000
10002038:	6818      	ldr	r0, [r3, #0]
1000203a:	4770      	bx	lr
1000203c:	2000126d 	.word	0x2000126d

10002040 <vPortLockInternalSpinUnlockWithWait>:
10002040:	4b15      	ldr	r3, [pc, #84]	; (10002098 <vPortLockInternalSpinUnlockWithWait+0x58>)
10002042:	781b      	ldrb	r3, [r3, #0]
10002044:	2bff      	cmp	r3, #255	; 0xff
10002046:	d107      	bne.n	10002058 <vPortLockInternalSpinUnlockWithWait+0x18>
10002048:	2300      	movs	r3, #0
1000204a:	6802      	ldr	r2, [r0, #0]
1000204c:	e8c2 3f8f 	stlb	r3, [r2]
10002050:	f381 8810 	msr	PRIMASK, r1
10002054:	bf20      	wfe
10002056:	4770      	bx	lr
10002058:	b510      	push	{r4, lr}
1000205a:	2300      	movs	r3, #0
1000205c:	b082      	sub	sp, #8
1000205e:	6802      	ldr	r2, [r0, #0]
10002060:	e8c2 3f8f 	stlb	r3, [r2]
10002064:	f381 8810 	msr	PRIMASK, r1
10002068:	f04f 34ff 	mov.w	r4, #4294967295
1000206c:	2201      	movs	r2, #1
1000206e:	6800      	ldr	r0, [r0, #0]
10002070:	490a      	ldr	r1, [pc, #40]	; (1000209c <vPortLockInternalSpinUnlockWithWait+0x5c>)
10002072:	9400      	str	r4, [sp, #0]
10002074:	1a40      	subs	r0, r0, r1
10002076:	490a      	ldr	r1, [pc, #40]	; (100020a0 <vPortLockInternalSpinUnlockWithWait+0x60>)
10002078:	fba1 c100 	umull	ip, r1, r1, r0
1000207c:	0909      	lsrs	r1, r1, #4
1000207e:	eb01 0141 	add.w	r1, r1, r1, lsl #1
10002082:	eba0 01c1 	sub.w	r1, r0, r1, lsl #3
10002086:	4807      	ldr	r0, [pc, #28]	; (100020a4 <vPortLockInternalSpinUnlockWithWait+0x64>)
10002088:	fa02 f101 	lsl.w	r1, r2, r1
1000208c:	6800      	ldr	r0, [r0, #0]
1000208e:	f000 f9af 	bl	100023f0 <xEventGroupWaitBits>
10002092:	b002      	add	sp, #8
10002094:	bd10      	pop	{r4, pc}
10002096:	bf00      	nop
10002098:	2000126d 	.word	0x2000126d
1000209c:	20001668 	.word	0x20001668
100020a0:	aaaaaaab 	.word	0xaaaaaaab
100020a4:	2004225c 	.word	0x2004225c

100020a8 <vPortLockInternalSpinUnlockWithNotify>:
100020a8:	b510      	push	{r4, lr}
100020aa:	4b20      	ldr	r3, [pc, #128]	; (1000212c <vPortLockInternalSpinUnlockWithNotify+0x84>)
100020ac:	468e      	mov	lr, r1
100020ae:	781b      	ldrb	r3, [r3, #0]
100020b0:	b082      	sub	sp, #8
100020b2:	2bff      	cmp	r3, #255	; 0xff
100020b4:	d030      	beq.n	10002118 <vPortLockInternalSpinUnlockWithNotify+0x70>
100020b6:	f04f 0c01 	mov.w	ip, #1
100020ba:	491d      	ldr	r1, [pc, #116]	; (10002130 <vPortLockInternalSpinUnlockWithNotify+0x88>)
100020bc:	6802      	ldr	r2, [r0, #0]
100020be:	4b1d      	ldr	r3, [pc, #116]	; (10002134 <vPortLockInternalSpinUnlockWithNotify+0x8c>)
100020c0:	1a52      	subs	r2, r2, r1
100020c2:	fba3 1302 	umull	r1, r3, r3, r2
100020c6:	091b      	lsrs	r3, r3, #4
100020c8:	eb03 0343 	add.w	r3, r3, r3, lsl #1
100020cc:	eba2 03c3 	sub.w	r3, r2, r3, lsl #3
100020d0:	fa0c f103 	lsl.w	r1, ip, r3
100020d4:	bf40      	sev
100020d6:	2400      	movs	r4, #0
100020d8:	6803      	ldr	r3, [r0, #0]
100020da:	e8c3 4f8f 	stlb	r4, [r3]
100020de:	f38e 8810 	msr	PRIMASK, lr
100020e2:	f3ef 8305 	mrs	r3, IPSR
100020e6:	b2db      	uxtb	r3, r3
100020e8:	b933      	cbnz	r3, 100020f8 <vPortLockInternalSpinUnlockWithNotify+0x50>
100020ea:	4b13      	ldr	r3, [pc, #76]	; (10002138 <vPortLockInternalSpinUnlockWithNotify+0x90>)
100020ec:	6818      	ldr	r0, [r3, #0]
100020ee:	b002      	add	sp, #8
100020f0:	e8bd 4010 	ldmia.w	sp!, {r4, lr}
100020f4:	f000 b9d6 	b.w	100024a4 <xEventGroupSetBits>
100020f8:	4b0f      	ldr	r3, [pc, #60]	; (10002138 <vPortLockInternalSpinUnlockWithNotify+0x90>)
100020fa:	aa01      	add	r2, sp, #4
100020fc:	6818      	ldr	r0, [r3, #0]
100020fe:	9401      	str	r4, [sp, #4]
10002100:	f000 fa04 	bl	1000250c <xEventGroupSetBitsFromISR>
10002104:	9b01      	ldr	r3, [sp, #4]
10002106:	b12b      	cbz	r3, 10002114 <vPortLockInternalSpinUnlockWithNotify+0x6c>
10002108:	f04f 23e0 	mov.w	r3, #3758153728	; 0xe000e000
1000210c:	f04f 5280 	mov.w	r2, #268435456	; 0x10000000
10002110:	f8c3 2d04 	str.w	r2, [r3, #3332]	; 0xd04
10002114:	b002      	add	sp, #8
10002116:	bd10      	pop	{r4, pc}
10002118:	bf40      	sev
1000211a:	2300      	movs	r3, #0
1000211c:	6802      	ldr	r2, [r0, #0]
1000211e:	e8c2 3f8f 	stlb	r3, [r2]
10002122:	f381 8810 	msr	PRIMASK, r1
10002126:	b002      	add	sp, #8
10002128:	bd10      	pop	{r4, pc}
1000212a:	bf00      	nop
1000212c:	2000126d 	.word	0x2000126d
10002130:	20001668 	.word	0x20001668
10002134:	aaaaaaab 	.word	0xaaaaaaab
10002138:	2004225c 	.word	0x2004225c

1000213c <xPortLockInternalSpinUnlockWithBestEffortWaitOrTimeout>:
1000213c:	b5f0      	push	{r4, r5, r6, r7, lr}
1000213e:	4c35      	ldr	r4, [pc, #212]	; (10002214 <xPortLockInternalSpinUnlockWithBestEffortWaitOrTimeout+0xd8>)
10002140:	4606      	mov	r6, r0
10002142:	f894 c000 	ldrb.w	ip, [r4]
10002146:	460f      	mov	r7, r1
10002148:	f1bc 0fff 	cmp.w	ip, #255	; 0xff
1000214c:	4614      	mov	r4, r2
1000214e:	461d      	mov	r5, r3
10002150:	b083      	sub	sp, #12
10002152:	d04e      	beq.n	100021f2 <xPortLockInternalSpinUnlockWithBestEffortWaitOrTimeout+0xb6>
10002154:	f7ff fa6a 	bl	1000162c <time_us_64>
10002158:	f240 33e7 	movw	r3, #999	; 0x3e7
1000215c:	ebb4 0c00 	subs.w	ip, r4, r0
10002160:	eb65 0e01 	sbc.w	lr, r5, r1
10002164:	eb1c 0003 	adds.w	r0, ip, r3
10002168:	f14e 0100 	adc.w	r1, lr, #0
1000216c:	f5b0 7f7a 	cmp.w	r0, #1000	; 0x3e8
10002170:	f171 0300 	sbcs.w	r3, r1, #0
10002174:	da1c      	bge.n	100021b0 <xPortLockInternalSpinUnlockWithBestEffortWaitOrTimeout+0x74>
10002176:	2300      	movs	r3, #0
10002178:	6832      	ldr	r2, [r6, #0]
1000217a:	e8c2 3f8f 	stlb	r3, [r2]
1000217e:	f387 8810 	msr	PRIMASK, r7
10002182:	4b25      	ldr	r3, [pc, #148]	; (10002218 <xPortLockInternalSpinUnlockWithBestEffortWaitOrTimeout+0xdc>)
10002184:	6a5a      	ldr	r2, [r3, #36]	; 0x24
10002186:	4295      	cmp	r5, r2
10002188:	d90c      	bls.n	100021a4 <xPortLockInternalSpinUnlockWithBestEffortWaitOrTimeout+0x68>
1000218a:	f04f 23e0 	mov.w	r3, #3758153728	; 0xe000e000
1000218e:	f04f 5280 	mov.w	r2, #268435456	; 0x10000000
10002192:	f8c3 2d04 	str.w	r2, [r3, #3332]	; 0xd04
10002196:	f3bf 8f4f 	dsb	sy
1000219a:	f3bf 8f6f 	isb	sy
1000219e:	2000      	movs	r0, #0
100021a0:	b003      	add	sp, #12
100021a2:	bdf0      	pop	{r4, r5, r6, r7, pc}
100021a4:	6a9b      	ldr	r3, [r3, #40]	; 0x28
100021a6:	42a3      	cmp	r3, r4
100021a8:	d330      	bcc.n	1000220c <xPortLockInternalSpinUnlockWithBestEffortWaitOrTimeout+0xd0>
100021aa:	2001      	movs	r0, #1
100021ac:	b003      	add	sp, #12
100021ae:	bdf0      	pop	{r4, r5, r6, r7, pc}
100021b0:	f44f 727a 	mov.w	r2, #1000	; 0x3e8
100021b4:	2300      	movs	r3, #0
100021b6:	f007 fa47 	bl	10009648 <____aeabi_ldivmod_veneer>
100021ba:	2800      	cmp	r0, #0
100021bc:	d0db      	beq.n	10002176 <xPortLockInternalSpinUnlockWithBestEffortWaitOrTimeout+0x3a>
100021be:	2300      	movs	r3, #0
100021c0:	6832      	ldr	r2, [r6, #0]
100021c2:	e8c2 3f8f 	stlb	r3, [r2]
100021c6:	f387 8810 	msr	PRIMASK, r7
100021ca:	2201      	movs	r2, #1
100021cc:	9000      	str	r0, [sp, #0]
100021ce:	6830      	ldr	r0, [r6, #0]
100021d0:	4912      	ldr	r1, [pc, #72]	; (1000221c <xPortLockInternalSpinUnlockWithBestEffortWaitOrTimeout+0xe0>)
100021d2:	1a40      	subs	r0, r0, r1
100021d4:	4912      	ldr	r1, [pc, #72]	; (10002220 <xPortLockInternalSpinUnlockWithBestEffortWaitOrTimeout+0xe4>)
100021d6:	fba1 6100 	umull	r6, r1, r1, r0
100021da:	0909      	lsrs	r1, r1, #4
100021dc:	eb01 0141 	add.w	r1, r1, r1, lsl #1
100021e0:	eba0 01c1 	sub.w	r1, r0, r1, lsl #3
100021e4:	480f      	ldr	r0, [pc, #60]	; (10002224 <xPortLockInternalSpinUnlockWithBestEffortWaitOrTimeout+0xe8>)
100021e6:	fa02 f101 	lsl.w	r1, r2, r1
100021ea:	6800      	ldr	r0, [r0, #0]
100021ec:	f000 f900 	bl	100023f0 <xEventGroupWaitBits>
100021f0:	e7c7      	b.n	10002182 <xPortLockInternalSpinUnlockWithBestEffortWaitOrTimeout+0x46>
100021f2:	2300      	movs	r3, #0
100021f4:	6802      	ldr	r2, [r0, #0]
100021f6:	e8c2 3f8f 	stlb	r3, [r2]
100021fa:	f381 8810 	msr	PRIMASK, r1
100021fe:	4620      	mov	r0, r4
10002200:	4629      	mov	r1, r5
10002202:	b003      	add	sp, #12
10002204:	e8bd 40f0 	ldmia.w	sp!, {r4, r5, r6, r7, lr}
10002208:	f7ff b988 	b.w	1000151c <best_effort_wfe_or_timeout>
1000220c:	4295      	cmp	r5, r2
1000220e:	d0bc      	beq.n	1000218a <xPortLockInternalSpinUnlockWithBestEffortWaitOrTimeout+0x4e>
10002210:	2001      	movs	r0, #1
10002212:	e7cb      	b.n	100021ac <xPortLockInternalSpinUnlockWithBestEffortWaitOrTimeout+0x70>
10002214:	2000126d 	.word	0x2000126d
10002218:	400b0000 	.word	0x400b0000
1000221c:	20001668 	.word	0x20001668
10002220:	aaaaaaab 	.word	0xaaaaaaab
10002224:	2004225c 	.word	0x2004225c

10002228 <prvRuntimeInitializer>:
10002228:	b508      	push	{r3, lr}
1000222a:	f000 f8d3 	bl	100023d4 <xEventGroupCreate>
1000222e:	4b01      	ldr	r3, [pc, #4]	; (10002234 <prvRuntimeInitializer+0xc>)
10002230:	6018      	str	r0, [r3, #0]
10002232:	bd08      	pop	{r3, pc}
10002234:	2004225c 	.word	0x2004225c

10002238 <vYieldCore>:
10002238:	2301      	movs	r3, #1
1000223a:	f04f 4250 	mov.w	r2, #3489660928	; 0xd0000000
1000223e:	4903      	ldr	r1, [pc, #12]	; (1000224c <vYieldCore+0x14>)
10002240:	f991 1000 	ldrsb.w	r1, [r1]
10002244:	408b      	lsls	r3, r1
10002246:	f8c2 3180 	str.w	r3, [r2, #384]	; 0x180
1000224a:	4770      	bx	lr
1000224c:	2000126c 	.word	0x2000126c

10002250 <vRestoreContextOfFirstTask>:
10002250:	a10b      	add	r1, pc, #44	; (adr r1, 10002280 <ulAsmLocals>)
10002252:	c90c      	ldmia	r1!, {r2, r3}
10002254:	6812      	ldr	r2, [r2, #0]
10002256:	f853 1022 	ldr.w	r1, [r3, r2, lsl #2]
1000225a:	6808      	ldr	r0, [r1, #0]
1000225c:	c806      	ldmia	r0!, {r1, r2}
1000225e:	f381 880b 	msr	PSPLIM, r1
10002262:	2102      	movs	r1, #2
10002264:	f381 8814 	msr	CONTROL, r1
10002268:	3020      	adds	r0, #32
1000226a:	f380 8809 	msr	PSP, r0
1000226e:	f3bf 8f6f 	isb	sy
10002272:	f04f 0000 	mov.w	r0, #0
10002276:	f380 8811 	msr	BASEPRI, r0
1000227a:	4710      	bx	r2
1000227c:	f3af 8000 	nop.w

10002280 <ulAsmLocals>:
10002280:	d0000000 	.word	0xd0000000
10002284:	20001f20 	.word	0x20001f20

10002288 <vStartFirstTask>:
10002288:	b662      	cpsie	i
1000228a:	b661      	cpsie	f
1000228c:	f3bf 8f4f 	dsb	sy
10002290:	f3bf 8f6f 	isb	sy
10002294:	df66      	svc	102	; 0x66
10002296:	bf00      	nop

10002298 <ulSetInterruptMask>:
10002298:	f3ef 8011 	mrs	r0, BASEPRI
1000229c:	f04f 0110 	mov.w	r1, #16
100022a0:	f381 8811 	msr	BASEPRI, r1
100022a4:	f3bf 8f4f 	dsb	sy
100022a8:	f3bf 8f6f 	isb	sy
100022ac:	4770      	bx	lr
100022ae:	bf00      	nop

100022b0 <vClearInterruptMask>:
100022b0:	f380 8811 	msr	BASEPRI, r0
100022b4:	f3bf 8f4f 	dsb	sy
100022b8:	f3bf 8f6f 	isb	sy
100022bc:	4770      	bx	lr
100022be:	bf00      	nop

100022c0 <PendSV_Handler>:
100022c0:	f3ef 8109 	mrs	r1, PSP
100022c4:	f01e 0f10 	tst.w	lr, #16
100022c8:	bf08      	it	eq
100022ca:	ed21 8a10 	vstmdbeq	r1!, {s16-s31}
100022ce:	f3ef 820b 	mrs	r2, PSPLIM
100022d2:	4673      	mov	r3, lr
100022d4:	e921 0ffc 	stmdb	r1!, {r2, r3, r4, r5, r6, r7, r8, r9, sl, fp}
100022d8:	fc55 4408 	dcp_pxmd r4, r5
100022dc:	fc57 6409 	dcp_pymd r6, r7
100022e0:	fc59 840a 	dcp_pefd r8, r9
100022e4:	e901 03f0 	stmdb	r1, {r4, r5, r6, r7, r8, r9}
100022e8:	a019      	add	r0, pc, #100	; (adr r0, 10002350 <ulAsmLocals2>)
100022ea:	c80c      	ldmia	r0!, {r2, r3}
100022ec:	6810      	ldr	r0, [r2, #0]
100022ee:	f853 3020 	ldr.w	r3, [r3, r0, lsl #2]
100022f2:	6019      	str	r1, [r3, #0]
100022f4:	f04f 0110 	mov.w	r1, #16
100022f8:	f381 8811 	msr	BASEPRI, r1
100022fc:	f3bf 8f4f 	dsb	sy
10002300:	f3bf 8f6f 	isb	sy
10002304:	f001 f998 	bl	10003638 <vTaskSwitchContext>
10002308:	f04f 0000 	mov.w	r0, #0
1000230c:	f380 8811 	msr	BASEPRI, r0
10002310:	a10f      	add	r1, pc, #60	; (adr r1, 10002350 <ulAsmLocals2>)
10002312:	c90c      	ldmia	r1!, {r2, r3}
10002314:	6812      	ldr	r2, [r2, #0]
10002316:	f853 1022 	ldr.w	r1, [r3, r2, lsl #2]
1000231a:	6808      	ldr	r0, [r1, #0]
1000231c:	3818      	subs	r0, #24
1000231e:	e8b0 03f0 	ldmia.w	r0!, {r4, r5, r6, r7, r8, r9}
10002322:	ec45 4400 	dcp_wxmd r4, r5
10002326:	ec47 6401 	dcp_wymd r6, r7
1000232a:	ec49 8402 	dcp_wefd r8, r9
1000232e:	e8b0 0ffc 	ldmia.w	r0!, {r2, r3, r4, r5, r6, r7, r8, r9, sl, fp}
10002332:	f013 0f10 	tst.w	r3, #16
10002336:	bf08      	it	eq
10002338:	ecb0 8a10 	vldmiaeq	r0!, {s16-s31}
1000233c:	f382 880b 	msr	PSPLIM, r2
10002340:	f380 8809 	msr	PSP, r0
10002344:	4718      	bx	r3
10002346:	bf00      	nop
10002348:	f3af 8000 	nop.w
1000234c:	f3af 8000 	nop.w

10002350 <ulAsmLocals2>:
10002350:	d0000000 	.word	0xd0000000
10002354:	20001f20 	.word	0x20001f20

10002358 <SVC_Handler>:
10002358:	f01e 0f04 	tst.w	lr, #4
1000235c:	bf0c      	ite	eq
1000235e:	f3ef 8008 	mrseq	r0, MSP
10002362:	f3ef 8009 	mrsne	r0, PSP
10002366:	4901      	ldr	r1, [pc, #4]	; (1000236c <SVC_Handler+0x14>)
10002368:	4708      	bx	r1
1000236a:	0000      	.short	0x0000
1000236c:	10001f09 	.word	0x10001f09

10002370 <vEventGroupSetBitsCallback>:
10002370:	e92d 41f0 	stmdb	sp!, {r4, r5, r6, r7, r8, lr}
10002374:	4606      	mov	r6, r0
10002376:	460d      	mov	r5, r1
10002378:	f001 f80e 	bl	10003398 <vTaskSuspendAll>
1000237c:	6833      	ldr	r3, [r6, #0]
1000237e:	6934      	ldr	r4, [r6, #16]
10002380:	f106 070c 	add.w	r7, r6, #12
10002384:	432b      	orrs	r3, r5
10002386:	42a7      	cmp	r7, r4
10002388:	6033      	str	r3, [r6, #0]
1000238a:	d01e      	beq.n	100023ca <vEventGroupSetBitsCallback+0x5a>
1000238c:	f04f 0800 	mov.w	r8, #0
10002390:	e00a      	b.n	100023a8 <vEventGroupSetBitsCallback+0x38>
10002392:	422b      	tst	r3, r5
10002394:	d006      	beq.n	100023a4 <vEventGroupSetBitsCallback+0x34>
10002396:	01d3      	lsls	r3, r2, #7
10002398:	bf48      	it	mi
1000239a:	ea48 0805 	orrmi.w	r8, r8, r5
1000239e:	f002 f89d 	bl	100044dc <vTaskRemoveFromUnorderedEventList>
100023a2:	6833      	ldr	r3, [r6, #0]
100023a4:	42a7      	cmp	r7, r4
100023a6:	d00e      	beq.n	100023c6 <vEventGroupSetBitsCallback+0x56>
100023a8:	4620      	mov	r0, r4
100023aa:	6802      	ldr	r2, [r0, #0]
100023ac:	6864      	ldr	r4, [r4, #4]
100023ae:	f012 6f80 	tst.w	r2, #67108864	; 0x4000000
100023b2:	f043 7100 	orr.w	r1, r3, #33554432	; 0x2000000
100023b6:	f022 457f 	bic.w	r5, r2, #4278190080	; 0xff000000
100023ba:	d0ea      	beq.n	10002392 <vEventGroupSetBitsCallback+0x22>
100023bc:	ea35 0c03 	bics.w	ip, r5, r3
100023c0:	d0e9      	beq.n	10002396 <vEventGroupSetBitsCallback+0x26>
100023c2:	42a7      	cmp	r7, r4
100023c4:	d1f0      	bne.n	100023a8 <vEventGroupSetBitsCallback+0x38>
100023c6:	ea23 0308 	bic.w	r3, r3, r8
100023ca:	6033      	str	r3, [r6, #0]
100023cc:	e8bd 41f0 	ldmia.w	sp!, {r4, r5, r6, r7, r8, lr}
100023d0:	f002 b848 	b.w	10004464 <xTaskResumeAll>

100023d4 <xEventGroupCreate>:
100023d4:	b510      	push	{r4, lr}
100023d6:	201c      	movs	r0, #28
100023d8:	f7ff fbe2 	bl	10001ba0 <pvPortMalloc>
100023dc:	4604      	mov	r4, r0
100023de:	b120      	cbz	r0, 100023ea <xEventGroupCreate+0x16>
100023e0:	2300      	movs	r3, #0
100023e2:	f840 3b04 	str.w	r3, [r0], #4
100023e6:	f000 f89f 	bl	10002528 <vListInitialise>
100023ea:	4620      	mov	r0, r4
100023ec:	bd10      	pop	{r4, pc}
100023ee:	bf00      	nop

100023f0 <xEventGroupWaitBits>:
100023f0:	e92d 41f0 	stmdb	sp!, {r4, r5, r6, r7, r8, lr}
100023f4:	4606      	mov	r6, r0
100023f6:	461f      	mov	r7, r3
100023f8:	460d      	mov	r5, r1
100023fa:	4690      	mov	r8, r2
100023fc:	f000 ffcc 	bl	10003398 <vTaskSuspendAll>
10002400:	6834      	ldr	r4, [r6, #0]
10002402:	b967      	cbnz	r7, 1000241e <xEventGroupWaitBits+0x2e>
10002404:	422c      	tst	r4, r5
10002406:	d00d      	beq.n	10002424 <xEventGroupWaitBits+0x34>
10002408:	f1b8 0f00 	cmp.w	r8, #0
1000240c:	d00c      	beq.n	10002428 <xEventGroupWaitBits+0x38>
1000240e:	ea24 0505 	bic.w	r5, r4, r5
10002412:	6035      	str	r5, [r6, #0]
10002414:	f002 f826 	bl	10004464 <xTaskResumeAll>
10002418:	4620      	mov	r0, r4
1000241a:	e8bd 81f0 	ldmia.w	sp!, {r4, r5, r6, r7, r8, pc}
1000241e:	ea35 0304 	bics.w	r3, r5, r4
10002422:	d0f1      	beq.n	10002408 <xEventGroupWaitBits+0x18>
10002424:	9b06      	ldr	r3, [sp, #24]
10002426:	b923      	cbnz	r3, 10002432 <xEventGroupWaitBits+0x42>
10002428:	f002 f81c 	bl	10004464 <xTaskResumeAll>
1000242c:	4620      	mov	r0, r4
1000242e:	e8bd 81f0 	ldmia.w	sp!, {r4, r5, r6, r7, r8, pc}
10002432:	f1b8 0f00 	cmp.w	r8, #0
10002436:	461a      	mov	r2, r3
10002438:	bf0b      	itete	eq
1000243a:	f04f 6180 	moveq.w	r1, #67108864	; 0x4000000
1000243e:	f04f 61a0 	movne.w	r1, #83886080	; 0x5000000
10002442:	2300      	moveq	r3, #0
10002444:	f04f 7380 	movne.w	r3, #16777216	; 0x1000000
10002448:	2f00      	cmp	r7, #0
1000244a:	bf08      	it	eq
1000244c:	4619      	moveq	r1, r3
1000244e:	1d30      	adds	r0, r6, #4
10002450:	4329      	orrs	r1, r5
10002452:	f001 fa87 	bl	10003964 <vTaskPlaceOnUnorderedEventList>
10002456:	f002 f805 	bl	10004464 <xTaskResumeAll>
1000245a:	b148      	cbz	r0, 10002470 <xEventGroupWaitBits+0x80>
1000245c:	f002 f9a8 	bl	100047b0 <uxTaskResetEventItemValue>
10002460:	0183      	lsls	r3, r0, #6
10002462:	4604      	mov	r4, r0
10002464:	d50b      	bpl.n	1000247e <xEventGroupWaitBits+0x8e>
10002466:	f024 447f 	bic.w	r4, r4, #4278190080	; 0xff000000
1000246a:	4620      	mov	r0, r4
1000246c:	e8bd 81f0 	ldmia.w	sp!, {r4, r5, r6, r7, r8, pc}
10002470:	f001 fc02 	bl	10003c78 <vTaskYieldWithinAPI>
10002474:	f002 f99c 	bl	100047b0 <uxTaskResetEventItemValue>
10002478:	0183      	lsls	r3, r0, #6
1000247a:	4604      	mov	r4, r0
1000247c:	d4f3      	bmi.n	10002466 <xEventGroupWaitBits+0x76>
1000247e:	f001 fc0d 	bl	10003c9c <vTaskEnterCritical>
10002482:	6834      	ldr	r4, [r6, #0]
10002484:	b957      	cbnz	r7, 1000249c <xEventGroupWaitBits+0xac>
10002486:	4225      	tst	r5, r4
10002488:	d005      	beq.n	10002496 <xEventGroupWaitBits+0xa6>
1000248a:	f1b8 0f00 	cmp.w	r8, #0
1000248e:	d002      	beq.n	10002496 <xEventGroupWaitBits+0xa6>
10002490:	ea24 0505 	bic.w	r5, r4, r5
10002494:	6035      	str	r5, [r6, #0]
10002496:	f002 f90d 	bl	100046b4 <vTaskExitCritical>
1000249a:	e7e4      	b.n	10002466 <xEventGroupWaitBits+0x76>
1000249c:	ea35 0304 	bics.w	r3, r5, r4
100024a0:	d1f9      	bne.n	10002496 <xEventGroupWaitBits+0xa6>
100024a2:	e7f2      	b.n	1000248a <xEventGroupWaitBits+0x9a>

100024a4 <xEventGroupSetBits>:
100024a4:	e92d 41f0 	stmdb	sp!, {r4, r5, r6, r7, r8, lr}
100024a8:	4606      	mov	r6, r0
100024aa:	460d      	mov	r5, r1
100024ac:	f000 ff74 	bl	10003398 <vTaskSuspendAll>
100024b0:	6833      	ldr	r3, [r6, #0]
100024b2:	6934      	ldr	r4, [r6, #16]
100024b4:	f106 070c 	add.w	r7, r6, #12
100024b8:	432b      	orrs	r3, r5
100024ba:	42a7      	cmp	r7, r4
100024bc:	6033      	str	r3, [r6, #0]
100024be:	d01e      	beq.n	100024fe <xEventGroupSetBits+0x5a>
100024c0:	f04f 0800 	mov.w	r8, #0
100024c4:	e00a      	b.n	100024dc <xEventGroupSetBits+0x38>
100024c6:	421d      	tst	r5, r3
100024c8:	d006      	beq.n	100024d8 <xEventGroupSetBits+0x34>
100024ca:	01d3      	lsls	r3, r2, #7
100024cc:	bf48      	it	mi
100024ce:	ea48 0805 	orrmi.w	r8, r8, r5
100024d2:	f002 f803 	bl	100044dc <vTaskRemoveFromUnorderedEventList>
100024d6:	6833      	ldr	r3, [r6, #0]
100024d8:	42a7      	cmp	r7, r4
100024da:	d00e      	beq.n	100024fa <xEventGroupSetBits+0x56>
100024dc:	4620      	mov	r0, r4
100024de:	6802      	ldr	r2, [r0, #0]
100024e0:	6864      	ldr	r4, [r4, #4]
100024e2:	f012 6f80 	tst.w	r2, #67108864	; 0x4000000
100024e6:	f043 7100 	orr.w	r1, r3, #33554432	; 0x2000000
100024ea:	f022 457f 	bic.w	r5, r2, #4278190080	; 0xff000000
100024ee:	d0ea      	beq.n	100024c6 <xEventGroupSetBits+0x22>
100024f0:	ea35 0c03 	bics.w	ip, r5, r3
100024f4:	d0e9      	beq.n	100024ca <xEventGroupSetBits+0x26>
100024f6:	42a7      	cmp	r7, r4
100024f8:	d1f0      	bne.n	100024dc <xEventGroupSetBits+0x38>
100024fa:	ea23 0308 	bic.w	r3, r3, r8
100024fe:	6033      	str	r3, [r6, #0]
10002500:	f001 ffb0 	bl	10004464 <xTaskResumeAll>
10002504:	6830      	ldr	r0, [r6, #0]
10002506:	e8bd 81f0 	ldmia.w	sp!, {r4, r5, r6, r7, r8, pc}
1000250a:	bf00      	nop

1000250c <xEventGroupSetBitsFromISR>:
1000250c:	468c      	mov	ip, r1
1000250e:	b500      	push	{lr}
10002510:	4686      	mov	lr, r0
10002512:	4613      	mov	r3, r2
10002514:	4671      	mov	r1, lr
10002516:	4662      	mov	r2, ip
10002518:	4802      	ldr	r0, [pc, #8]	; (10002524 <xEventGroupSetBitsFromISR+0x18>)
1000251a:	f85d eb04 	ldr.w	lr, [sp], #4
1000251e:	f002 bb65 	b.w	10004bec <xTimerPendFunctionCallFromISR>
10002522:	bf00      	nop
10002524:	10002371 	.word	0x10002371

10002528 <vListInitialise>:
10002528:	f04f 31ff 	mov.w	r1, #4294967295
1000252c:	2200      	movs	r2, #0
1000252e:	f100 0308 	add.w	r3, r0, #8
10002532:	e9c0 3101 	strd	r3, r1, [r0, #4]
10002536:	e9c0 3303 	strd	r3, r3, [r0, #12]
1000253a:	6002      	str	r2, [r0, #0]
1000253c:	4770      	bx	lr
1000253e:	bf00      	nop

10002540 <vListInitialiseItem>:
10002540:	2300      	movs	r3, #0
10002542:	6103      	str	r3, [r0, #16]
10002544:	4770      	bx	lr
10002546:	bf00      	nop

10002548 <vListInsertEnd>:
10002548:	e9d0 2300 	ldrd	r2, r3, [r0]
1000254c:	b410      	push	{r4}
1000254e:	689c      	ldr	r4, [r3, #8]
10002550:	3201      	adds	r2, #1
10002552:	608c      	str	r4, [r1, #8]
10002554:	689c      	ldr	r4, [r3, #8]
10002556:	604b      	str	r3, [r1, #4]
10002558:	6061      	str	r1, [r4, #4]
1000255a:	6099      	str	r1, [r3, #8]
1000255c:	f85d 4b04 	ldr.w	r4, [sp], #4
10002560:	6108      	str	r0, [r1, #16]
10002562:	6002      	str	r2, [r0, #0]
10002564:	4770      	bx	lr
10002566:	bf00      	nop

10002568 <vListInsert>:
10002568:	b430      	push	{r4, r5}
1000256a:	680d      	ldr	r5, [r1, #0]
1000256c:	1c6b      	adds	r3, r5, #1
1000256e:	d010      	beq.n	10002592 <vListInsert+0x2a>
10002570:	f100 0308 	add.w	r3, r0, #8
10002574:	461c      	mov	r4, r3
10002576:	685b      	ldr	r3, [r3, #4]
10002578:	681a      	ldr	r2, [r3, #0]
1000257a:	42aa      	cmp	r2, r5
1000257c:	d9fa      	bls.n	10002574 <vListInsert+0xc>
1000257e:	6802      	ldr	r2, [r0, #0]
10002580:	604b      	str	r3, [r1, #4]
10002582:	3201      	adds	r2, #1
10002584:	6099      	str	r1, [r3, #8]
10002586:	608c      	str	r4, [r1, #8]
10002588:	6061      	str	r1, [r4, #4]
1000258a:	6108      	str	r0, [r1, #16]
1000258c:	bc30      	pop	{r4, r5}
1000258e:	6002      	str	r2, [r0, #0]
10002590:	4770      	bx	lr
10002592:	6904      	ldr	r4, [r0, #16]
10002594:	6863      	ldr	r3, [r4, #4]
10002596:	e7f2      	b.n	1000257e <vListInsert+0x16>

10002598 <uxListRemove>:
10002598:	4603      	mov	r3, r0
1000259a:	6902      	ldr	r2, [r0, #16]
1000259c:	b410      	push	{r4}
1000259e:	6854      	ldr	r4, [r2, #4]
100025a0:	6840      	ldr	r0, [r0, #4]
100025a2:	6899      	ldr	r1, [r3, #8]
100025a4:	429c      	cmp	r4, r3
100025a6:	6081      	str	r1, [r0, #8]
100025a8:	6048      	str	r0, [r1, #4]
100025aa:	bf08      	it	eq
100025ac:	6051      	streq	r1, [r2, #4]
100025ae:	2100      	movs	r1, #0
100025b0:	6810      	ldr	r0, [r2, #0]
100025b2:	f85d 4b04 	ldr.w	r4, [sp], #4
100025b6:	3801      	subs	r0, #1
100025b8:	6119      	str	r1, [r3, #16]
100025ba:	6010      	str	r0, [r2, #0]
100025bc:	4770      	bx	lr
100025be:	bf00      	nop

100025c0 <prvCopyDataToQueue>:
100025c0:	b570      	push	{r4, r5, r6, lr}
100025c2:	4615      	mov	r5, r2
100025c4:	6c02      	ldr	r2, [r0, #64]	; 0x40
100025c6:	4604      	mov	r4, r0
100025c8:	6b86      	ldr	r6, [r0, #56]	; 0x38
100025ca:	b92a      	cbnz	r2, 100025d8 <prvCopyDataToQueue+0x18>
100025cc:	6805      	ldr	r5, [r0, #0]
100025ce:	b34d      	cbz	r5, 10002624 <prvCopyDataToQueue+0x64>
100025d0:	2000      	movs	r0, #0
100025d2:	3601      	adds	r6, #1
100025d4:	63a6      	str	r6, [r4, #56]	; 0x38
100025d6:	bd70      	pop	{r4, r5, r6, pc}
100025d8:	b97d      	cbnz	r5, 100025fa <prvCopyDataToQueue+0x3a>
100025da:	6840      	ldr	r0, [r0, #4]
100025dc:	f006 ff14 	bl	10009408 <memcpy>
100025e0:	6863      	ldr	r3, [r4, #4]
100025e2:	6c22      	ldr	r2, [r4, #64]	; 0x40
100025e4:	4413      	add	r3, r2
100025e6:	68a2      	ldr	r2, [r4, #8]
100025e8:	6063      	str	r3, [r4, #4]
100025ea:	4293      	cmp	r3, r2
100025ec:	d3f0      	bcc.n	100025d0 <prvCopyDataToQueue+0x10>
100025ee:	6823      	ldr	r3, [r4, #0]
100025f0:	3601      	adds	r6, #1
100025f2:	4628      	mov	r0, r5
100025f4:	6063      	str	r3, [r4, #4]
100025f6:	63a6      	str	r6, [r4, #56]	; 0x38
100025f8:	bd70      	pop	{r4, r5, r6, pc}
100025fa:	68c0      	ldr	r0, [r0, #12]
100025fc:	f006 ff04 	bl	10009408 <memcpy>
10002600:	6c22      	ldr	r2, [r4, #64]	; 0x40
10002602:	68e3      	ldr	r3, [r4, #12]
10002604:	4251      	negs	r1, r2
10002606:	1a9b      	subs	r3, r3, r2
10002608:	6822      	ldr	r2, [r4, #0]
1000260a:	60e3      	str	r3, [r4, #12]
1000260c:	4293      	cmp	r3, r2
1000260e:	d202      	bcs.n	10002616 <prvCopyDataToQueue+0x56>
10002610:	68a3      	ldr	r3, [r4, #8]
10002612:	440b      	add	r3, r1
10002614:	60e3      	str	r3, [r4, #12]
10002616:	2d02      	cmp	r5, #2
10002618:	d1da      	bne.n	100025d0 <prvCopyDataToQueue+0x10>
1000261a:	2e01      	cmp	r6, #1
1000261c:	bf38      	it	cc
1000261e:	2601      	movcc	r6, #1
10002620:	2000      	movs	r0, #0
10002622:	e7d7      	b.n	100025d4 <prvCopyDataToQueue+0x14>
10002624:	6880      	ldr	r0, [r0, #8]
10002626:	f001 fac5 	bl	10003bb4 <xTaskPriorityDisinherit>
1000262a:	3601      	adds	r6, #1
1000262c:	60a5      	str	r5, [r4, #8]
1000262e:	e7d1      	b.n	100025d4 <prvCopyDataToQueue+0x14>

10002630 <prvUnlockQueue>:
10002630:	e92d 47f0 	stmdb	sp!, {r4, r5, r6, r7, r8, r9, sl, lr}
10002634:	4606      	mov	r6, r0
10002636:	b084      	sub	sp, #16
10002638:	f001 fb30 	bl	10003c9c <vTaskEnterCritical>
1000263c:	f896 3045 	ldrb.w	r3, [r6, #69]	; 0x45
10002640:	b25d      	sxtb	r5, r3
10002642:	2d00      	cmp	r5, #0
10002644:	dd1c      	ble.n	10002680 <prvUnlockQueue+0x50>
10002646:	f106 0724 	add.w	r7, r6, #36	; 0x24
1000264a:	e008      	b.n	1000265e <prvUnlockQueue+0x2e>
1000264c:	6ba2      	ldr	r2, [r4, #56]	; 0x38
1000264e:	6be3      	ldr	r3, [r4, #60]	; 0x3c
10002650:	9603      	str	r6, [sp, #12]
10002652:	429a      	cmp	r2, r3
10002654:	d33d      	bcc.n	100026d2 <prvUnlockQueue+0xa2>
10002656:	1e6b      	subs	r3, r5, #1
10002658:	b2da      	uxtb	r2, r3
1000265a:	b25d      	sxtb	r5, r3
1000265c:	b182      	cbz	r2, 10002680 <prvUnlockQueue+0x50>
1000265e:	6cb4      	ldr	r4, [r6, #72]	; 0x48
10002660:	2c00      	cmp	r4, #0
10002662:	d1f3      	bne.n	1000264c <prvUnlockQueue+0x1c>
10002664:	6a73      	ldr	r3, [r6, #36]	; 0x24
10002666:	b15b      	cbz	r3, 10002680 <prvUnlockQueue+0x50>
10002668:	4638      	mov	r0, r7
1000266a:	f001 fa19 	bl	10003aa0 <xTaskRemoveFromEventList>
1000266e:	2800      	cmp	r0, #0
10002670:	d0f1      	beq.n	10002656 <prvUnlockQueue+0x26>
10002672:	f001 fa85 	bl	10003b80 <vTaskMissedYield>
10002676:	1e6b      	subs	r3, r5, #1
10002678:	b2da      	uxtb	r2, r3
1000267a:	b25d      	sxtb	r5, r3
1000267c:	2a00      	cmp	r2, #0
1000267e:	d1ee      	bne.n	1000265e <prvUnlockQueue+0x2e>
10002680:	23ff      	movs	r3, #255	; 0xff
10002682:	f886 3045 	strb.w	r3, [r6, #69]	; 0x45
10002686:	f002 f815 	bl	100046b4 <vTaskExitCritical>
1000268a:	f001 fb07 	bl	10003c9c <vTaskEnterCritical>
1000268e:	f896 3044 	ldrb.w	r3, [r6, #68]	; 0x44
10002692:	b25c      	sxtb	r4, r3
10002694:	2c00      	cmp	r4, #0
10002696:	dd14      	ble.n	100026c2 <prvUnlockQueue+0x92>
10002698:	f106 0510 	add.w	r5, r6, #16
1000269c:	e003      	b.n	100026a6 <prvUnlockQueue+0x76>
1000269e:	1e63      	subs	r3, r4, #1
100026a0:	b2da      	uxtb	r2, r3
100026a2:	b25c      	sxtb	r4, r3
100026a4:	b16a      	cbz	r2, 100026c2 <prvUnlockQueue+0x92>
100026a6:	6933      	ldr	r3, [r6, #16]
100026a8:	b15b      	cbz	r3, 100026c2 <prvUnlockQueue+0x92>
100026aa:	4628      	mov	r0, r5
100026ac:	f001 f9f8 	bl	10003aa0 <xTaskRemoveFromEventList>
100026b0:	2800      	cmp	r0, #0
100026b2:	d0f4      	beq.n	1000269e <prvUnlockQueue+0x6e>
100026b4:	f001 fa64 	bl	10003b80 <vTaskMissedYield>
100026b8:	1e63      	subs	r3, r4, #1
100026ba:	b2da      	uxtb	r2, r3
100026bc:	b25c      	sxtb	r4, r3
100026be:	2a00      	cmp	r2, #0
100026c0:	d1f1      	bne.n	100026a6 <prvUnlockQueue+0x76>
100026c2:	23ff      	movs	r3, #255	; 0xff
100026c4:	f886 3044 	strb.w	r3, [r6, #68]	; 0x44
100026c8:	b004      	add	sp, #16
100026ca:	e8bd 47f0 	ldmia.w	sp!, {r4, r5, r6, r7, r8, r9, sl, lr}
100026ce:	f001 bff1 	b.w	100046b4 <vTaskExitCritical>
100026d2:	f894 8045 	ldrb.w	r8, [r4, #69]	; 0x45
100026d6:	6c22      	ldr	r2, [r4, #64]	; 0x40
100026d8:	f8d4 9038 	ldr.w	r9, [r4, #56]	; 0x38
100026dc:	fa4f f888 	sxtb.w	r8, r8
100026e0:	b992      	cbnz	r2, 10002708 <prvUnlockQueue+0xd8>
100026e2:	6823      	ldr	r3, [r4, #0]
100026e4:	2b00      	cmp	r3, #0
100026e6:	d03b      	beq.n	10002760 <prvUnlockQueue+0x130>
100026e8:	f04f 0a00 	mov.w	sl, #0
100026ec:	f109 0301 	add.w	r3, r9, #1
100026f0:	f1b8 3fff 	cmp.w	r8, #4294967295
100026f4:	63a3      	str	r3, [r4, #56]	; 0x38
100026f6:	d11c      	bne.n	10002732 <prvUnlockQueue+0x102>
100026f8:	6a63      	ldr	r3, [r4, #36]	; 0x24
100026fa:	bb43      	cbnz	r3, 1000274e <prvUnlockQueue+0x11e>
100026fc:	f1ba 0f00 	cmp.w	sl, #0
10002700:	d0a9      	beq.n	10002656 <prvUnlockQueue+0x26>
10002702:	f001 fa3d 	bl	10003b80 <vTaskMissedYield>
10002706:	e7b6      	b.n	10002676 <prvUnlockQueue+0x46>
10002708:	6860      	ldr	r0, [r4, #4]
1000270a:	a903      	add	r1, sp, #12
1000270c:	f006 fe7c 	bl	10009408 <memcpy>
10002710:	6863      	ldr	r3, [r4, #4]
10002712:	6c22      	ldr	r2, [r4, #64]	; 0x40
10002714:	4413      	add	r3, r2
10002716:	68a2      	ldr	r2, [r4, #8]
10002718:	6063      	str	r3, [r4, #4]
1000271a:	4293      	cmp	r3, r2
1000271c:	d3e4      	bcc.n	100026e8 <prvUnlockQueue+0xb8>
1000271e:	6823      	ldr	r3, [r4, #0]
10002720:	f1b8 3fff 	cmp.w	r8, #4294967295
10002724:	6063      	str	r3, [r4, #4]
10002726:	f109 0301 	add.w	r3, r9, #1
1000272a:	f04f 0a00 	mov.w	sl, #0
1000272e:	63a3      	str	r3, [r4, #56]	; 0x38
10002730:	d0e2      	beq.n	100026f8 <prvUnlockQueue+0xc8>
10002732:	f000 fe3f 	bl	100033b4 <uxTaskGetNumberOfTasks>
10002736:	4540      	cmp	r0, r8
10002738:	d9e0      	bls.n	100026fc <prvUnlockQueue+0xcc>
1000273a:	f108 0801 	add.w	r8, r8, #1
1000273e:	fa4f f888 	sxtb.w	r8, r8
10002742:	f884 8045 	strb.w	r8, [r4, #69]	; 0x45
10002746:	f1ba 0f00 	cmp.w	sl, #0
1000274a:	d1da      	bne.n	10002702 <prvUnlockQueue+0xd2>
1000274c:	e783      	b.n	10002656 <prvUnlockQueue+0x26>
1000274e:	f104 0024 	add.w	r0, r4, #36	; 0x24
10002752:	f001 f9a5 	bl	10003aa0 <xTaskRemoveFromEventList>
10002756:	2800      	cmp	r0, #0
10002758:	d0d0      	beq.n	100026fc <prvUnlockQueue+0xcc>
1000275a:	f001 fa11 	bl	10003b80 <vTaskMissedYield>
1000275e:	e78a      	b.n	10002676 <prvUnlockQueue+0x46>
10002760:	68a0      	ldr	r0, [r4, #8]
10002762:	9301      	str	r3, [sp, #4]
10002764:	f001 fa26 	bl	10003bb4 <xTaskPriorityDisinherit>
10002768:	9b01      	ldr	r3, [sp, #4]
1000276a:	4682      	mov	sl, r0
1000276c:	60a3      	str	r3, [r4, #8]
1000276e:	e7bd      	b.n	100026ec <prvUnlockQueue+0xbc>

10002770 <prvNotifyQueueSetContainer>:
10002770:	b5f0      	push	{r4, r5, r6, r7, lr}
10002772:	6c84      	ldr	r4, [r0, #72]	; 0x48
10002774:	b083      	sub	sp, #12
10002776:	6ba2      	ldr	r2, [r4, #56]	; 0x38
10002778:	6be3      	ldr	r3, [r4, #60]	; 0x3c
1000277a:	9001      	str	r0, [sp, #4]
1000277c:	429a      	cmp	r2, r3
1000277e:	d303      	bcc.n	10002788 <prvNotifyQueueSetContainer+0x18>
10002780:	2500      	movs	r5, #0
10002782:	4628      	mov	r0, r5
10002784:	b003      	add	sp, #12
10002786:	bdf0      	pop	{r4, r5, r6, r7, pc}
10002788:	f894 6045 	ldrb.w	r6, [r4, #69]	; 0x45
1000278c:	6c22      	ldr	r2, [r4, #64]	; 0x40
1000278e:	6ba7      	ldr	r7, [r4, #56]	; 0x38
10002790:	b276      	sxtb	r6, r6
10002792:	b1e2      	cbz	r2, 100027ce <prvNotifyQueueSetContainer+0x5e>
10002794:	6860      	ldr	r0, [r4, #4]
10002796:	a901      	add	r1, sp, #4
10002798:	f006 fe36 	bl	10009408 <memcpy>
1000279c:	6862      	ldr	r2, [r4, #4]
1000279e:	6c23      	ldr	r3, [r4, #64]	; 0x40
100027a0:	441a      	add	r2, r3
100027a2:	68a3      	ldr	r3, [r4, #8]
100027a4:	6062      	str	r2, [r4, #4]
100027a6:	429a      	cmp	r2, r3
100027a8:	d313      	bcc.n	100027d2 <prvNotifyQueueSetContainer+0x62>
100027aa:	2500      	movs	r5, #0
100027ac:	6823      	ldr	r3, [r4, #0]
100027ae:	6063      	str	r3, [r4, #4]
100027b0:	3701      	adds	r7, #1
100027b2:	1c73      	adds	r3, r6, #1
100027b4:	63a7      	str	r7, [r4, #56]	; 0x38
100027b6:	d112      	bne.n	100027de <prvNotifyQueueSetContainer+0x6e>
100027b8:	6a63      	ldr	r3, [r4, #36]	; 0x24
100027ba:	2b00      	cmp	r3, #0
100027bc:	d0e1      	beq.n	10002782 <prvNotifyQueueSetContainer+0x12>
100027be:	f104 0024 	add.w	r0, r4, #36	; 0x24
100027c2:	f001 f96d 	bl	10003aa0 <xTaskRemoveFromEventList>
100027c6:	2800      	cmp	r0, #0
100027c8:	bf18      	it	ne
100027ca:	2501      	movne	r5, #1
100027cc:	e7d9      	b.n	10002782 <prvNotifyQueueSetContainer+0x12>
100027ce:	6825      	ldr	r5, [r4, #0]
100027d0:	b175      	cbz	r5, 100027f0 <prvNotifyQueueSetContainer+0x80>
100027d2:	3701      	adds	r7, #1
100027d4:	1c73      	adds	r3, r6, #1
100027d6:	f04f 0500 	mov.w	r5, #0
100027da:	63a7      	str	r7, [r4, #56]	; 0x38
100027dc:	d0ec      	beq.n	100027b8 <prvNotifyQueueSetContainer+0x48>
100027de:	f000 fde9 	bl	100033b4 <uxTaskGetNumberOfTasks>
100027e2:	4286      	cmp	r6, r0
100027e4:	d2cd      	bcs.n	10002782 <prvNotifyQueueSetContainer+0x12>
100027e6:	3601      	adds	r6, #1
100027e8:	b276      	sxtb	r6, r6
100027ea:	f884 6045 	strb.w	r6, [r4, #69]	; 0x45
100027ee:	e7c8      	b.n	10002782 <prvNotifyQueueSetContainer+0x12>
100027f0:	68a0      	ldr	r0, [r4, #8]
100027f2:	f001 f9df 	bl	10003bb4 <xTaskPriorityDisinherit>
100027f6:	60a5      	str	r5, [r4, #8]
100027f8:	4605      	mov	r5, r0
100027fa:	e7d9      	b.n	100027b0 <prvNotifyQueueSetContainer+0x40>

100027fc <xQueueGenericCreate>:
100027fc:	b5f8      	push	{r3, r4, r5, r6, r7, lr}
100027fe:	b3c0      	cbz	r0, 10002872 <xQueueGenericCreate+0x76>
10002800:	4617      	mov	r7, r2
10002802:	fba0 2301 	umull	r2, r3, r0, r1
10002806:	4605      	mov	r5, r0
10002808:	460e      	mov	r6, r1
1000280a:	bb93      	cbnz	r3, 10002872 <xQueueGenericCreate+0x76>
1000280c:	fb01 f000 	mul.w	r0, r1, r0
10002810:	f110 0f55 	cmn.w	r0, #85	; 0x55
10002814:	d82d      	bhi.n	10002872 <xQueueGenericCreate+0x76>
10002816:	3054      	adds	r0, #84	; 0x54
10002818:	f7ff f9c2 	bl	10001ba0 <pvPortMalloc>
1000281c:	4604      	mov	r4, r0
1000281e:	b340      	cbz	r0, 10002872 <xQueueGenericCreate+0x76>
10002820:	b356      	cbz	r6, 10002878 <xQueueGenericCreate+0x7c>
10002822:	f100 0354 	add.w	r3, r0, #84	; 0x54
10002826:	e9c4 560f 	strd	r5, r6, [r4, #60]	; 0x3c
1000282a:	6023      	str	r3, [r4, #0]
1000282c:	f001 fa36 	bl	10003c9c <vTaskEnterCritical>
10002830:	e9d4 310f 	ldrd	r3, r1, [r4, #60]	; 0x3c
10002834:	fb01 f303 	mul.w	r3, r1, r3
10002838:	6822      	ldr	r2, [r4, #0]
1000283a:	1a59      	subs	r1, r3, r1
1000283c:	4413      	add	r3, r2
1000283e:	2500      	movs	r5, #0
10002840:	60a3      	str	r3, [r4, #8]
10002842:	23ff      	movs	r3, #255	; 0xff
10002844:	6062      	str	r2, [r4, #4]
10002846:	440a      	add	r2, r1
10002848:	60e2      	str	r2, [r4, #12]
1000284a:	63a5      	str	r5, [r4, #56]	; 0x38
1000284c:	f104 0010 	add.w	r0, r4, #16
10002850:	f884 3044 	strb.w	r3, [r4, #68]	; 0x44
10002854:	f884 3045 	strb.w	r3, [r4, #69]	; 0x45
10002858:	f7ff fe66 	bl	10002528 <vListInitialise>
1000285c:	f104 0024 	add.w	r0, r4, #36	; 0x24
10002860:	f7ff fe62 	bl	10002528 <vListInitialise>
10002864:	f001 ff26 	bl	100046b4 <vTaskExitCritical>
10002868:	f884 7050 	strb.w	r7, [r4, #80]	; 0x50
1000286c:	4620      	mov	r0, r4
1000286e:	64a5      	str	r5, [r4, #72]	; 0x48
10002870:	bdf8      	pop	{r3, r4, r5, r6, r7, pc}
10002872:	2400      	movs	r4, #0
10002874:	4620      	mov	r0, r4
10002876:	bdf8      	pop	{r3, r4, r5, r6, r7, pc}
10002878:	4603      	mov	r3, r0
1000287a:	e7d4      	b.n	10002826 <xQueueGenericCreate+0x2a>

1000287c <xQueueGenericSend>:
1000287c:	e92d 43f0 	stmdb	sp!, {r4, r5, r6, r7, r8, r9, lr}
10002880:	2600      	movs	r6, #0
10002882:	b085      	sub	sp, #20
10002884:	4604      	mov	r4, r0
10002886:	4689      	mov	r9, r1
10002888:	461f      	mov	r7, r3
1000288a:	46b0      	mov	r8, r6
1000288c:	9201      	str	r2, [sp, #4]
1000288e:	e007      	b.n	100028a0 <xQueueGenericSend+0x24>
10002890:	f001 ff10 	bl	100046b4 <vTaskExitCritical>
10002894:	4620      	mov	r0, r4
10002896:	f7ff fecb 	bl	10002630 <prvUnlockQueue>
1000289a:	f001 fde3 	bl	10004464 <xTaskResumeAll>
1000289e:	2601      	movs	r6, #1
100028a0:	f001 f9fc 	bl	10003c9c <vTaskEnterCritical>
100028a4:	6ba0      	ldr	r0, [r4, #56]	; 0x38
100028a6:	6be2      	ldr	r2, [r4, #60]	; 0x3c
100028a8:	4290      	cmp	r0, r2
100028aa:	d33a      	bcc.n	10002922 <xQueueGenericSend+0xa6>
100028ac:	2f02      	cmp	r7, #2
100028ae:	d04c      	beq.n	1000294a <xQueueGenericSend+0xce>
100028b0:	9d01      	ldr	r5, [sp, #4]
100028b2:	2d00      	cmp	r5, #0
100028b4:	d054      	beq.n	10002960 <xQueueGenericSend+0xe4>
100028b6:	b386      	cbz	r6, 1000291a <xQueueGenericSend+0x9e>
100028b8:	f001 fefc 	bl	100046b4 <vTaskExitCritical>
100028bc:	f000 fd6c 	bl	10003398 <vTaskSuspendAll>
100028c0:	f001 f9ec 	bl	10003c9c <vTaskEnterCritical>
100028c4:	f894 3044 	ldrb.w	r3, [r4, #68]	; 0x44
100028c8:	2bff      	cmp	r3, #255	; 0xff
100028ca:	bf08      	it	eq
100028cc:	f884 8044 	strbeq.w	r8, [r4, #68]	; 0x44
100028d0:	f894 3045 	ldrb.w	r3, [r4, #69]	; 0x45
100028d4:	2bff      	cmp	r3, #255	; 0xff
100028d6:	bf08      	it	eq
100028d8:	f884 8045 	strbeq.w	r8, [r4, #69]	; 0x45
100028dc:	f001 feea 	bl	100046b4 <vTaskExitCritical>
100028e0:	a901      	add	r1, sp, #4
100028e2:	a802      	add	r0, sp, #8
100028e4:	f001 fe48 	bl	10004578 <xTaskCheckForTimeOut>
100028e8:	2800      	cmp	r0, #0
100028ea:	d13f      	bne.n	1000296c <xQueueGenericSend+0xf0>
100028ec:	f001 f9d6 	bl	10003c9c <vTaskEnterCritical>
100028f0:	6ba2      	ldr	r2, [r4, #56]	; 0x38
100028f2:	6be3      	ldr	r3, [r4, #60]	; 0x3c
100028f4:	429a      	cmp	r2, r3
100028f6:	d1cb      	bne.n	10002890 <xQueueGenericSend+0x14>
100028f8:	f001 fedc 	bl	100046b4 <vTaskExitCritical>
100028fc:	9901      	ldr	r1, [sp, #4]
100028fe:	f104 0010 	add.w	r0, r4, #16
10002902:	f001 f815 	bl	10003930 <vTaskPlaceOnEventList>
10002906:	4620      	mov	r0, r4
10002908:	f7ff fe92 	bl	10002630 <prvUnlockQueue>
1000290c:	f001 fdaa 	bl	10004464 <xTaskResumeAll>
10002910:	2800      	cmp	r0, #0
10002912:	d1c4      	bne.n	1000289e <xQueueGenericSend+0x22>
10002914:	f001 f9b0 	bl	10003c78 <vTaskYieldWithinAPI>
10002918:	e7c1      	b.n	1000289e <xQueueGenericSend+0x22>
1000291a:	a802      	add	r0, sp, #8
1000291c:	f001 f924 	bl	10003b68 <vTaskInternalSetTimeOutState>
10002920:	e7ca      	b.n	100028b8 <xQueueGenericSend+0x3c>
10002922:	463a      	mov	r2, r7
10002924:	4649      	mov	r1, r9
10002926:	4620      	mov	r0, r4
10002928:	6ba5      	ldr	r5, [r4, #56]	; 0x38
1000292a:	f7ff fe49 	bl	100025c0 <prvCopyDataToQueue>
1000292e:	6ca3      	ldr	r3, [r4, #72]	; 0x48
10002930:	b32b      	cbz	r3, 1000297e <xQueueGenericSend+0x102>
10002932:	2f02      	cmp	r7, #2
10002934:	d011      	beq.n	1000295a <xQueueGenericSend+0xde>
10002936:	4620      	mov	r0, r4
10002938:	f7ff ff1a 	bl	10002770 <prvNotifyQueueSetContainer>
1000293c:	bb18      	cbnz	r0, 10002986 <xQueueGenericSend+0x10a>
1000293e:	f001 feb9 	bl	100046b4 <vTaskExitCritical>
10002942:	2001      	movs	r0, #1
10002944:	b005      	add	sp, #20
10002946:	e8bd 83f0 	ldmia.w	sp!, {r4, r5, r6, r7, r8, r9, pc}
1000294a:	463a      	mov	r2, r7
1000294c:	4649      	mov	r1, r9
1000294e:	4620      	mov	r0, r4
10002950:	6ba5      	ldr	r5, [r4, #56]	; 0x38
10002952:	f7ff fe35 	bl	100025c0 <prvCopyDataToQueue>
10002956:	6ca3      	ldr	r3, [r4, #72]	; 0x48
10002958:	b18b      	cbz	r3, 1000297e <xQueueGenericSend+0x102>
1000295a:	2d00      	cmp	r5, #0
1000295c:	d0eb      	beq.n	10002936 <xQueueGenericSend+0xba>
1000295e:	e7ee      	b.n	1000293e <xQueueGenericSend+0xc2>
10002960:	f001 fea8 	bl	100046b4 <vTaskExitCritical>
10002964:	4628      	mov	r0, r5
10002966:	b005      	add	sp, #20
10002968:	e8bd 83f0 	ldmia.w	sp!, {r4, r5, r6, r7, r8, r9, pc}
1000296c:	4620      	mov	r0, r4
1000296e:	f7ff fe5f 	bl	10002630 <prvUnlockQueue>
10002972:	f001 fd77 	bl	10004464 <xTaskResumeAll>
10002976:	2000      	movs	r0, #0
10002978:	b005      	add	sp, #20
1000297a:	e8bd 83f0 	ldmia.w	sp!, {r4, r5, r6, r7, r8, r9, pc}
1000297e:	6a63      	ldr	r3, [r4, #36]	; 0x24
10002980:	b923      	cbnz	r3, 1000298c <xQueueGenericSend+0x110>
10002982:	2800      	cmp	r0, #0
10002984:	d0db      	beq.n	1000293e <xQueueGenericSend+0xc2>
10002986:	f001 f977 	bl	10003c78 <vTaskYieldWithinAPI>
1000298a:	e7d8      	b.n	1000293e <xQueueGenericSend+0xc2>
1000298c:	f104 0024 	add.w	r0, r4, #36	; 0x24
10002990:	f001 f886 	bl	10003aa0 <xTaskRemoveFromEventList>
10002994:	2800      	cmp	r0, #0
10002996:	d0d2      	beq.n	1000293e <xQueueGenericSend+0xc2>
10002998:	e7f5      	b.n	10002986 <xQueueGenericSend+0x10a>
1000299a:	bf00      	nop

1000299c <xQueueGenericSendFromISR>:
1000299c:	e92d 43f8 	stmdb	sp!, {r3, r4, r5, r6, r7, r8, r9, lr}
100029a0:	4604      	mov	r4, r0
100029a2:	4690      	mov	r8, r2
100029a4:	461d      	mov	r5, r3
100029a6:	460f      	mov	r7, r1
100029a8:	f7ff fb2a 	bl	10002000 <vPortValidateInterruptPriority>
100029ac:	f001 fe38 	bl	10004620 <vTaskEnterCriticalFromISR>
100029b0:	6ba2      	ldr	r2, [r4, #56]	; 0x38
100029b2:	6be3      	ldr	r3, [r4, #60]	; 0x3c
100029b4:	4606      	mov	r6, r0
100029b6:	429a      	cmp	r2, r3
100029b8:	d308      	bcc.n	100029cc <xQueueGenericSendFromISR+0x30>
100029ba:	2d02      	cmp	r5, #2
100029bc:	d006      	beq.n	100029cc <xQueueGenericSendFromISR+0x30>
100029be:	2500      	movs	r5, #0
100029c0:	4630      	mov	r0, r6
100029c2:	f001 fec3 	bl	1000474c <vTaskExitCriticalFromISR>
100029c6:	4628      	mov	r0, r5
100029c8:	e8bd 83f8 	ldmia.w	sp!, {r3, r4, r5, r6, r7, r8, r9, pc}
100029cc:	4639      	mov	r1, r7
100029ce:	f894 7045 	ldrb.w	r7, [r4, #69]	; 0x45
100029d2:	462a      	mov	r2, r5
100029d4:	4620      	mov	r0, r4
100029d6:	b27f      	sxtb	r7, r7
100029d8:	f8d4 9038 	ldr.w	r9, [r4, #56]	; 0x38
100029dc:	f7ff fdf0 	bl	100025c0 <prvCopyDataToQueue>
100029e0:	1c7b      	adds	r3, r7, #1
100029e2:	d112      	bne.n	10002a0a <xQueueGenericSendFromISR+0x6e>
100029e4:	6ca3      	ldr	r3, [r4, #72]	; 0x48
100029e6:	b1fb      	cbz	r3, 10002a28 <xQueueGenericSendFromISR+0x8c>
100029e8:	2d02      	cmp	r5, #2
100029ea:	d102      	bne.n	100029f2 <xQueueGenericSendFromISR+0x56>
100029ec:	f1b9 0f00 	cmp.w	r9, #0
100029f0:	d11c      	bne.n	10002a2c <xQueueGenericSendFromISR+0x90>
100029f2:	4620      	mov	r0, r4
100029f4:	f7ff febc 	bl	10002770 <prvNotifyQueueSetContainer>
100029f8:	b1c0      	cbz	r0, 10002a2c <xQueueGenericSendFromISR+0x90>
100029fa:	f1b8 0f00 	cmp.w	r8, #0
100029fe:	d015      	beq.n	10002a2c <xQueueGenericSendFromISR+0x90>
10002a00:	2301      	movs	r3, #1
10002a02:	461d      	mov	r5, r3
10002a04:	f8c8 3000 	str.w	r3, [r8]
10002a08:	e7da      	b.n	100029c0 <xQueueGenericSendFromISR+0x24>
10002a0a:	f000 fcd3 	bl	100033b4 <uxTaskGetNumberOfTasks>
10002a0e:	4287      	cmp	r7, r0
10002a10:	d20c      	bcs.n	10002a2c <xQueueGenericSendFromISR+0x90>
10002a12:	2501      	movs	r5, #1
10002a14:	3701      	adds	r7, #1
10002a16:	b27f      	sxtb	r7, r7
10002a18:	4630      	mov	r0, r6
10002a1a:	f884 7045 	strb.w	r7, [r4, #69]	; 0x45
10002a1e:	f001 fe95 	bl	1000474c <vTaskExitCriticalFromISR>
10002a22:	4628      	mov	r0, r5
10002a24:	e8bd 83f8 	ldmia.w	sp!, {r3, r4, r5, r6, r7, r8, r9, pc}
10002a28:	6a63      	ldr	r3, [r4, #36]	; 0x24
10002a2a:	b933      	cbnz	r3, 10002a3a <xQueueGenericSendFromISR+0x9e>
10002a2c:	2501      	movs	r5, #1
10002a2e:	4630      	mov	r0, r6
10002a30:	f001 fe8c 	bl	1000474c <vTaskExitCriticalFromISR>
10002a34:	4628      	mov	r0, r5
10002a36:	e8bd 83f8 	ldmia.w	sp!, {r3, r4, r5, r6, r7, r8, r9, pc}
10002a3a:	f104 0024 	add.w	r0, r4, #36	; 0x24
10002a3e:	f001 f82f 	bl	10003aa0 <xTaskRemoveFromEventList>
10002a42:	2800      	cmp	r0, #0
10002a44:	d1d9      	bne.n	100029fa <xQueueGenericSendFromISR+0x5e>
10002a46:	e7f1      	b.n	10002a2c <xQueueGenericSendFromISR+0x90>

10002a48 <xQueueReceive>:
10002a48:	e92d 41f0 	stmdb	sp!, {r4, r5, r6, r7, r8, lr}
10002a4c:	4604      	mov	r4, r0
10002a4e:	b084      	sub	sp, #16
10002a50:	460f      	mov	r7, r1
10002a52:	9201      	str	r2, [sp, #4]
10002a54:	f001 f922 	bl	10003c9c <vTaskEnterCritical>
10002a58:	6ba5      	ldr	r5, [r4, #56]	; 0x38
10002a5a:	2d00      	cmp	r5, #0
10002a5c:	d155      	bne.n	10002b0a <xQueueReceive+0xc2>
10002a5e:	9b01      	ldr	r3, [sp, #4]
10002a60:	b3ab      	cbz	r3, 10002ace <xQueueReceive+0x86>
10002a62:	a802      	add	r0, sp, #8
10002a64:	f001 f880 	bl	10003b68 <vTaskInternalSetTimeOutState>
10002a68:	462e      	mov	r6, r5
10002a6a:	f104 0824 	add.w	r8, r4, #36	; 0x24
10002a6e:	f001 fe21 	bl	100046b4 <vTaskExitCritical>
10002a72:	f000 fc91 	bl	10003398 <vTaskSuspendAll>
10002a76:	f001 f911 	bl	10003c9c <vTaskEnterCritical>
10002a7a:	f894 3044 	ldrb.w	r3, [r4, #68]	; 0x44
10002a7e:	2bff      	cmp	r3, #255	; 0xff
10002a80:	bf08      	it	eq
10002a82:	f884 6044 	strbeq.w	r6, [r4, #68]	; 0x44
10002a86:	f894 3045 	ldrb.w	r3, [r4, #69]	; 0x45
10002a8a:	2bff      	cmp	r3, #255	; 0xff
10002a8c:	bf08      	it	eq
10002a8e:	f884 6045 	strbeq.w	r6, [r4, #69]	; 0x45
10002a92:	f001 fe0f 	bl	100046b4 <vTaskExitCritical>
10002a96:	a901      	add	r1, sp, #4
10002a98:	a802      	add	r0, sp, #8
10002a9a:	f001 fd6d 	bl	10004578 <xTaskCheckForTimeOut>
10002a9e:	b9e0      	cbnz	r0, 10002ada <xQueueReceive+0x92>
10002aa0:	f001 f8fc 	bl	10003c9c <vTaskEnterCritical>
10002aa4:	6ba3      	ldr	r3, [r4, #56]	; 0x38
10002aa6:	bb2b      	cbnz	r3, 10002af4 <xQueueReceive+0xac>
10002aa8:	f001 fe04 	bl	100046b4 <vTaskExitCritical>
10002aac:	4640      	mov	r0, r8
10002aae:	9901      	ldr	r1, [sp, #4]
10002ab0:	f000 ff3e 	bl	10003930 <vTaskPlaceOnEventList>
10002ab4:	4620      	mov	r0, r4
10002ab6:	f7ff fdbb 	bl	10002630 <prvUnlockQueue>
10002aba:	f001 fcd3 	bl	10004464 <xTaskResumeAll>
10002abe:	b308      	cbz	r0, 10002b04 <xQueueReceive+0xbc>
10002ac0:	f001 f8ec 	bl	10003c9c <vTaskEnterCritical>
10002ac4:	6ba5      	ldr	r5, [r4, #56]	; 0x38
10002ac6:	bb05      	cbnz	r5, 10002b0a <xQueueReceive+0xc2>
10002ac8:	9b01      	ldr	r3, [sp, #4]
10002aca:	2b00      	cmp	r3, #0
10002acc:	d1cf      	bne.n	10002a6e <xQueueReceive+0x26>
10002ace:	f001 fdf1 	bl	100046b4 <vTaskExitCritical>
10002ad2:	2000      	movs	r0, #0
10002ad4:	b004      	add	sp, #16
10002ad6:	e8bd 81f0 	ldmia.w	sp!, {r4, r5, r6, r7, r8, pc}
10002ada:	4620      	mov	r0, r4
10002adc:	f7ff fda8 	bl	10002630 <prvUnlockQueue>
10002ae0:	f001 fcc0 	bl	10004464 <xTaskResumeAll>
10002ae4:	f001 f8da 	bl	10003c9c <vTaskEnterCritical>
10002ae8:	6ba3      	ldr	r3, [r4, #56]	; 0x38
10002aea:	2b00      	cmp	r3, #0
10002aec:	d0ef      	beq.n	10002ace <xQueueReceive+0x86>
10002aee:	f001 fde1 	bl	100046b4 <vTaskExitCritical>
10002af2:	e7e5      	b.n	10002ac0 <xQueueReceive+0x78>
10002af4:	f001 fdde 	bl	100046b4 <vTaskExitCritical>
10002af8:	4620      	mov	r0, r4
10002afa:	f7ff fd99 	bl	10002630 <prvUnlockQueue>
10002afe:	f001 fcb1 	bl	10004464 <xTaskResumeAll>
10002b02:	e7dd      	b.n	10002ac0 <xQueueReceive+0x78>
10002b04:	f001 f8b8 	bl	10003c78 <vTaskYieldWithinAPI>
10002b08:	e7da      	b.n	10002ac0 <xQueueReceive+0x78>
10002b0a:	6c22      	ldr	r2, [r4, #64]	; 0x40
10002b0c:	b15a      	cbz	r2, 10002b26 <xQueueReceive+0xde>
10002b0e:	68e1      	ldr	r1, [r4, #12]
10002b10:	68a3      	ldr	r3, [r4, #8]
10002b12:	4411      	add	r1, r2
10002b14:	4299      	cmp	r1, r3
10002b16:	60e1      	str	r1, [r4, #12]
10002b18:	bf28      	it	cs
10002b1a:	6821      	ldrcs	r1, [r4, #0]
10002b1c:	4638      	mov	r0, r7
10002b1e:	bf28      	it	cs
10002b20:	60e1      	strcs	r1, [r4, #12]
10002b22:	f006 fc71 	bl	10009408 <memcpy>
10002b26:	6923      	ldr	r3, [r4, #16]
10002b28:	3d01      	subs	r5, #1
10002b2a:	63a5      	str	r5, [r4, #56]	; 0x38
10002b2c:	b92b      	cbnz	r3, 10002b3a <xQueueReceive+0xf2>
10002b2e:	f001 fdc1 	bl	100046b4 <vTaskExitCritical>
10002b32:	2001      	movs	r0, #1
10002b34:	b004      	add	sp, #16
10002b36:	e8bd 81f0 	ldmia.w	sp!, {r4, r5, r6, r7, r8, pc}
10002b3a:	f104 0010 	add.w	r0, r4, #16
10002b3e:	f000 ffaf 	bl	10003aa0 <xTaskRemoveFromEventList>
10002b42:	2800      	cmp	r0, #0
10002b44:	d0f3      	beq.n	10002b2e <xQueueReceive+0xe6>
10002b46:	f001 f897 	bl	10003c78 <vTaskYieldWithinAPI>
10002b4a:	e7f0      	b.n	10002b2e <xQueueReceive+0xe6>

10002b4c <vQueueAddToRegistry>:
10002b4c:	2900      	cmp	r1, #0
10002b4e:	d07e      	beq.n	10002c4e <vQueueAddToRegistry+0x102>
10002b50:	b430      	push	{r4, r5}
10002b52:	2400      	movs	r4, #0
10002b54:	4623      	mov	r3, r4
10002b56:	4d44      	ldr	r5, [pc, #272]	; (10002c68 <vQueueAddToRegistry+0x11c>)
10002b58:	eb05 02c3 	add.w	r2, r5, r3, lsl #3
10002b5c:	6852      	ldr	r2, [r2, #4]
10002b5e:	ea4f 0cc3 	mov.w	ip, r3, lsl #3
10002b62:	4282      	cmp	r2, r0
10002b64:	d070      	beq.n	10002c48 <vQueueAddToRegistry+0xfc>
10002b66:	b134      	cbz	r4, 10002b76 <vQueueAddToRegistry+0x2a>
10002b68:	3301      	adds	r3, #1
10002b6a:	2b08      	cmp	r3, #8
10002b6c:	d1f4      	bne.n	10002b58 <vQueueAddToRegistry+0xc>
10002b6e:	e9c4 1000 	strd	r1, r0, [r4]
10002b72:	bc30      	pop	{r4, r5}
10002b74:	4770      	bx	lr
10002b76:	f855 2033 	ldr.w	r2, [r5, r3, lsl #3]
10002b7a:	2a00      	cmp	r2, #0
10002b7c:	d05f      	beq.n	10002c3e <vQueueAddToRegistry+0xf2>
10002b7e:	2b07      	cmp	r3, #7
10002b80:	f103 0201 	add.w	r2, r3, #1
10002b84:	d0f5      	beq.n	10002b72 <vQueueAddToRegistry+0x26>
10002b86:	eb05 04c2 	add.w	r4, r5, r2, lsl #3
10002b8a:	6864      	ldr	r4, [r4, #4]
10002b8c:	ea4f 0cc2 	mov.w	ip, r2, lsl #3
10002b90:	42a0      	cmp	r0, r4
10002b92:	d059      	beq.n	10002c48 <vQueueAddToRegistry+0xfc>
10002b94:	f855 4032 	ldr.w	r4, [r5, r2, lsl #3]
10002b98:	2c00      	cmp	r4, #0
10002b9a:	d059      	beq.n	10002c50 <vQueueAddToRegistry+0x104>
10002b9c:	2b06      	cmp	r3, #6
10002b9e:	f103 0202 	add.w	r2, r3, #2
10002ba2:	d0e6      	beq.n	10002b72 <vQueueAddToRegistry+0x26>
10002ba4:	eb05 04c2 	add.w	r4, r5, r2, lsl #3
10002ba8:	6864      	ldr	r4, [r4, #4]
10002baa:	ea4f 0cc2 	mov.w	ip, r2, lsl #3
10002bae:	42a0      	cmp	r0, r4
10002bb0:	d04a      	beq.n	10002c48 <vQueueAddToRegistry+0xfc>
10002bb2:	f855 4032 	ldr.w	r4, [r5, r2, lsl #3]
10002bb6:	2c00      	cmp	r4, #0
10002bb8:	d04a      	beq.n	10002c50 <vQueueAddToRegistry+0x104>
10002bba:	2b05      	cmp	r3, #5
10002bbc:	f103 0203 	add.w	r2, r3, #3
10002bc0:	d0d7      	beq.n	10002b72 <vQueueAddToRegistry+0x26>
10002bc2:	eb05 04c2 	add.w	r4, r5, r2, lsl #3
10002bc6:	6864      	ldr	r4, [r4, #4]
10002bc8:	ea4f 0cc2 	mov.w	ip, r2, lsl #3
10002bcc:	4284      	cmp	r4, r0
10002bce:	d03b      	beq.n	10002c48 <vQueueAddToRegistry+0xfc>
10002bd0:	f855 4032 	ldr.w	r4, [r5, r2, lsl #3]
10002bd4:	2c00      	cmp	r4, #0
10002bd6:	d03b      	beq.n	10002c50 <vQueueAddToRegistry+0x104>
10002bd8:	2b04      	cmp	r3, #4
10002bda:	f103 0204 	add.w	r2, r3, #4
10002bde:	d0c8      	beq.n	10002b72 <vQueueAddToRegistry+0x26>
10002be0:	eb05 04c2 	add.w	r4, r5, r2, lsl #3
10002be4:	6864      	ldr	r4, [r4, #4]
10002be6:	ea4f 0cc2 	mov.w	ip, r2, lsl #3
10002bea:	42a0      	cmp	r0, r4
10002bec:	d02c      	beq.n	10002c48 <vQueueAddToRegistry+0xfc>
10002bee:	f855 4032 	ldr.w	r4, [r5, r2, lsl #3]
10002bf2:	b36c      	cbz	r4, 10002c50 <vQueueAddToRegistry+0x104>
10002bf4:	2b03      	cmp	r3, #3
10002bf6:	f103 0205 	add.w	r2, r3, #5
10002bfa:	d0ba      	beq.n	10002b72 <vQueueAddToRegistry+0x26>
10002bfc:	eb05 04c2 	add.w	r4, r5, r2, lsl #3
10002c00:	6864      	ldr	r4, [r4, #4]
10002c02:	ea4f 0cc2 	mov.w	ip, r2, lsl #3
10002c06:	42a0      	cmp	r0, r4
10002c08:	d01e      	beq.n	10002c48 <vQueueAddToRegistry+0xfc>
10002c0a:	f855 4032 	ldr.w	r4, [r5, r2, lsl #3]
10002c0e:	b1fc      	cbz	r4, 10002c50 <vQueueAddToRegistry+0x104>
10002c10:	2b02      	cmp	r3, #2
10002c12:	f103 0c06 	add.w	ip, r3, #6
10002c16:	d0ac      	beq.n	10002b72 <vQueueAddToRegistry+0x26>
10002c18:	eb05 02cc 	add.w	r2, r5, ip, lsl #3
10002c1c:	6852      	ldr	r2, [r2, #4]
10002c1e:	4290      	cmp	r0, r2
10002c20:	d010      	beq.n	10002c44 <vQueueAddToRegistry+0xf8>
10002c22:	f855 203c 	ldr.w	r2, [r5, ip, lsl #3]
10002c26:	b1ba      	cbz	r2, 10002c58 <vQueueAddToRegistry+0x10c>
10002c28:	2b01      	cmp	r3, #1
10002c2a:	d0a2      	beq.n	10002b72 <vQueueAddToRegistry+0x26>
10002c2c:	6beb      	ldr	r3, [r5, #60]	; 0x3c
10002c2e:	4298      	cmp	r0, r3
10002c30:	d016      	beq.n	10002c60 <vQueueAddToRegistry+0x114>
10002c32:	6bab      	ldr	r3, [r5, #56]	; 0x38
10002c34:	2b00      	cmp	r3, #0
10002c36:	d19c      	bne.n	10002b72 <vQueueAddToRegistry+0x26>
10002c38:	2307      	movs	r3, #7
10002c3a:	f04f 0c38 	mov.w	ip, #56	; 0x38
10002c3e:	eb05 040c 	add.w	r4, r5, ip
10002c42:	e791      	b.n	10002b68 <vQueueAddToRegistry+0x1c>
10002c44:	ea4f 0ccc 	mov.w	ip, ip, lsl #3
10002c48:	eb05 040c 	add.w	r4, r5, ip
10002c4c:	e78f      	b.n	10002b6e <vQueueAddToRegistry+0x22>
10002c4e:	4770      	bx	lr
10002c50:	4613      	mov	r3, r2
10002c52:	eb05 040c 	add.w	r4, r5, ip
10002c56:	e787      	b.n	10002b68 <vQueueAddToRegistry+0x1c>
10002c58:	4663      	mov	r3, ip
10002c5a:	ea4f 0ccc 	mov.w	ip, ip, lsl #3
10002c5e:	e7ee      	b.n	10002c3e <vQueueAddToRegistry+0xf2>
10002c60:	f04f 0c38 	mov.w	ip, #56	; 0x38
10002c64:	e7f0      	b.n	10002c48 <vQueueAddToRegistry+0xfc>
10002c66:	bf00      	nop
10002c68:	20001448 	.word	0x20001448

10002c6c <vQueueWaitForMessageRestricted>:
10002c6c:	b570      	push	{r4, r5, r6, lr}
10002c6e:	4604      	mov	r4, r0
10002c70:	460e      	mov	r6, r1
10002c72:	4615      	mov	r5, r2
10002c74:	f001 f812 	bl	10003c9c <vTaskEnterCritical>
10002c78:	f894 3044 	ldrb.w	r3, [r4, #68]	; 0x44
10002c7c:	2bff      	cmp	r3, #255	; 0xff
10002c7e:	bf04      	itt	eq
10002c80:	2300      	moveq	r3, #0
10002c82:	f884 3044 	strbeq.w	r3, [r4, #68]	; 0x44
10002c86:	f894 3045 	ldrb.w	r3, [r4, #69]	; 0x45
10002c8a:	2bff      	cmp	r3, #255	; 0xff
10002c8c:	bf04      	itt	eq
10002c8e:	2300      	moveq	r3, #0
10002c90:	f884 3045 	strbeq.w	r3, [r4, #69]	; 0x45
10002c94:	f001 fd0e 	bl	100046b4 <vTaskExitCritical>
10002c98:	6ba3      	ldr	r3, [r4, #56]	; 0x38
10002c9a:	b123      	cbz	r3, 10002ca6 <vQueueWaitForMessageRestricted+0x3a>
10002c9c:	4620      	mov	r0, r4
10002c9e:	e8bd 4070 	ldmia.w	sp!, {r4, r5, r6, lr}
10002ca2:	f7ff bcc5 	b.w	10002630 <prvUnlockQueue>
10002ca6:	f104 0024 	add.w	r0, r4, #36	; 0x24
10002caa:	462a      	mov	r2, r5
10002cac:	4631      	mov	r1, r6
10002cae:	f000 fea9 	bl	10003a04 <vTaskPlaceOnEventListRestricted>
10002cb2:	4620      	mov	r0, r4
10002cb4:	e8bd 4070 	ldmia.w	sp!, {r4, r5, r6, lr}
10002cb8:	f7ff bcba 	b.w	10002630 <prvUnlockQueue>

10002cbc <prvPassiveIdleTask>:
10002cbc:	4c06      	ldr	r4, [pc, #24]	; (10002cd8 <prvPassiveIdleTask+0x1c>)
10002cbe:	b508      	push	{r3, lr}
10002cc0:	f7ff f916 	bl	10001ef0 <vPortYield>
10002cc4:	6823      	ldr	r3, [r4, #0]
10002cc6:	2b02      	cmp	r3, #2
10002cc8:	d800      	bhi.n	10002ccc <prvPassiveIdleTask+0x10>
10002cca:	e7fe      	b.n	10002cca <prvPassiveIdleTask+0xe>
10002ccc:	f7ff f910 	bl	10001ef0 <vPortYield>
10002cd0:	6823      	ldr	r3, [r4, #0]
10002cd2:	2b02      	cmp	r3, #2
10002cd4:	d8fa      	bhi.n	10002ccc <prvPassiveIdleTask+0x10>
10002cd6:	e7f8      	b.n	10002cca <prvPassiveIdleTask+0xe>
10002cd8:	20001f3c 	.word	0x20001f3c

10002cdc <prvYieldForTask>:
10002cdc:	b538      	push	{r3, r4, r5, lr}
10002cde:	6b83      	ldr	r3, [r0, #56]	; 0x38
10002ce0:	2b00      	cmp	r3, #0
10002ce2:	db02      	blt.n	10002cea <prvYieldForTask+0xe>
10002ce4:	6b83      	ldr	r3, [r0, #56]	; 0x38
10002ce6:	2b01      	cmp	r3, #1
10002ce8:	dd31      	ble.n	10002d4e <prvYieldForTask+0x72>
10002cea:	4c2d      	ldr	r4, [pc, #180]	; (10002da0 <prvYieldForTask+0xc4>)
10002cec:	6b01      	ldr	r1, [r0, #48]	; 0x30
10002cee:	6822      	ldr	r2, [r4, #0]
10002cf0:	6823      	ldr	r3, [r4, #0]
10002cf2:	6b12      	ldr	r2, [r2, #48]	; 0x30
10002cf4:	6bdb      	ldr	r3, [r3, #60]	; 0x3c
10002cf6:	1e4d      	subs	r5, r1, #1
10002cf8:	07db      	lsls	r3, r3, #31
10002cfa:	6823      	ldr	r3, [r4, #0]
10002cfc:	bf48      	it	mi
10002cfe:	f102 32ff 	addmi.w	r2, r2, #4294967295
10002d02:	6b9b      	ldr	r3, [r3, #56]	; 0x38
10002d04:	2b00      	cmp	r3, #0
10002d06:	db03      	blt.n	10002d10 <prvYieldForTask+0x34>
10002d08:	6823      	ldr	r3, [r4, #0]
10002d0a:	6b9b      	ldr	r3, [r3, #56]	; 0x38
10002d0c:	2b01      	cmp	r3, #1
10002d0e:	dd1f      	ble.n	10002d50 <prvYieldForTask+0x74>
10002d10:	f04f 33ff 	mov.w	r3, #4294967295
10002d14:	6862      	ldr	r2, [r4, #4]
10002d16:	6861      	ldr	r1, [r4, #4]
10002d18:	6b12      	ldr	r2, [r2, #48]	; 0x30
10002d1a:	6bc9      	ldr	r1, [r1, #60]	; 0x3c
10002d1c:	07c9      	lsls	r1, r1, #31
10002d1e:	6861      	ldr	r1, [r4, #4]
10002d20:	bf48      	it	mi
10002d22:	f102 32ff 	addmi.w	r2, r2, #4294967295
10002d26:	6b89      	ldr	r1, [r1, #56]	; 0x38
10002d28:	2900      	cmp	r1, #0
10002d2a:	db03      	blt.n	10002d34 <prvYieldForTask+0x58>
10002d2c:	6861      	ldr	r1, [r4, #4]
10002d2e:	6b89      	ldr	r1, [r1, #56]	; 0x38
10002d30:	2901      	cmp	r1, #1
10002d32:	dd1c      	ble.n	10002d6e <prvYieldForTask+0x92>
10002d34:	3301      	adds	r3, #1
10002d36:	d00a      	beq.n	10002d4e <prvYieldForTask+0x72>
10002d38:	2500      	movs	r5, #0
10002d3a:	f04f 4350 	mov.w	r3, #3489660928	; 0xd0000000
10002d3e:	681b      	ldr	r3, [r3, #0]
10002d40:	429d      	cmp	r5, r3
10002d42:	d028      	beq.n	10002d96 <prvYieldForTask+0xba>
10002d44:	f854 3025 	ldr.w	r3, [r4, r5, lsl #2]
10002d48:	6b9b      	ldr	r3, [r3, #56]	; 0x38
10002d4a:	3302      	adds	r3, #2
10002d4c:	d11a      	bne.n	10002d84 <prvYieldForTask+0xa8>
10002d4e:	bd38      	pop	{r3, r4, r5, pc}
10002d50:	4b14      	ldr	r3, [pc, #80]	; (10002da4 <prvYieldForTask+0xc8>)
10002d52:	681b      	ldr	r3, [r3, #0]
10002d54:	2b00      	cmp	r3, #0
10002d56:	d1db      	bne.n	10002d10 <prvYieldForTask+0x34>
10002d58:	4295      	cmp	r5, r2
10002d5a:	dbd9      	blt.n	10002d10 <prvYieldForTask+0x34>
10002d5c:	6841      	ldr	r1, [r0, #4]
10002d5e:	f001 0101 	and.w	r1, r1, #1
10002d62:	2900      	cmp	r1, #0
10002d64:	bf14      	ite	ne
10002d66:	4615      	movne	r5, r2
10002d68:	f04f 33ff 	moveq.w	r3, #4294967295
10002d6c:	e7d2      	b.n	10002d14 <prvYieldForTask+0x38>
10002d6e:	490d      	ldr	r1, [pc, #52]	; (10002da4 <prvYieldForTask+0xc8>)
10002d70:	6849      	ldr	r1, [r1, #4]
10002d72:	2900      	cmp	r1, #0
10002d74:	d1de      	bne.n	10002d34 <prvYieldForTask+0x58>
10002d76:	42aa      	cmp	r2, r5
10002d78:	dcdc      	bgt.n	10002d34 <prvYieldForTask+0x58>
10002d7a:	6842      	ldr	r2, [r0, #4]
10002d7c:	0792      	lsls	r2, r2, #30
10002d7e:	d5d9      	bpl.n	10002d34 <prvYieldForTask+0x58>
10002d80:	2501      	movs	r5, #1
10002d82:	e7da      	b.n	10002d3a <prvYieldForTask+0x5e>
10002d84:	4628      	mov	r0, r5
10002d86:	f7ff fa57 	bl	10002238 <vYieldCore>
10002d8a:	f06f 0201 	mvn.w	r2, #1
10002d8e:	f854 3025 	ldr.w	r3, [r4, r5, lsl #2]
10002d92:	639a      	str	r2, [r3, #56]	; 0x38
10002d94:	bd38      	pop	{r3, r4, r5, pc}
10002d96:	2201      	movs	r2, #1
10002d98:	4b02      	ldr	r3, [pc, #8]	; (10002da4 <prvYieldForTask+0xc8>)
10002d9a:	f843 2025 	str.w	r2, [r3, r5, lsl #2]
10002d9e:	bd38      	pop	{r3, r4, r5, pc}
10002da0:	20001f20 	.word	0x20001f20
10002da4:	200422dc 	.word	0x200422dc

10002da8 <vTaskExitCritical.part.0>:
10002da8:	f04f 4150 	mov.w	r1, #3489660928	; 0xd0000000
10002dac:	4b1b      	ldr	r3, [pc, #108]	; (10002e1c <vTaskExitCritical.part.0+0x74>)
10002dae:	680a      	ldr	r2, [r1, #0]
10002db0:	f853 0022 	ldr.w	r0, [r3, r2, lsl #2]
10002db4:	2800      	cmp	r0, #0
10002db6:	d02c      	beq.n	10002e12 <vTaskExitCritical.part.0+0x6a>
10002db8:	f853 0022 	ldr.w	r0, [r3, r2, lsl #2]
10002dbc:	3801      	subs	r0, #1
10002dbe:	f843 0022 	str.w	r0, [r3, r2, lsl #2]
10002dc2:	680a      	ldr	r2, [r1, #0]
10002dc4:	f853 3022 	ldr.w	r3, [r3, r2, lsl #2]
10002dc8:	bb1b      	cbnz	r3, 10002e12 <vTaskExitCritical.part.0+0x6a>
10002dca:	b510      	push	{r4, lr}
10002dcc:	4914      	ldr	r1, [pc, #80]	; (10002e20 <vTaskExitCritical.part.0+0x78>)
10002dce:	4b15      	ldr	r3, [pc, #84]	; (10002e24 <vTaskExitCritical.part.0+0x7c>)
10002dd0:	f853 4022 	ldr.w	r4, [r3, r2, lsl #2]
10002dd4:	780b      	ldrb	r3, [r1, #0]
10002dd6:	3b01      	subs	r3, #1
10002dd8:	b2db      	uxtb	r3, r3
10002dda:	700b      	strb	r3, [r1, #0]
10002ddc:	b92b      	cbnz	r3, 10002dea <vTaskExitCritical.part.0+0x42>
10002dde:	4812      	ldr	r0, [pc, #72]	; (10002e28 <vTaskExitCritical.part.0+0x80>)
10002de0:	f800 3012 	strb.w	r3, [r0, r2, lsl #1]
10002de4:	4a11      	ldr	r2, [pc, #68]	; (10002e2c <vTaskExitCritical.part.0+0x84>)
10002de6:	e8c2 3f8f 	stlb	r3, [r2]
10002dea:	f04f 4250 	mov.w	r2, #3489660928	; 0xd0000000
10002dee:	784b      	ldrb	r3, [r1, #1]
10002df0:	6810      	ldr	r0, [r2, #0]
10002df2:	3b01      	subs	r3, #1
10002df4:	b2db      	uxtb	r3, r3
10002df6:	704b      	strb	r3, [r1, #1]
10002df8:	b933      	cbnz	r3, 10002e08 <vTaskExitCritical.part.0+0x60>
10002dfa:	4a0b      	ldr	r2, [pc, #44]	; (10002e28 <vTaskExitCritical.part.0+0x80>)
10002dfc:	490c      	ldr	r1, [pc, #48]	; (10002e30 <vTaskExitCritical.part.0+0x88>)
10002dfe:	eb02 0240 	add.w	r2, r2, r0, lsl #1
10002e02:	7053      	strb	r3, [r2, #1]
10002e04:	e8c1 3f8f 	stlb	r3, [r1]
10002e08:	2000      	movs	r0, #0
10002e0a:	f7ff fa51 	bl	100022b0 <vClearInterruptMask>
10002e0e:	b90c      	cbnz	r4, 10002e14 <vTaskExitCritical.part.0+0x6c>
10002e10:	bd10      	pop	{r4, pc}
10002e12:	4770      	bx	lr
10002e14:	e8bd 4010 	ldmia.w	sp!, {r4, lr}
10002e18:	f7ff b86a 	b.w	10001ef0 <vPortYield>
10002e1c:	200421d8 	.word	0x200421d8
10002e20:	200421d4 	.word	0x200421d4
10002e24:	200422dc 	.word	0x200422dc
10002e28:	200421d0 	.word	0x200421d0
10002e2c:	20001676 	.word	0x20001676
10002e30:	20001677 	.word	0x20001677

10002e34 <prvCheckForRunStateChange>:
10002e34:	f04f 4250 	mov.w	r2, #3489660928	; 0xd0000000
10002e38:	4b50      	ldr	r3, [pc, #320]	; (10002f7c <prvCheckForRunStateChange+0x148>)
10002e3a:	6812      	ldr	r2, [r2, #0]
10002e3c:	e92d 47f0 	stmdb	sp!, {r4, r5, r6, r7, r8, r9, sl, lr}
10002e40:	f8df 9144 	ldr.w	r9, [pc, #324]	; 10002f88 <prvCheckForRunStateChange+0x154>
10002e44:	4c4e      	ldr	r4, [pc, #312]	; (10002f80 <prvCheckForRunStateChange+0x14c>)
10002e46:	f8df 8144 	ldr.w	r8, [pc, #324]	; 10002f8c <prvCheckForRunStateChange+0x158>
10002e4a:	f853 6022 	ldr.w	r6, [r3, r2, lsl #2]
10002e4e:	4d4d      	ldr	r5, [pc, #308]	; (10002f84 <prvCheckForRunStateChange+0x150>)
10002e50:	e040      	b.n	10002ed4 <prvCheckForRunStateChange+0xa0>
10002e52:	f8df a13c 	ldr.w	sl, [pc, #316]	; 10002f90 <prvCheckForRunStateChange+0x15c>
10002e56:	2000      	movs	r0, #0
10002e58:	f7ff fa2a 	bl	100022b0 <vClearInterruptMask>
10002e5c:	f7ff fa1c 	bl	10002298 <ulSetInterruptMask>
10002e60:	f04f 4350 	mov.w	r3, #3489660928	; 0xd0000000
10002e64:	681b      	ldr	r3, [r3, #0]
10002e66:	e8da 2fcf 	ldaexb	r2, [sl]
10002e6a:	2101      	movs	r1, #1
10002e6c:	2a00      	cmp	r2, #0
10002e6e:	d101      	bne.n	10002e74 <prvCheckForRunStateChange+0x40>
10002e70:	e8ca 1f42 	strexb	r2, r1, [sl]
10002e74:	f3bf 8f5f 	dmb	sy
10002e78:	2a00      	cmp	r2, #0
10002e7a:	d150      	bne.n	10002f1e <prvCheckForRunStateChange+0xea>
10002e7c:	005b      	lsls	r3, r3, #1
10002e7e:	2201      	movs	r2, #1
10002e80:	4443      	add	r3, r8
10002e82:	7062      	strb	r2, [r4, #1]
10002e84:	705a      	strb	r2, [r3, #1]
10002e86:	f04f 4350 	mov.w	r3, #3489660928	; 0xd0000000
10002e8a:	681a      	ldr	r2, [r3, #0]
10002e8c:	e8d5 3fcf 	ldaexb	r3, [r5]
10002e90:	2101      	movs	r1, #1
10002e92:	2b00      	cmp	r3, #0
10002e94:	d101      	bne.n	10002e9a <prvCheckForRunStateChange+0x66>
10002e96:	e8c5 1f43 	strexb	r3, r1, [r5]
10002e9a:	f3bf 8f5f 	dmb	sy
10002e9e:	b173      	cbz	r3, 10002ebe <prvCheckForRunStateChange+0x8a>
10002ea0:	f818 3012 	ldrb.w	r3, [r8, r2, lsl #1]
10002ea4:	2b00      	cmp	r3, #0
10002ea6:	d14b      	bne.n	10002f40 <prvCheckForRunStateChange+0x10c>
10002ea8:	e8d5 1fcf 	ldaexb	r1, [r5]
10002eac:	2301      	movs	r3, #1
10002eae:	2900      	cmp	r1, #0
10002eb0:	d1fa      	bne.n	10002ea8 <prvCheckForRunStateChange+0x74>
10002eb2:	e8c5 3f41 	strexb	r1, r3, [r5]
10002eb6:	2900      	cmp	r1, #0
10002eb8:	d1f6      	bne.n	10002ea8 <prvCheckForRunStateChange+0x74>
10002eba:	f3bf 8f5f 	dmb	sy
10002ebe:	2301      	movs	r3, #1
10002ec0:	7023      	strb	r3, [r4, #0]
10002ec2:	f808 3012 	strb.w	r3, [r8, r2, lsl #1]
10002ec6:	f04f 4350 	mov.w	r3, #3489660928	; 0xd0000000
10002eca:	681a      	ldr	r2, [r3, #0]
10002ecc:	f849 7022 	str.w	r7, [r9, r2, lsl #2]
10002ed0:	2f00      	cmp	r7, #0
10002ed2:	d040      	beq.n	10002f56 <prvCheckForRunStateChange+0x122>
10002ed4:	6bb3      	ldr	r3, [r6, #56]	; 0x38
10002ed6:	3302      	adds	r3, #2
10002ed8:	d14e      	bne.n	10002f78 <prvCheckForRunStateChange+0x144>
10002eda:	f04f 4150 	mov.w	r1, #3489660928	; 0xd0000000
10002ede:	680a      	ldr	r2, [r1, #0]
10002ee0:	f859 7022 	ldr.w	r7, [r9, r2, lsl #2]
10002ee4:	b16f      	cbz	r7, 10002f02 <prvCheckForRunStateChange+0xce>
10002ee6:	2300      	movs	r3, #0
10002ee8:	f849 3022 	str.w	r3, [r9, r2, lsl #2]
10002eec:	7823      	ldrb	r3, [r4, #0]
10002eee:	680a      	ldr	r2, [r1, #0]
10002ef0:	3b01      	subs	r3, #1
10002ef2:	b2db      	uxtb	r3, r3
10002ef4:	7023      	strb	r3, [r4, #0]
10002ef6:	b91b      	cbnz	r3, 10002f00 <prvCheckForRunStateChange+0xcc>
10002ef8:	f808 3012 	strb.w	r3, [r8, r2, lsl #1]
10002efc:	e8c5 3f8f 	stlb	r3, [r5]
10002f00:	680a      	ldr	r2, [r1, #0]
10002f02:	7863      	ldrb	r3, [r4, #1]
10002f04:	3b01      	subs	r3, #1
10002f06:	b2db      	uxtb	r3, r3
10002f08:	7063      	strb	r3, [r4, #1]
10002f0a:	2b00      	cmp	r3, #0
10002f0c:	d1a1      	bne.n	10002e52 <prvCheckForRunStateChange+0x1e>
10002f0e:	eb08 0242 	add.w	r2, r8, r2, lsl #1
10002f12:	f8df a07c 	ldr.w	sl, [pc, #124]	; 10002f90 <prvCheckForRunStateChange+0x15c>
10002f16:	7053      	strb	r3, [r2, #1]
10002f18:	e8ca 3f8f 	stlb	r3, [sl]
10002f1c:	e79b      	b.n	10002e56 <prvCheckForRunStateChange+0x22>
10002f1e:	eb08 0243 	add.w	r2, r8, r3, lsl #1
10002f22:	7852      	ldrb	r2, [r2, #1]
10002f24:	005b      	lsls	r3, r3, #1
10002f26:	bb12      	cbnz	r2, 10002f6e <prvCheckForRunStateChange+0x13a>
10002f28:	e8da 1fcf 	ldaexb	r1, [sl]
10002f2c:	2201      	movs	r2, #1
10002f2e:	2900      	cmp	r1, #0
10002f30:	d1fa      	bne.n	10002f28 <prvCheckForRunStateChange+0xf4>
10002f32:	e8ca 2f41 	strexb	r1, r2, [sl]
10002f36:	2900      	cmp	r1, #0
10002f38:	d1f6      	bne.n	10002f28 <prvCheckForRunStateChange+0xf4>
10002f3a:	f3bf 8f5f 	dmb	sy
10002f3e:	e79e      	b.n	10002e7e <prvCheckForRunStateChange+0x4a>
10002f40:	7823      	ldrb	r3, [r4, #0]
10002f42:	3301      	adds	r3, #1
10002f44:	b2db      	uxtb	r3, r3
10002f46:	7023      	strb	r3, [r4, #0]
10002f48:	f04f 4350 	mov.w	r3, #3489660928	; 0xd0000000
10002f4c:	681a      	ldr	r2, [r3, #0]
10002f4e:	f849 7022 	str.w	r7, [r9, r2, lsl #2]
10002f52:	2f00      	cmp	r7, #0
10002f54:	d1be      	bne.n	10002ed4 <prvCheckForRunStateChange+0xa0>
10002f56:	681a      	ldr	r2, [r3, #0]
10002f58:	7823      	ldrb	r3, [r4, #0]
10002f5a:	3b01      	subs	r3, #1
10002f5c:	b2db      	uxtb	r3, r3
10002f5e:	7023      	strb	r3, [r4, #0]
10002f60:	2b00      	cmp	r3, #0
10002f62:	d1b7      	bne.n	10002ed4 <prvCheckForRunStateChange+0xa0>
10002f64:	f808 7012 	strb.w	r7, [r8, r2, lsl #1]
10002f68:	e8c5 7f8f 	stlb	r7, [r5]
10002f6c:	e76f      	b.n	10002e4e <prvCheckForRunStateChange+0x1a>
10002f6e:	7863      	ldrb	r3, [r4, #1]
10002f70:	3301      	adds	r3, #1
10002f72:	b2db      	uxtb	r3, r3
10002f74:	7063      	strb	r3, [r4, #1]
10002f76:	e786      	b.n	10002e86 <prvCheckForRunStateChange+0x52>
10002f78:	e8bd 87f0 	ldmia.w	sp!, {r4, r5, r6, r7, r8, r9, sl, pc}
10002f7c:	20001f20 	.word	0x20001f20
10002f80:	200421d4 	.word	0x200421d4
10002f84:	20001676 	.word	0x20001676
10002f88:	200421d8 	.word	0x200421d8
10002f8c:	200421d0 	.word	0x200421d0
10002f90:	20001677 	.word	0x20001677

10002f94 <vTaskSuspendAll.part.0>:
10002f94:	b570      	push	{r4, r5, r6, lr}
10002f96:	b082      	sub	sp, #8
10002f98:	f7ff f97e 	bl	10002298 <ulSetInterruptMask>
10002f9c:	f04f 4250 	mov.w	r2, #3489660928	; 0xd0000000
10002fa0:	4b38      	ldr	r3, [pc, #224]	; (10003084 <vTaskSuspendAll.part.0+0xf0>)
10002fa2:	6812      	ldr	r2, [r2, #0]
10002fa4:	e8d3 1fcf 	ldaexb	r1, [r3]
10002fa8:	2401      	movs	r4, #1
10002faa:	2900      	cmp	r1, #0
10002fac:	d101      	bne.n	10002fb2 <vTaskSuspendAll.part.0+0x1e>
10002fae:	e8c3 4f41 	strexb	r1, r4, [r3]
10002fb2:	f3bf 8f5f 	dmb	sy
10002fb6:	4d34      	ldr	r5, [pc, #208]	; (10003088 <vTaskSuspendAll.part.0+0xf4>)
10002fb8:	2900      	cmp	r1, #0
10002fba:	d141      	bne.n	10003040 <vTaskSuspendAll.part.0+0xac>
10002fbc:	0051      	lsls	r1, r2, #1
10002fbe:	2301      	movs	r3, #1
10002fc0:	4c32      	ldr	r4, [pc, #200]	; (1000308c <vTaskSuspendAll.part.0+0xf8>)
10002fc2:	4429      	add	r1, r5
10002fc4:	7063      	strb	r3, [r4, #1]
10002fc6:	704b      	strb	r3, [r1, #1]
10002fc8:	4e31      	ldr	r6, [pc, #196]	; (10003090 <vTaskSuspendAll.part.0+0xfc>)
10002fca:	6833      	ldr	r3, [r6, #0]
10002fcc:	2b00      	cmp	r3, #0
10002fce:	d048      	beq.n	10003062 <vTaskSuspendAll.part.0+0xce>
10002fd0:	f04f 4350 	mov.w	r3, #3489660928	; 0xd0000000
10002fd4:	4a2f      	ldr	r2, [pc, #188]	; (10003094 <vTaskSuspendAll.part.0+0x100>)
10002fd6:	6819      	ldr	r1, [r3, #0]
10002fd8:	e8d2 3fcf 	ldaexb	r3, [r2]
10002fdc:	f05f 0c01 	movs.w	ip, #1
10002fe0:	2b00      	cmp	r3, #0
10002fe2:	d101      	bne.n	10002fe8 <vTaskSuspendAll.part.0+0x54>
10002fe4:	e8c2 cf43 	strexb	r3, ip, [r2]
10002fe8:	f3bf 8f5f 	dmb	sy
10002fec:	b183      	cbz	r3, 10003010 <vTaskSuspendAll.part.0+0x7c>
10002fee:	f815 3011 	ldrb.w	r3, [r5, r1, lsl #1]
10002ff2:	2b00      	cmp	r3, #0
10002ff4:	d140      	bne.n	10003078 <vTaskSuspendAll.part.0+0xe4>
10002ff6:	e8d2 cfcf 	ldaexb	ip, [r2]
10002ffa:	2301      	movs	r3, #1
10002ffc:	f1bc 0f00 	cmp.w	ip, #0
10003000:	d1f9      	bne.n	10002ff6 <vTaskSuspendAll.part.0+0x62>
10003002:	e8c2 3f4c 	strexb	ip, r3, [r2]
10003006:	f1bc 0f00 	cmp.w	ip, #0
1000300a:	d1f4      	bne.n	10002ff6 <vTaskSuspendAll.part.0+0x62>
1000300c:	f3bf 8f5f 	dmb	sy
10003010:	2301      	movs	r3, #1
10003012:	7023      	strb	r3, [r4, #0]
10003014:	f805 3011 	strb.w	r3, [r5, r1, lsl #1]
10003018:	f04f 4150 	mov.w	r1, #3489660928	; 0xd0000000
1000301c:	6833      	ldr	r3, [r6, #0]
1000301e:	3301      	adds	r3, #1
10003020:	6033      	str	r3, [r6, #0]
10003022:	7823      	ldrb	r3, [r4, #0]
10003024:	6809      	ldr	r1, [r1, #0]
10003026:	3b01      	subs	r3, #1
10003028:	b2db      	uxtb	r3, r3
1000302a:	7023      	strb	r3, [r4, #0]
1000302c:	b91b      	cbnz	r3, 10003036 <vTaskSuspendAll.part.0+0xa2>
1000302e:	f805 3011 	strb.w	r3, [r5, r1, lsl #1]
10003032:	e8c2 3f8f 	stlb	r3, [r2]
10003036:	b002      	add	sp, #8
10003038:	e8bd 4070 	ldmia.w	sp!, {r4, r5, r6, lr}
1000303c:	f7ff b938 	b.w	100022b0 <vClearInterruptMask>
10003040:	0051      	lsls	r1, r2, #1
10003042:	eb05 0242 	add.w	r2, r5, r2, lsl #1
10003046:	7852      	ldrb	r2, [r2, #1]
10003048:	b982      	cbnz	r2, 1000306c <vTaskSuspendAll.part.0+0xd8>
1000304a:	e8d3 4fcf 	ldaexb	r4, [r3]
1000304e:	2201      	movs	r2, #1
10003050:	2c00      	cmp	r4, #0
10003052:	d1fa      	bne.n	1000304a <vTaskSuspendAll.part.0+0xb6>
10003054:	e8c3 2f44 	strexb	r4, r2, [r3]
10003058:	2c00      	cmp	r4, #0
1000305a:	d1f6      	bne.n	1000304a <vTaskSuspendAll.part.0+0xb6>
1000305c:	f3bf 8f5f 	dmb	sy
10003060:	e7ad      	b.n	10002fbe <vTaskSuspendAll.part.0+0x2a>
10003062:	9001      	str	r0, [sp, #4]
10003064:	f7ff fee6 	bl	10002e34 <prvCheckForRunStateChange>
10003068:	9801      	ldr	r0, [sp, #4]
1000306a:	e7b1      	b.n	10002fd0 <vTaskSuspendAll.part.0+0x3c>
1000306c:	4c07      	ldr	r4, [pc, #28]	; (1000308c <vTaskSuspendAll.part.0+0xf8>)
1000306e:	7863      	ldrb	r3, [r4, #1]
10003070:	3301      	adds	r3, #1
10003072:	b2db      	uxtb	r3, r3
10003074:	7063      	strb	r3, [r4, #1]
10003076:	e7a7      	b.n	10002fc8 <vTaskSuspendAll.part.0+0x34>
10003078:	7823      	ldrb	r3, [r4, #0]
1000307a:	3301      	adds	r3, #1
1000307c:	b2db      	uxtb	r3, r3
1000307e:	7023      	strb	r3, [r4, #0]
10003080:	e7ca      	b.n	10003018 <vTaskSuspendAll.part.0+0x84>
10003082:	bf00      	nop
10003084:	20001677 	.word	0x20001677
10003088:	200421d0 	.word	0x200421d0
1000308c:	200421d4 	.word	0x200421d4
10003090:	20042200 	.word	0x20042200
10003094:	20001676 	.word	0x20001676

10003098 <prvCheckTasksWaitingTermination>:
10003098:	e92d 43f8 	stmdb	sp!, {r3, r4, r5, r6, r7, r8, r9, lr}
1000309c:	4c5e      	ldr	r4, [pc, #376]	; (10003218 <prvCheckTasksWaitingTermination+0x180>)
1000309e:	4d5f      	ldr	r5, [pc, #380]	; (1000321c <prvCheckTasksWaitingTermination+0x184>)
100030a0:	4e5f      	ldr	r6, [pc, #380]	; (10003220 <prvCheckTasksWaitingTermination+0x188>)
100030a2:	f8df 8198 	ldr.w	r8, [pc, #408]	; 1000323c <prvCheckTasksWaitingTermination+0x1a4>
100030a6:	4f5f      	ldr	r7, [pc, #380]	; (10003224 <prvCheckTasksWaitingTermination+0x18c>)
100030a8:	6823      	ldr	r3, [r4, #0]
100030aa:	2b00      	cmp	r3, #0
100030ac:	d03a      	beq.n	10003124 <prvCheckTasksWaitingTermination+0x8c>
100030ae:	f7ff f8f3 	bl	10002298 <ulSetInterruptMask>
100030b2:	682b      	ldr	r3, [r5, #0]
100030b4:	b193      	cbz	r3, 100030dc <prvCheckTasksWaitingTermination+0x44>
100030b6:	f04f 4350 	mov.w	r3, #3489660928	; 0xd0000000
100030ba:	681b      	ldr	r3, [r3, #0]
100030bc:	f856 2023 	ldr.w	r2, [r6, r3, lsl #2]
100030c0:	2a00      	cmp	r2, #0
100030c2:	d041      	beq.n	10003148 <prvCheckTasksWaitingTermination+0xb0>
100030c4:	f04f 4150 	mov.w	r1, #3489660928	; 0xd0000000
100030c8:	f856 2023 	ldr.w	r2, [r6, r3, lsl #2]
100030cc:	3201      	adds	r2, #1
100030ce:	f846 2023 	str.w	r2, [r6, r3, lsl #2]
100030d2:	680b      	ldr	r3, [r1, #0]
100030d4:	f856 3023 	ldr.w	r3, [r6, r3, lsl #2]
100030d8:	2b01      	cmp	r3, #1
100030da:	d02e      	beq.n	1000313a <prvCheckTasksWaitingTermination+0xa2>
100030dc:	6823      	ldr	r3, [r4, #0]
100030de:	b31b      	cbz	r3, 10003128 <prvCheckTasksWaitingTermination+0x90>
100030e0:	4b51      	ldr	r3, [pc, #324]	; (10003228 <prvCheckTasksWaitingTermination+0x190>)
100030e2:	68db      	ldr	r3, [r3, #12]
100030e4:	f8d3 900c 	ldr.w	r9, [r3, #12]
100030e8:	f8d9 3038 	ldr.w	r3, [r9, #56]	; 0x38
100030ec:	3301      	adds	r3, #1
100030ee:	f040 808b 	bne.w	10003208 <prvCheckTasksWaitingTermination+0x170>
100030f2:	f109 0008 	add.w	r0, r9, #8
100030f6:	f7ff fa4f 	bl	10002598 <uxListRemove>
100030fa:	4a4c      	ldr	r2, [pc, #304]	; (1000322c <prvCheckTasksWaitingTermination+0x194>)
100030fc:	6813      	ldr	r3, [r2, #0]
100030fe:	3b01      	subs	r3, #1
10003100:	6013      	str	r3, [r2, #0]
10003102:	6823      	ldr	r3, [r4, #0]
10003104:	3b01      	subs	r3, #1
10003106:	6023      	str	r3, [r4, #0]
10003108:	682b      	ldr	r3, [r5, #0]
1000310a:	b10b      	cbz	r3, 10003110 <prvCheckTasksWaitingTermination+0x78>
1000310c:	f7ff fe4c 	bl	10002da8 <vTaskExitCritical.part.0>
10003110:	f8d9 0034 	ldr.w	r0, [r9, #52]	; 0x34
10003114:	f7fe fdc8 	bl	10001ca8 <vPortFree>
10003118:	4648      	mov	r0, r9
1000311a:	f7fe fdc5 	bl	10001ca8 <vPortFree>
1000311e:	6823      	ldr	r3, [r4, #0]
10003120:	2b00      	cmp	r3, #0
10003122:	d1c4      	bne.n	100030ae <prvCheckTasksWaitingTermination+0x16>
10003124:	e8bd 83f8 	ldmia.w	sp!, {r3, r4, r5, r6, r7, r8, r9, pc}
10003128:	682b      	ldr	r3, [r5, #0]
1000312a:	2b00      	cmp	r3, #0
1000312c:	d0bc      	beq.n	100030a8 <prvCheckTasksWaitingTermination+0x10>
1000312e:	f7ff fe3b 	bl	10002da8 <vTaskExitCritical.part.0>
10003132:	6823      	ldr	r3, [r4, #0]
10003134:	2b00      	cmp	r3, #0
10003136:	d1ba      	bne.n	100030ae <prvCheckTasksWaitingTermination+0x16>
10003138:	e7f4      	b.n	10003124 <prvCheckTasksWaitingTermination+0x8c>
1000313a:	f8d8 3000 	ldr.w	r3, [r8]
1000313e:	2b00      	cmp	r3, #0
10003140:	d1cc      	bne.n	100030dc <prvCheckTasksWaitingTermination+0x44>
10003142:	f7ff fe77 	bl	10002e34 <prvCheckForRunStateChange>
10003146:	e7c9      	b.n	100030dc <prvCheckTasksWaitingTermination+0x44>
10003148:	e8d7 2fcf 	ldaexb	r2, [r7]
1000314c:	2101      	movs	r1, #1
1000314e:	2a00      	cmp	r2, #0
10003150:	d101      	bne.n	10003156 <prvCheckTasksWaitingTermination+0xbe>
10003152:	e8c7 1f42 	strexb	r2, r1, [r7]
10003156:	f3bf 8f5f 	dmb	sy
1000315a:	2a00      	cmp	r2, #0
1000315c:	d135      	bne.n	100031ca <prvCheckTasksWaitingTermination+0x132>
1000315e:	4a34      	ldr	r2, [pc, #208]	; (10003230 <prvCheckTasksWaitingTermination+0x198>)
10003160:	0059      	lsls	r1, r3, #1
10003162:	2301      	movs	r3, #1
10003164:	4833      	ldr	r0, [pc, #204]	; (10003234 <prvCheckTasksWaitingTermination+0x19c>)
10003166:	4411      	add	r1, r2
10003168:	7043      	strb	r3, [r0, #1]
1000316a:	704b      	strb	r3, [r1, #1]
1000316c:	f04f 4c50 	mov.w	ip, #3489660928	; 0xd0000000
10003170:	4b31      	ldr	r3, [pc, #196]	; (10003238 <prvCheckTasksWaitingTermination+0x1a0>)
10003172:	f8dc 1000 	ldr.w	r1, [ip]
10003176:	e8d3 efcf 	ldaexb	lr, [r3]
1000317a:	f05f 0901 	movs.w	r9, #1
1000317e:	f1be 0f00 	cmp.w	lr, #0
10003182:	d101      	bne.n	10003188 <prvCheckTasksWaitingTermination+0xf0>
10003184:	e8c3 9f4e 	strexb	lr, r9, [r3]
10003188:	f3bf 8f5f 	dmb	sy
1000318c:	f1be 0f00 	cmp.w	lr, #0
10003190:	d012      	beq.n	100031b8 <prvCheckTasksWaitingTermination+0x120>
10003192:	f812 e011 	ldrb.w	lr, [r2, r1, lsl #1]
10003196:	f1be 0f00 	cmp.w	lr, #0
1000319a:	d128      	bne.n	100031ee <prvCheckTasksWaitingTermination+0x156>
1000319c:	e8d3 efcf 	ldaexb	lr, [r3]
100031a0:	f05f 0c01 	movs.w	ip, #1
100031a4:	f1be 0f00 	cmp.w	lr, #0
100031a8:	d1f8      	bne.n	1000319c <prvCheckTasksWaitingTermination+0x104>
100031aa:	e8c3 cf4e 	strexb	lr, ip, [r3]
100031ae:	f1be 0f00 	cmp.w	lr, #0
100031b2:	d1f3      	bne.n	1000319c <prvCheckTasksWaitingTermination+0x104>
100031b4:	f3bf 8f5f 	dmb	sy
100031b8:	2301      	movs	r3, #1
100031ba:	f04f 4c50 	mov.w	ip, #3489660928	; 0xd0000000
100031be:	7003      	strb	r3, [r0, #0]
100031c0:	f802 3011 	strb.w	r3, [r2, r1, lsl #1]
100031c4:	f8dc 3000 	ldr.w	r3, [ip]
100031c8:	e77c      	b.n	100030c4 <prvCheckTasksWaitingTermination+0x2c>
100031ca:	4a19      	ldr	r2, [pc, #100]	; (10003230 <prvCheckTasksWaitingTermination+0x198>)
100031cc:	0059      	lsls	r1, r3, #1
100031ce:	eb02 0343 	add.w	r3, r2, r3, lsl #1
100031d2:	785b      	ldrb	r3, [r3, #1]
100031d4:	b993      	cbnz	r3, 100031fc <prvCheckTasksWaitingTermination+0x164>
100031d6:	e8d7 0fcf 	ldaexb	r0, [r7]
100031da:	2301      	movs	r3, #1
100031dc:	2800      	cmp	r0, #0
100031de:	d1fa      	bne.n	100031d6 <prvCheckTasksWaitingTermination+0x13e>
100031e0:	e8c7 3f40 	strexb	r0, r3, [r7]
100031e4:	2800      	cmp	r0, #0
100031e6:	d1f6      	bne.n	100031d6 <prvCheckTasksWaitingTermination+0x13e>
100031e8:	f3bf 8f5f 	dmb	sy
100031ec:	e7b9      	b.n	10003162 <prvCheckTasksWaitingTermination+0xca>
100031ee:	7803      	ldrb	r3, [r0, #0]
100031f0:	3301      	adds	r3, #1
100031f2:	b2db      	uxtb	r3, r3
100031f4:	7003      	strb	r3, [r0, #0]
100031f6:	f8dc 3000 	ldr.w	r3, [ip]
100031fa:	e763      	b.n	100030c4 <prvCheckTasksWaitingTermination+0x2c>
100031fc:	480d      	ldr	r0, [pc, #52]	; (10003234 <prvCheckTasksWaitingTermination+0x19c>)
100031fe:	7843      	ldrb	r3, [r0, #1]
10003200:	3301      	adds	r3, #1
10003202:	b2db      	uxtb	r3, r3
10003204:	7043      	strb	r3, [r0, #1]
10003206:	e7b1      	b.n	1000316c <prvCheckTasksWaitingTermination+0xd4>
10003208:	682b      	ldr	r3, [r5, #0]
1000320a:	2b00      	cmp	r3, #0
1000320c:	d08a      	beq.n	10003124 <prvCheckTasksWaitingTermination+0x8c>
1000320e:	e8bd 43f8 	ldmia.w	sp!, {r3, r4, r5, r6, r7, r8, r9, lr}
10003212:	f7ff bdc9 	b.w	10002da8 <vTaskExitCritical.part.0>
10003216:	bf00      	nop
10003218:	200421fc 	.word	0x200421fc
1000321c:	2004229c 	.word	0x2004229c
10003220:	200421d8 	.word	0x200421d8
10003224:	20001677 	.word	0x20001677
10003228:	200422bc 	.word	0x200422bc
1000322c:	200421f8 	.word	0x200421f8
10003230:	200421d0 	.word	0x200421d0
10003234:	200421d4 	.word	0x200421d4
10003238:	20001676 	.word	0x20001676
1000323c:	20042200 	.word	0x20042200

10003240 <prvIdleTask>:
10003240:	b508      	push	{r3, lr}
10003242:	f7fe fe55 	bl	10001ef0 <vPortYield>
10003246:	4c04      	ldr	r4, [pc, #16]	; (10003258 <prvIdleTask+0x18>)
10003248:	f7ff ff26 	bl	10003098 <prvCheckTasksWaitingTermination>
1000324c:	6823      	ldr	r3, [r4, #0]
1000324e:	2b02      	cmp	r3, #2
10003250:	d9fa      	bls.n	10003248 <prvIdleTask+0x8>
10003252:	f7fe fe4d 	bl	10001ef0 <vPortYield>
10003256:	e7f7      	b.n	10003248 <prvIdleTask+0x8>
10003258:	20001f3c 	.word	0x20001f3c

1000325c <prvAddCurrentTaskToDelayedList>:
1000325c:	e92d 4ff8 	stmdb	sp!, {r3, r4, r5, r6, r7, r8, r9, sl, fp, lr}
10003260:	f04f 4550 	mov.w	r5, #3489660928	; 0xd0000000
10003264:	4a46      	ldr	r2, [pc, #280]	; (10003380 <prvAddCurrentTaskToDelayedList+0x124>)
10003266:	4b47      	ldr	r3, [pc, #284]	; (10003384 <prvAddCurrentTaskToDelayedList+0x128>)
10003268:	4c47      	ldr	r4, [pc, #284]	; (10003388 <prvAddCurrentTaskToDelayedList+0x12c>)
1000326a:	460f      	mov	r7, r1
1000326c:	f8d4 a000 	ldr.w	sl, [r4]
10003270:	4e46      	ldr	r6, [pc, #280]	; (1000338c <prvAddCurrentTaskToDelayedList+0x130>)
10003272:	f8d2 8000 	ldr.w	r8, [r2]
10003276:	4604      	mov	r4, r0
10003278:	f8d3 9000 	ldr.w	r9, [r3]
1000327c:	f7ff f80c 	bl	10002298 <ulSetInterruptMask>
10003280:	682b      	ldr	r3, [r5, #0]
10003282:	f856 b023 	ldr.w	fp, [r6, r3, lsl #2]
10003286:	f7ff f813 	bl	100022b0 <vClearInterruptMask>
1000328a:	2300      	movs	r3, #0
1000328c:	f88b 3079 	strb.w	r3, [fp, #121]	; 0x79
10003290:	f7ff f802 	bl	10002298 <ulSetInterruptMask>
10003294:	682b      	ldr	r3, [r5, #0]
10003296:	f856 b023 	ldr.w	fp, [r6, r3, lsl #2]
1000329a:	f7ff f809 	bl	100022b0 <vClearInterruptMask>
1000329e:	f10b 0008 	add.w	r0, fp, #8
100032a2:	f7ff f979 	bl	10002598 <uxListRemove>
100032a6:	1c63      	adds	r3, r4, #1
100032a8:	d100      	bne.n	100032ac <prvAddCurrentTaskToDelayedList+0x50>
100032aa:	bb8f      	cbnz	r7, 10003310 <prvAddCurrentTaskToDelayedList+0xb4>
100032ac:	f04f 4550 	mov.w	r5, #3489660928	; 0xd0000000
100032b0:	eb1a 0404 	adds.w	r4, sl, r4
100032b4:	bf2c      	ite	cs
100032b6:	2701      	movcs	r7, #1
100032b8:	2700      	movcc	r7, #0
100032ba:	f7fe ffed 	bl	10002298 <ulSetInterruptMask>
100032be:	682b      	ldr	r3, [r5, #0]
100032c0:	f856 a023 	ldr.w	sl, [r6, r3, lsl #2]
100032c4:	f7fe fff4 	bl	100022b0 <vClearInterruptMask>
100032c8:	f8ca 4008 	str.w	r4, [sl, #8]
100032cc:	b997      	cbnz	r7, 100032f4 <prvAddCurrentTaskToDelayedList+0x98>
100032ce:	f7fe ffe3 	bl	10002298 <ulSetInterruptMask>
100032d2:	682b      	ldr	r3, [r5, #0]
100032d4:	f856 5023 	ldr.w	r5, [r6, r3, lsl #2]
100032d8:	f7fe ffea 	bl	100022b0 <vClearInterruptMask>
100032dc:	4640      	mov	r0, r8
100032de:	f105 0108 	add.w	r1, r5, #8
100032e2:	f7ff f941 	bl	10002568 <vListInsert>
100032e6:	4b2a      	ldr	r3, [pc, #168]	; (10003390 <prvAddCurrentTaskToDelayedList+0x134>)
100032e8:	681a      	ldr	r2, [r3, #0]
100032ea:	42a2      	cmp	r2, r4
100032ec:	bf88      	it	hi
100032ee:	601c      	strhi	r4, [r3, #0]
100032f0:	e8bd 8ff8 	ldmia.w	sp!, {r3, r4, r5, r6, r7, r8, r9, sl, fp, pc}
100032f4:	f7fe ffd0 	bl	10002298 <ulSetInterruptMask>
100032f8:	682b      	ldr	r3, [r5, #0]
100032fa:	f856 4023 	ldr.w	r4, [r6, r3, lsl #2]
100032fe:	f7fe ffd7 	bl	100022b0 <vClearInterruptMask>
10003302:	4648      	mov	r0, r9
10003304:	f104 0108 	add.w	r1, r4, #8
10003308:	e8bd 4ff8 	ldmia.w	sp!, {r3, r4, r5, r6, r7, r8, r9, sl, fp, lr}
1000330c:	f7ff b92c 	b.w	10002568 <vListInsert>
10003310:	4c20      	ldr	r4, [pc, #128]	; (10003394 <prvAddCurrentTaskToDelayedList+0x138>)
10003312:	6867      	ldr	r7, [r4, #4]
10003314:	f7fe ffc0 	bl	10002298 <ulSetInterruptMask>
10003318:	682b      	ldr	r3, [r5, #0]
1000331a:	f856 8023 	ldr.w	r8, [r6, r3, lsl #2]
1000331e:	f7fe ffc7 	bl	100022b0 <vClearInterruptMask>
10003322:	f8c8 700c 	str.w	r7, [r8, #12]
10003326:	f7fe ffb7 	bl	10002298 <ulSetInterruptMask>
1000332a:	682b      	ldr	r3, [r5, #0]
1000332c:	f856 8023 	ldr.w	r8, [r6, r3, lsl #2]
10003330:	f7fe ffbe 	bl	100022b0 <vClearInterruptMask>
10003334:	68bb      	ldr	r3, [r7, #8]
10003336:	f8c8 3010 	str.w	r3, [r8, #16]
1000333a:	f7fe ffad 	bl	10002298 <ulSetInterruptMask>
1000333e:	682b      	ldr	r3, [r5, #0]
10003340:	f856 8023 	ldr.w	r8, [r6, r3, lsl #2]
10003344:	f7fe ffb4 	bl	100022b0 <vClearInterruptMask>
10003348:	68ba      	ldr	r2, [r7, #8]
1000334a:	f108 0308 	add.w	r3, r8, #8
1000334e:	6053      	str	r3, [r2, #4]
10003350:	f7fe ffa2 	bl	10002298 <ulSetInterruptMask>
10003354:	682b      	ldr	r3, [r5, #0]
10003356:	f856 8023 	ldr.w	r8, [r6, r3, lsl #2]
1000335a:	f7fe ffa9 	bl	100022b0 <vClearInterruptMask>
1000335e:	f108 0308 	add.w	r3, r8, #8
10003362:	60bb      	str	r3, [r7, #8]
10003364:	f7fe ff98 	bl	10002298 <ulSetInterruptMask>
10003368:	682b      	ldr	r3, [r5, #0]
1000336a:	f856 5023 	ldr.w	r5, [r6, r3, lsl #2]
1000336e:	f7fe ff9f 	bl	100022b0 <vClearInterruptMask>
10003372:	6823      	ldr	r3, [r4, #0]
10003374:	61ac      	str	r4, [r5, #24]
10003376:	3301      	adds	r3, #1
10003378:	6023      	str	r3, [r4, #0]
1000337a:	e8bd 8ff8 	ldmia.w	sp!, {r3, r4, r5, r6, r7, r8, r9, sl, fp, pc}
1000337e:	bf00      	nop
10003380:	20001f2c 	.word	0x20001f2c
10003384:	20001f34 	.word	0x20001f34
10003388:	200422d0 	.word	0x200422d0
1000338c:	20001f20 	.word	0x20001f20
10003390:	20042274 	.word	0x20042274
10003394:	200422a8 	.word	0x200422a8

10003398 <vTaskSuspendAll>:
10003398:	4b02      	ldr	r3, [pc, #8]	; (100033a4 <vTaskSuspendAll+0xc>)
1000339a:	681b      	ldr	r3, [r3, #0]
1000339c:	b903      	cbnz	r3, 100033a0 <vTaskSuspendAll+0x8>
1000339e:	4770      	bx	lr
100033a0:	f7ff bdf8 	b.w	10002f94 <vTaskSuspendAll.part.0>
100033a4:	2004229c 	.word	0x2004229c

100033a8 <xTaskGetTickCount>:
100033a8:	4b01      	ldr	r3, [pc, #4]	; (100033b0 <xTaskGetTickCount+0x8>)
100033aa:	6818      	ldr	r0, [r3, #0]
100033ac:	4770      	bx	lr
100033ae:	bf00      	nop
100033b0:	200422d0 	.word	0x200422d0

100033b4 <uxTaskGetNumberOfTasks>:
100033b4:	4b01      	ldr	r3, [pc, #4]	; (100033bc <uxTaskGetNumberOfTasks+0x8>)
100033b6:	6818      	ldr	r0, [r3, #0]
100033b8:	4770      	bx	lr
100033ba:	bf00      	nop
100033bc:	200421f8 	.word	0x200421f8

100033c0 <xTaskIncrementTick>:
100033c0:	e92d 4ff8 	stmdb	sp!, {r3, r4, r5, r6, r7, r8, r9, sl, fp, lr}
100033c4:	4b91      	ldr	r3, [pc, #580]	; (1000360c <xTaskIncrementTick+0x24c>)
100033c6:	681b      	ldr	r3, [r3, #0]
100033c8:	2b00      	cmp	r3, #0
100033ca:	d14e      	bne.n	1000346a <xTaskIncrementTick+0xaa>
100033cc:	4b90      	ldr	r3, [pc, #576]	; (10003610 <xTaskIncrementTick+0x250>)
100033ce:	681d      	ldr	r5, [r3, #0]
100033d0:	3501      	adds	r5, #1
100033d2:	601d      	str	r5, [r3, #0]
100033d4:	2d00      	cmp	r5, #0
100033d6:	d050      	beq.n	1000347a <xTaskIncrementTick+0xba>
100033d8:	f8df 9254 	ldr.w	r9, [pc, #596]	; 10003630 <xTaskIncrementTick+0x270>
100033dc:	f8d9 3000 	ldr.w	r3, [r9]
100033e0:	42ab      	cmp	r3, r5
100033e2:	d963      	bls.n	100034ac <xTaskIncrementTick+0xec>
100033e4:	4c8b      	ldr	r4, [pc, #556]	; (10003614 <xTaskIncrementTick+0x254>)
100033e6:	4d8c      	ldr	r5, [pc, #560]	; (10003618 <xTaskIncrementTick+0x258>)
100033e8:	682b      	ldr	r3, [r5, #0]
100033ea:	6b1b      	ldr	r3, [r3, #48]	; 0x30
100033ec:	eb03 0383 	add.w	r3, r3, r3, lsl #2
100033f0:	f854 3023 	ldr.w	r3, [r4, r3, lsl #2]
100033f4:	2b01      	cmp	r3, #1
100033f6:	f240 80c1 	bls.w	1000357c <xTaskIncrementTick+0x1bc>
100033fa:	686b      	ldr	r3, [r5, #4]
100033fc:	6b1b      	ldr	r3, [r3, #48]	; 0x30
100033fe:	eb03 0383 	add.w	r3, r3, r3, lsl #2
10003402:	f854 3023 	ldr.w	r3, [r4, r3, lsl #2]
10003406:	2b01      	cmp	r3, #1
10003408:	f04f 4350 	mov.w	r3, #3489660928	; 0xd0000000
1000340c:	f240 80d1 	bls.w	100035b2 <xTaskIncrementTick+0x1f2>
10003410:	681b      	ldr	r3, [r3, #0]
10003412:	2401      	movs	r4, #1
10003414:	461e      	mov	r6, r3
10003416:	2e00      	cmp	r6, #0
10003418:	f000 80f4 	beq.w	10003604 <xTaskIncrementTick+0x244>
1000341c:	2b00      	cmp	r3, #0
1000341e:	f000 80da 	beq.w	100035d6 <xTaskIncrementTick+0x216>
10003422:	682b      	ldr	r3, [r5, #0]
10003424:	6b9b      	ldr	r3, [r3, #56]	; 0x38
10003426:	3302      	adds	r3, #2
10003428:	d006      	beq.n	10003438 <xTaskIncrementTick+0x78>
1000342a:	2000      	movs	r0, #0
1000342c:	f7fe ff04 	bl	10002238 <vYieldCore>
10003430:	f06f 0201 	mvn.w	r2, #1
10003434:	682b      	ldr	r3, [r5, #0]
10003436:	639a      	str	r2, [r3, #56]	; 0x38
10003438:	2c00      	cmp	r4, #0
1000343a:	f000 80d1 	beq.w	100035e0 <xTaskIncrementTick+0x220>
1000343e:	2400      	movs	r4, #0
10003440:	2e01      	cmp	r6, #1
10003442:	f000 80dd 	beq.w	10003600 <xTaskIncrementTick+0x240>
10003446:	f04f 4350 	mov.w	r3, #3489660928	; 0xd0000000
1000344a:	681b      	ldr	r3, [r3, #0]
1000344c:	2b01      	cmp	r3, #1
1000344e:	f000 80d2 	beq.w	100035f6 <xTaskIncrementTick+0x236>
10003452:	686b      	ldr	r3, [r5, #4]
10003454:	6b9b      	ldr	r3, [r3, #56]	; 0x38
10003456:	3302      	adds	r3, #2
10003458:	d00c      	beq.n	10003474 <xTaskIncrementTick+0xb4>
1000345a:	2001      	movs	r0, #1
1000345c:	f7fe feec 	bl	10002238 <vYieldCore>
10003460:	f06f 0201 	mvn.w	r2, #1
10003464:	686b      	ldr	r3, [r5, #4]
10003466:	639a      	str	r2, [r3, #56]	; 0x38
10003468:	e004      	b.n	10003474 <xTaskIncrementTick+0xb4>
1000346a:	2400      	movs	r4, #0
1000346c:	4a6b      	ldr	r2, [pc, #428]	; (1000361c <xTaskIncrementTick+0x25c>)
1000346e:	6813      	ldr	r3, [r2, #0]
10003470:	3301      	adds	r3, #1
10003472:	6013      	str	r3, [r2, #0]
10003474:	4620      	mov	r0, r4
10003476:	e8bd 8ff8 	ldmia.w	sp!, {r3, r4, r5, r6, r7, r8, r9, sl, fp, pc}
1000347a:	4b69      	ldr	r3, [pc, #420]	; (10003620 <xTaskIncrementTick+0x260>)
1000347c:	4a69      	ldr	r2, [pc, #420]	; (10003624 <xTaskIncrementTick+0x264>)
1000347e:	6818      	ldr	r0, [r3, #0]
10003480:	6811      	ldr	r1, [r2, #0]
10003482:	6019      	str	r1, [r3, #0]
10003484:	4968      	ldr	r1, [pc, #416]	; (10003628 <xTaskIncrementTick+0x268>)
10003486:	6010      	str	r0, [r2, #0]
10003488:	680a      	ldr	r2, [r1, #0]
1000348a:	3201      	adds	r2, #1
1000348c:	600a      	str	r2, [r1, #0]
1000348e:	681a      	ldr	r2, [r3, #0]
10003490:	6812      	ldr	r2, [r2, #0]
10003492:	2a00      	cmp	r2, #0
10003494:	f040 8085 	bne.w	100035a2 <xTaskIncrementTick+0x1e2>
10003498:	f04f 33ff 	mov.w	r3, #4294967295
1000349c:	f8df 9190 	ldr.w	r9, [pc, #400]	; 10003630 <xTaskIncrementTick+0x270>
100034a0:	f8c9 3000 	str.w	r3, [r9]
100034a4:	f8d9 3000 	ldr.w	r3, [r9]
100034a8:	42ab      	cmp	r3, r5
100034aa:	d89b      	bhi.n	100033e4 <xTaskIncrementTick+0x24>
100034ac:	4e5c      	ldr	r6, [pc, #368]	; (10003620 <xTaskIncrementTick+0x260>)
100034ae:	6833      	ldr	r3, [r6, #0]
100034b0:	681b      	ldr	r3, [r3, #0]
100034b2:	2b00      	cmp	r3, #0
100034b4:	f000 8099 	beq.w	100035ea <xTaskIncrementTick+0x22a>
100034b8:	f04f 0b00 	mov.w	fp, #0
100034bc:	4c55      	ldr	r4, [pc, #340]	; (10003614 <xTaskIncrementTick+0x254>)
100034be:	f8df 8174 	ldr.w	r8, [pc, #372]	; 10003634 <xTaskIncrementTick+0x274>
100034c2:	e04e      	b.n	10003562 <xTaskIncrementTick+0x1a2>
100034c4:	f8d2 c018 	ldr.w	ip, [r2, #24]
100034c8:	e9d2 3a03 	ldrd	r3, sl, [r2, #12]
100034cc:	f8c3 a008 	str.w	sl, [r3, #8]
100034d0:	f8ca 3004 	str.w	r3, [sl, #4]
100034d4:	f8dc 3004 	ldr.w	r3, [ip, #4]
100034d8:	4610      	mov	r0, r2
100034da:	428b      	cmp	r3, r1
100034dc:	f8dc 3000 	ldr.w	r3, [ip]
100034e0:	bf08      	it	eq
100034e2:	f8cc a004 	streq.w	sl, [ip, #4]
100034e6:	3b01      	subs	r3, #1
100034e8:	f8c2 b018 	str.w	fp, [r2, #24]
100034ec:	f8cc 3000 	str.w	r3, [ip]
100034f0:	f8d2 c02c 	ldr.w	ip, [r2, #44]	; 0x2c
100034f4:	f1bc 0f00 	cmp.w	ip, #0
100034f8:	d013      	beq.n	10003522 <xTaskIncrementTick+0x162>
100034fa:	e9d2 a308 	ldrd	sl, r3, [r2, #32]
100034fe:	f8dc 7004 	ldr.w	r7, [ip, #4]
10003502:	f8ca 3008 	str.w	r3, [sl, #8]
10003506:	6a53      	ldr	r3, [r2, #36]	; 0x24
10003508:	4577      	cmp	r7, lr
1000350a:	f8c3 a004 	str.w	sl, [r3, #4]
1000350e:	bf08      	it	eq
10003510:	f8cc 3004 	streq.w	r3, [ip, #4]
10003514:	f8dc 3000 	ldr.w	r3, [ip]
10003518:	f8c2 b02c 	str.w	fp, [r2, #44]	; 0x2c
1000351c:	3b01      	subs	r3, #1
1000351e:	f8cc 3000 	str.w	r3, [ip]
10003522:	6b13      	ldr	r3, [r2, #48]	; 0x30
10003524:	f8d8 c000 	ldr.w	ip, [r8]
10003528:	eb03 0e83 	add.w	lr, r3, r3, lsl #2
1000352c:	4563      	cmp	r3, ip
1000352e:	eb04 0a8e 	add.w	sl, r4, lr, lsl #2
10003532:	bf88      	it	hi
10003534:	f8c8 3000 	strhi.w	r3, [r8]
10003538:	f8da 3004 	ldr.w	r3, [sl, #4]
1000353c:	689f      	ldr	r7, [r3, #8]
1000353e:	60d3      	str	r3, [r2, #12]
10003540:	6117      	str	r7, [r2, #16]
10003542:	689f      	ldr	r7, [r3, #8]
10003544:	6079      	str	r1, [r7, #4]
10003546:	6099      	str	r1, [r3, #8]
10003548:	f854 302e 	ldr.w	r3, [r4, lr, lsl #2]
1000354c:	f8c2 a018 	str.w	sl, [r2, #24]
10003550:	3301      	adds	r3, #1
10003552:	f844 302e 	str.w	r3, [r4, lr, lsl #2]
10003556:	f7ff fbc1 	bl	10002cdc <prvYieldForTask>
1000355a:	6833      	ldr	r3, [r6, #0]
1000355c:	681b      	ldr	r3, [r3, #0]
1000355e:	2b00      	cmp	r3, #0
10003560:	d044      	beq.n	100035ec <xTaskIncrementTick+0x22c>
10003562:	6833      	ldr	r3, [r6, #0]
10003564:	68db      	ldr	r3, [r3, #12]
10003566:	68da      	ldr	r2, [r3, #12]
10003568:	6893      	ldr	r3, [r2, #8]
1000356a:	f102 0108 	add.w	r1, r2, #8
1000356e:	429d      	cmp	r5, r3
10003570:	f102 0e1c 	add.w	lr, r2, #28
10003574:	d2a6      	bcs.n	100034c4 <xTaskIncrementTick+0x104>
10003576:	f8c9 3000 	str.w	r3, [r9]
1000357a:	e734      	b.n	100033e6 <xTaskIncrementTick+0x26>
1000357c:	686b      	ldr	r3, [r5, #4]
1000357e:	6b1b      	ldr	r3, [r3, #48]	; 0x30
10003580:	eb03 0383 	add.w	r3, r3, r3, lsl #2
10003584:	f854 3023 	ldr.w	r3, [r4, r3, lsl #2]
10003588:	2b01      	cmp	r3, #1
1000358a:	d916      	bls.n	100035ba <xTaskIncrementTick+0x1fa>
1000358c:	f04f 4350 	mov.w	r3, #3489660928	; 0xd0000000
10003590:	4a26      	ldr	r2, [pc, #152]	; (1000362c <xTaskIncrementTick+0x26c>)
10003592:	681e      	ldr	r6, [r3, #0]
10003594:	6812      	ldr	r2, [r2, #0]
10003596:	4633      	mov	r3, r6
10003598:	2a00      	cmp	r2, #0
1000359a:	f43f af50 	beq.w	1000343e <xTaskIncrementTick+0x7e>
1000359e:	2401      	movs	r4, #1
100035a0:	e739      	b.n	10003416 <xTaskIncrementTick+0x56>
100035a2:	681b      	ldr	r3, [r3, #0]
100035a4:	f8df 9088 	ldr.w	r9, [pc, #136]	; 10003630 <xTaskIncrementTick+0x270>
100035a8:	68db      	ldr	r3, [r3, #12]
100035aa:	681b      	ldr	r3, [r3, #0]
100035ac:	f8c9 3000 	str.w	r3, [r9]
100035b0:	e714      	b.n	100033dc <xTaskIncrementTick+0x1c>
100035b2:	681b      	ldr	r3, [r3, #0]
100035b4:	2400      	movs	r4, #0
100035b6:	461e      	mov	r6, r3
100035b8:	e72d      	b.n	10003416 <xTaskIncrementTick+0x56>
100035ba:	f04f 4350 	mov.w	r3, #3489660928	; 0xd0000000
100035be:	4a1b      	ldr	r2, [pc, #108]	; (1000362c <xTaskIncrementTick+0x26c>)
100035c0:	681b      	ldr	r3, [r3, #0]
100035c2:	6814      	ldr	r4, [r2, #0]
100035c4:	461e      	mov	r6, r3
100035c6:	b9fc      	cbnz	r4, 10003608 <xTaskIncrementTick+0x248>
100035c8:	6853      	ldr	r3, [r2, #4]
100035ca:	2b00      	cmp	r3, #0
100035cc:	f47f af38 	bne.w	10003440 <xTaskIncrementTick+0x80>
100035d0:	4620      	mov	r0, r4
100035d2:	e8bd 8ff8 	ldmia.w	sp!, {r3, r4, r5, r6, r7, r8, r9, sl, fp, pc}
100035d6:	2101      	movs	r1, #1
100035d8:	4a14      	ldr	r2, [pc, #80]	; (1000362c <xTaskIncrementTick+0x26c>)
100035da:	6011      	str	r1, [r2, #0]
100035dc:	b974      	cbnz	r4, 100035fc <xTaskIncrementTick+0x23c>
100035de:	461c      	mov	r4, r3
100035e0:	4a12      	ldr	r2, [pc, #72]	; (1000362c <xTaskIncrementTick+0x26c>)
100035e2:	6853      	ldr	r3, [r2, #4]
100035e4:	2b00      	cmp	r3, #0
100035e6:	d0f3      	beq.n	100035d0 <xTaskIncrementTick+0x210>
100035e8:	e72a      	b.n	10003440 <xTaskIncrementTick+0x80>
100035ea:	4c0a      	ldr	r4, [pc, #40]	; (10003614 <xTaskIncrementTick+0x254>)
100035ec:	f04f 33ff 	mov.w	r3, #4294967295
100035f0:	f8c9 3000 	str.w	r3, [r9]
100035f4:	e6f7      	b.n	100033e6 <xTaskIncrementTick+0x26>
100035f6:	4a0d      	ldr	r2, [pc, #52]	; (1000362c <xTaskIncrementTick+0x26c>)
100035f8:	6053      	str	r3, [r2, #4]
100035fa:	e73b      	b.n	10003474 <xTaskIncrementTick+0xb4>
100035fc:	461c      	mov	r4, r3
100035fe:	e722      	b.n	10003446 <xTaskIncrementTick+0x86>
10003600:	4634      	mov	r4, r6
10003602:	e737      	b.n	10003474 <xTaskIncrementTick+0xb4>
10003604:	2301      	movs	r3, #1
10003606:	e7e9      	b.n	100035dc <xTaskIncrementTick+0x21c>
10003608:	2400      	movs	r4, #0
1000360a:	e704      	b.n	10003416 <xTaskIncrementTick+0x56>
1000360c:	20042200 	.word	0x20042200
10003610:	200422d0 	.word	0x200422d0
10003614:	20001f3c 	.word	0x20001f3c
10003618:	20001f20 	.word	0x20001f20
1000361c:	20042284 	.word	0x20042284
10003620:	20001f2c 	.word	0x20001f2c
10003624:	20001f34 	.word	0x20001f34
10003628:	20042278 	.word	0x20042278
1000362c:	200422dc 	.word	0x200422dc
10003630:	20042274 	.word	0x20042274
10003634:	20042208 	.word	0x20042208

10003638 <vTaskSwitchContext>:
10003638:	e92d 4ff8 	stmdb	sp!, {r3, r4, r5, r6, r7, r8, r9, sl, fp, lr}
1000363c:	f04f 4350 	mov.w	r3, #3489660928	; 0xd0000000
10003640:	4605      	mov	r5, r0
10003642:	f8df b2ac 	ldr.w	fp, [pc, #684]	; 100038f0 <vTaskSwitchContext+0x2b8>
10003646:	681a      	ldr	r2, [r3, #0]
10003648:	e8db 3fcf 	ldaexb	r3, [fp]
1000364c:	2101      	movs	r1, #1
1000364e:	2b00      	cmp	r3, #0
10003650:	d101      	bne.n	10003656 <vTaskSwitchContext+0x1e>
10003652:	e8cb 1f43 	strexb	r3, r1, [fp]
10003656:	f3bf 8f5f 	dmb	sy
1000365a:	f8df 9298 	ldr.w	r9, [pc, #664]	; 100038f4 <vTaskSwitchContext+0x2bc>
1000365e:	2b00      	cmp	r3, #0
10003660:	d153      	bne.n	1000370a <vTaskSwitchContext+0xd2>
10003662:	0053      	lsls	r3, r2, #1
10003664:	2201      	movs	r2, #1
10003666:	f8df 8290 	ldr.w	r8, [pc, #656]	; 100038f8 <vTaskSwitchContext+0x2c0>
1000366a:	444b      	add	r3, r9
1000366c:	f888 2001 	strb.w	r2, [r8, #1]
10003670:	705a      	strb	r2, [r3, #1]
10003672:	f04f 4350 	mov.w	r3, #3489660928	; 0xd0000000
10003676:	4899      	ldr	r0, [pc, #612]	; (100038dc <vTaskSwitchContext+0x2a4>)
10003678:	681a      	ldr	r2, [r3, #0]
1000367a:	e8d0 3fcf 	ldaexb	r3, [r0]
1000367e:	2101      	movs	r1, #1
10003680:	2b00      	cmp	r3, #0
10003682:	d101      	bne.n	10003688 <vTaskSwitchContext+0x50>
10003684:	e8c0 1f43 	strexb	r3, r1, [r0]
10003688:	f3bf 8f5f 	dmb	sy
1000368c:	b183      	cbz	r3, 100036b0 <vTaskSwitchContext+0x78>
1000368e:	f819 3012 	ldrb.w	r3, [r9, r2, lsl #1]
10003692:	2b00      	cmp	r3, #0
10003694:	f040 80b7 	bne.w	10003806 <vTaskSwitchContext+0x1ce>
10003698:	4890      	ldr	r0, [pc, #576]	; (100038dc <vTaskSwitchContext+0x2a4>)
1000369a:	e8d0 1fcf 	ldaexb	r1, [r0]
1000369e:	2301      	movs	r3, #1
100036a0:	2900      	cmp	r1, #0
100036a2:	d1fa      	bne.n	1000369a <vTaskSwitchContext+0x62>
100036a4:	e8c0 3f41 	strexb	r1, r3, [r0]
100036a8:	2900      	cmp	r1, #0
100036aa:	d1f6      	bne.n	1000369a <vTaskSwitchContext+0x62>
100036ac:	f3bf 8f5f 	dmb	sy
100036b0:	2301      	movs	r3, #1
100036b2:	f888 3000 	strb.w	r3, [r8]
100036b6:	f809 3012 	strb.w	r3, [r9, r2, lsl #1]
100036ba:	4b89      	ldr	r3, [pc, #548]	; (100038e0 <vTaskSwitchContext+0x2a8>)
100036bc:	681b      	ldr	r3, [r3, #0]
100036be:	2b00      	cmp	r3, #0
100036c0:	d035      	beq.n	1000372e <vTaskSwitchContext+0xf6>
100036c2:	2101      	movs	r1, #1
100036c4:	f04f 4350 	mov.w	r3, #3489660928	; 0xd0000000
100036c8:	4a86      	ldr	r2, [pc, #536]	; (100038e4 <vTaskSwitchContext+0x2ac>)
100036ca:	f842 1025 	str.w	r1, [r2, r5, lsl #2]
100036ce:	681a      	ldr	r2, [r3, #0]
100036d0:	f898 3000 	ldrb.w	r3, [r8]
100036d4:	3b01      	subs	r3, #1
100036d6:	b2db      	uxtb	r3, r3
100036d8:	f888 3000 	strb.w	r3, [r8]
100036dc:	b923      	cbnz	r3, 100036e8 <vTaskSwitchContext+0xb0>
100036de:	f809 3012 	strb.w	r3, [r9, r2, lsl #1]
100036e2:	4a7e      	ldr	r2, [pc, #504]	; (100038dc <vTaskSwitchContext+0x2a4>)
100036e4:	e8c2 3f8f 	stlb	r3, [r2]
100036e8:	f04f 4250 	mov.w	r2, #3489660928	; 0xd0000000
100036ec:	f898 3001 	ldrb.w	r3, [r8, #1]
100036f0:	6812      	ldr	r2, [r2, #0]
100036f2:	3b01      	subs	r3, #1
100036f4:	b2db      	uxtb	r3, r3
100036f6:	f888 3001 	strb.w	r3, [r8, #1]
100036fa:	b923      	cbnz	r3, 10003706 <vTaskSwitchContext+0xce>
100036fc:	eb09 0242 	add.w	r2, r9, r2, lsl #1
10003700:	7053      	strb	r3, [r2, #1]
10003702:	e8cb 3f8f 	stlb	r3, [fp]
10003706:	e8bd 8ff8 	ldmia.w	sp!, {r3, r4, r5, r6, r7, r8, r9, sl, fp, pc}
1000370a:	0053      	lsls	r3, r2, #1
1000370c:	eb09 0242 	add.w	r2, r9, r2, lsl #1
10003710:	7852      	ldrb	r2, [r2, #1]
10003712:	2a00      	cmp	r2, #0
10003714:	d16e      	bne.n	100037f4 <vTaskSwitchContext+0x1bc>
10003716:	e8db 1fcf 	ldaexb	r1, [fp]
1000371a:	2201      	movs	r2, #1
1000371c:	2900      	cmp	r1, #0
1000371e:	d1fa      	bne.n	10003716 <vTaskSwitchContext+0xde>
10003720:	e8cb 2f41 	strexb	r1, r2, [fp]
10003724:	2900      	cmp	r1, #0
10003726:	d1f6      	bne.n	10003716 <vTaskSwitchContext+0xde>
10003728:	f3bf 8f5f 	dmb	sy
1000372c:	e79a      	b.n	10003664 <vTaskSwitchContext+0x2c>
1000372e:	4a6d      	ldr	r2, [pc, #436]	; (100038e4 <vTaskSwitchContext+0x2ac>)
10003730:	4e6d      	ldr	r6, [pc, #436]	; (100038e8 <vTaskSwitchContext+0x2b0>)
10003732:	f8df a1c8 	ldr.w	sl, [pc, #456]	; 100038fc <vTaskSwitchContext+0x2c4>
10003736:	f842 3025 	str.w	r3, [r2, r5, lsl #2]
1000373a:	f8da 7000 	ldr.w	r7, [sl]
1000373e:	f856 3025 	ldr.w	r3, [r6, r5, lsl #2]
10003742:	496a      	ldr	r1, [pc, #424]	; (100038ec <vTaskSwitchContext+0x2b4>)
10003744:	699a      	ldr	r2, [r3, #24]
10003746:	f856 3025 	ldr.w	r3, [r6, r5, lsl #2]
1000374a:	6b1b      	ldr	r3, [r3, #48]	; 0x30
1000374c:	eb03 0383 	add.w	r3, r3, r3, lsl #2
10003750:	eb01 0383 	add.w	r3, r1, r3, lsl #2
10003754:	429a      	cmp	r2, r3
10003756:	d05d      	beq.n	10003814 <vTaskSwitchContext+0x1dc>
10003758:	2001      	movs	r0, #1
1000375a:	4b64      	ldr	r3, [pc, #400]	; (100038ec <vTaskSwitchContext+0x2b4>)
1000375c:	eb07 0187 	add.w	r1, r7, r7, lsl #2
10003760:	eb03 0181 	add.w	r1, r3, r1, lsl #2
10003764:	680b      	ldr	r3, [r1, #0]
10003766:	4602      	mov	r2, r0
10003768:	3108      	adds	r1, #8
1000376a:	40a8      	lsls	r0, r5
1000376c:	b963      	cbnz	r3, 10003788 <vTaskSwitchContext+0x150>
1000376e:	b122      	cbz	r2, 1000377a <vTaskSwitchContext+0x142>
10003770:	f8da 3000 	ldr.w	r3, [sl]
10003774:	3b01      	subs	r3, #1
10003776:	f8ca 3000 	str.w	r3, [sl]
1000377a:	b35f      	cbz	r7, 100037d4 <vTaskSwitchContext+0x19c>
1000377c:	f851 3c1c 	ldr.w	r3, [r1, #-28]
10003780:	3914      	subs	r1, #20
10003782:	3f01      	subs	r7, #1
10003784:	2b00      	cmp	r3, #0
10003786:	d0f2      	beq.n	1000376e <vTaskSwitchContext+0x136>
10003788:	684b      	ldr	r3, [r1, #4]
1000378a:	428b      	cmp	r3, r1
1000378c:	bf18      	it	ne
1000378e:	46bc      	movne	ip, r7
10003790:	d107      	bne.n	100037a2 <vTaskSwitchContext+0x16a>
10003792:	e02b      	b.n	100037ec <vTaskSwitchContext+0x1b4>
10003794:	f856 4025 	ldr.w	r4, [r6, r5, lsl #2]
10003798:	42a2      	cmp	r2, r4
1000379a:	d021      	beq.n	100037e0 <vTaskSwitchContext+0x1a8>
1000379c:	685b      	ldr	r3, [r3, #4]
1000379e:	428b      	cmp	r3, r1
100037a0:	d023      	beq.n	100037ea <vTaskSwitchContext+0x1b2>
100037a2:	68da      	ldr	r2, [r3, #12]
100037a4:	6b94      	ldr	r4, [r2, #56]	; 0x38
100037a6:	1c67      	adds	r7, r4, #1
100037a8:	d1f4      	bne.n	10003794 <vTaskSwitchContext+0x15c>
100037aa:	6857      	ldr	r7, [r2, #4]
100037ac:	4238      	tst	r0, r7
100037ae:	d0f5      	beq.n	1000379c <vTaskSwitchContext+0x164>
100037b0:	f856 3025 	ldr.w	r3, [r6, r5, lsl #2]
100037b4:	639c      	str	r4, [r3, #56]	; 0x38
100037b6:	f856 1025 	ldr.w	r1, [r6, r5, lsl #2]
100037ba:	6395      	str	r5, [r2, #56]	; 0x38
100037bc:	f846 2025 	str.w	r2, [r6, r5, lsl #2]
100037c0:	b141      	cbz	r1, 100037d4 <vTaskSwitchContext+0x19c>
100037c2:	6b08      	ldr	r0, [r1, #48]	; 0x30
100037c4:	4f49      	ldr	r7, [pc, #292]	; (100038ec <vTaskSwitchContext+0x2b4>)
100037c6:	698b      	ldr	r3, [r1, #24]
100037c8:	eb00 0280 	add.w	r2, r0, r0, lsl #2
100037cc:	eb07 0282 	add.w	r2, r7, r2, lsl #2
100037d0:	4293      	cmp	r3, r2
100037d2:	d032      	beq.n	1000383a <vTaskSwitchContext+0x202>
100037d4:	f04f 4350 	mov.w	r3, #3489660928	; 0xd0000000
100037d8:	681a      	ldr	r2, [r3, #0]
100037da:	f856 3022 	ldr.w	r3, [r6, r2, lsl #2]
100037de:	e777      	b.n	100036d0 <vTaskSwitchContext+0x98>
100037e0:	6854      	ldr	r4, [r2, #4]
100037e2:	4220      	tst	r0, r4
100037e4:	d0da      	beq.n	1000379c <vTaskSwitchContext+0x164>
100037e6:	6395      	str	r5, [r2, #56]	; 0x38
100037e8:	e7f4      	b.n	100037d4 <vTaskSwitchContext+0x19c>
100037ea:	4667      	mov	r7, ip
100037ec:	2f00      	cmp	r7, #0
100037ee:	d0f1      	beq.n	100037d4 <vTaskSwitchContext+0x19c>
100037f0:	2200      	movs	r2, #0
100037f2:	e7c3      	b.n	1000377c <vTaskSwitchContext+0x144>
100037f4:	f8df 8100 	ldr.w	r8, [pc, #256]	; 100038f8 <vTaskSwitchContext+0x2c0>
100037f8:	f898 3001 	ldrb.w	r3, [r8, #1]
100037fc:	3301      	adds	r3, #1
100037fe:	b2db      	uxtb	r3, r3
10003800:	f888 3001 	strb.w	r3, [r8, #1]
10003804:	e735      	b.n	10003672 <vTaskSwitchContext+0x3a>
10003806:	f898 3000 	ldrb.w	r3, [r8]
1000380a:	3301      	adds	r3, #1
1000380c:	b2db      	uxtb	r3, r3
1000380e:	f888 3000 	strb.w	r3, [r8]
10003812:	e752      	b.n	100036ba <vTaskSwitchContext+0x82>
10003814:	f856 0025 	ldr.w	r0, [r6, r5, lsl #2]
10003818:	3008      	adds	r0, #8
1000381a:	f7fe febd 	bl	10002598 <uxListRemove>
1000381e:	f856 3025 	ldr.w	r3, [r6, r5, lsl #2]
10003822:	f856 1025 	ldr.w	r1, [r6, r5, lsl #2]
10003826:	6b18      	ldr	r0, [r3, #48]	; 0x30
10003828:	4b30      	ldr	r3, [pc, #192]	; (100038ec <vTaskSwitchContext+0x2b4>)
1000382a:	eb00 0080 	add.w	r0, r0, r0, lsl #2
1000382e:	eb03 0080 	add.w	r0, r3, r0, lsl #2
10003832:	3108      	adds	r1, #8
10003834:	f7fe fe88 	bl	10002548 <vListInsertEnd>
10003838:	e78e      	b.n	10003758 <vTaskSwitchContext+0x120>
1000383a:	6bca      	ldr	r2, [r1, #60]	; 0x3c
1000383c:	684b      	ldr	r3, [r1, #4]
1000383e:	07d1      	lsls	r1, r2, #31
10003840:	fa23 f205 	lsr.w	r2, r3, r5
10003844:	bf48      	it	mi
10003846:	f100 30ff 	addmi.w	r0, r0, #4294967295
1000384a:	07d2      	lsls	r2, r2, #31
1000384c:	d504      	bpl.n	10003858 <vTaskSwitchContext+0x220>
1000384e:	f856 2025 	ldr.w	r2, [r6, r5, lsl #2]
10003852:	6852      	ldr	r2, [r2, #4]
10003854:	ea23 0302 	bic.w	r3, r3, r2
10003858:	079f      	lsls	r7, r3, #30
1000385a:	f003 0103 	and.w	r1, r3, #3
1000385e:	d512      	bpl.n	10003886 <vTaskSwitchContext+0x24e>
10003860:	6872      	ldr	r2, [r6, #4]
10003862:	6871      	ldr	r1, [r6, #4]
10003864:	6b12      	ldr	r2, [r2, #48]	; 0x30
10003866:	6bc9      	ldr	r1, [r1, #60]	; 0x3c
10003868:	07cd      	lsls	r5, r1, #31
1000386a:	d500      	bpl.n	1000386e <vTaskSwitchContext+0x236>
1000386c:	3a01      	subs	r2, #1
1000386e:	4282      	cmp	r2, r0
10003870:	f003 0101 	and.w	r1, r3, #1
10003874:	da07      	bge.n	10003886 <vTaskSwitchContext+0x24e>
10003876:	6873      	ldr	r3, [r6, #4]
10003878:	6b9b      	ldr	r3, [r3, #56]	; 0x38
1000387a:	2b00      	cmp	r3, #0
1000387c:	db03      	blt.n	10003886 <vTaskSwitchContext+0x24e>
1000387e:	6873      	ldr	r3, [r6, #4]
10003880:	6b9b      	ldr	r3, [r3, #56]	; 0x38
10003882:	2b01      	cmp	r3, #1
10003884:	dd42      	ble.n	1000390c <vTaskSwitchContext+0x2d4>
10003886:	07cb      	lsls	r3, r1, #31
10003888:	d5a4      	bpl.n	100037d4 <vTaskSwitchContext+0x19c>
1000388a:	6833      	ldr	r3, [r6, #0]
1000388c:	6832      	ldr	r2, [r6, #0]
1000388e:	6b1b      	ldr	r3, [r3, #48]	; 0x30
10003890:	6bd2      	ldr	r2, [r2, #60]	; 0x3c
10003892:	07d1      	lsls	r1, r2, #31
10003894:	bf48      	it	mi
10003896:	f103 33ff 	addmi.w	r3, r3, #4294967295
1000389a:	4283      	cmp	r3, r0
1000389c:	da07      	bge.n	100038ae <vTaskSwitchContext+0x276>
1000389e:	6833      	ldr	r3, [r6, #0]
100038a0:	6b9b      	ldr	r3, [r3, #56]	; 0x38
100038a2:	2b00      	cmp	r3, #0
100038a4:	db03      	blt.n	100038ae <vTaskSwitchContext+0x276>
100038a6:	6833      	ldr	r3, [r6, #0]
100038a8:	6b9b      	ldr	r3, [r3, #56]	; 0x38
100038aa:	2b01      	cmp	r3, #1
100038ac:	dd35      	ble.n	1000391a <vTaskSwitchContext+0x2e2>
100038ae:	1c62      	adds	r2, r4, #1
100038b0:	d090      	beq.n	100037d4 <vTaskSwitchContext+0x19c>
100038b2:	f04f 4550 	mov.w	r5, #3489660928	; 0xd0000000
100038b6:	682a      	ldr	r2, [r5, #0]
100038b8:	42a2      	cmp	r2, r4
100038ba:	d021      	beq.n	10003900 <vTaskSwitchContext+0x2c8>
100038bc:	f856 3024 	ldr.w	r3, [r6, r4, lsl #2]
100038c0:	6b9b      	ldr	r3, [r3, #56]	; 0x38
100038c2:	3302      	adds	r3, #2
100038c4:	d089      	beq.n	100037da <vTaskSwitchContext+0x1a2>
100038c6:	4620      	mov	r0, r4
100038c8:	f7fe fcb6 	bl	10002238 <vYieldCore>
100038cc:	f06f 0201 	mvn.w	r2, #1
100038d0:	f856 3024 	ldr.w	r3, [r6, r4, lsl #2]
100038d4:	639a      	str	r2, [r3, #56]	; 0x38
100038d6:	682a      	ldr	r2, [r5, #0]
100038d8:	e77f      	b.n	100037da <vTaskSwitchContext+0x1a2>
100038da:	bf00      	nop
100038dc:	20001676 	.word	0x20001676
100038e0:	20042200 	.word	0x20042200
100038e4:	200422dc 	.word	0x200422dc
100038e8:	20001f20 	.word	0x20001f20
100038ec:	20001f3c 	.word	0x20001f3c
100038f0:	20001677 	.word	0x20001677
100038f4:	200421d0 	.word	0x200421d0
100038f8:	200421d4 	.word	0x200421d4
100038fc:	20042208 	.word	0x20042208
10003900:	2301      	movs	r3, #1
10003902:	4a0a      	ldr	r2, [pc, #40]	; (1000392c <vTaskSwitchContext+0x2f4>)
10003904:	f842 3024 	str.w	r3, [r2, r4, lsl #2]
10003908:	682a      	ldr	r2, [r5, #0]
1000390a:	e766      	b.n	100037da <vTaskSwitchContext+0x1a2>
1000390c:	4b07      	ldr	r3, [pc, #28]	; (1000392c <vTaskSwitchContext+0x2f4>)
1000390e:	685b      	ldr	r3, [r3, #4]
10003910:	2b00      	cmp	r3, #0
10003912:	d1b8      	bne.n	10003886 <vTaskSwitchContext+0x24e>
10003914:	b939      	cbnz	r1, 10003926 <vTaskSwitchContext+0x2ee>
10003916:	2401      	movs	r4, #1
10003918:	e7cb      	b.n	100038b2 <vTaskSwitchContext+0x27a>
1000391a:	4b04      	ldr	r3, [pc, #16]	; (1000392c <vTaskSwitchContext+0x2f4>)
1000391c:	681b      	ldr	r3, [r3, #0]
1000391e:	2b00      	cmp	r3, #0
10003920:	d1c5      	bne.n	100038ae <vTaskSwitchContext+0x276>
10003922:	461c      	mov	r4, r3
10003924:	e7c5      	b.n	100038b2 <vTaskSwitchContext+0x27a>
10003926:	4610      	mov	r0, r2
10003928:	2401      	movs	r4, #1
1000392a:	e7ae      	b.n	1000388a <vTaskSwitchContext+0x252>
1000392c:	200422dc 	.word	0x200422dc

10003930 <vTaskPlaceOnEventList>:
10003930:	b570      	push	{r4, r5, r6, lr}
10003932:	460c      	mov	r4, r1
10003934:	4605      	mov	r5, r0
10003936:	f7fe fcaf 	bl	10002298 <ulSetInterruptMask>
1000393a:	f04f 4250 	mov.w	r2, #3489660928	; 0xd0000000
1000393e:	4b08      	ldr	r3, [pc, #32]	; (10003960 <vTaskPlaceOnEventList+0x30>)
10003940:	6812      	ldr	r2, [r2, #0]
10003942:	f853 6022 	ldr.w	r6, [r3, r2, lsl #2]
10003946:	f7fe fcb3 	bl	100022b0 <vClearInterruptMask>
1000394a:	4628      	mov	r0, r5
1000394c:	f106 011c 	add.w	r1, r6, #28
10003950:	f7fe fe0a 	bl	10002568 <vListInsert>
10003954:	4620      	mov	r0, r4
10003956:	e8bd 4070 	ldmia.w	sp!, {r4, r5, r6, lr}
1000395a:	2101      	movs	r1, #1
1000395c:	f7ff bc7e 	b.w	1000325c <prvAddCurrentTaskToDelayedList>
10003960:	20001f20 	.word	0x20001f20

10003964 <vTaskPlaceOnUnorderedEventList>:
10003964:	e92d 43f8 	stmdb	sp!, {r3, r4, r5, r6, r7, r8, r9, lr}
10003968:	f04f 4650 	mov.w	r6, #3489660928	; 0xd0000000
1000396c:	460f      	mov	r7, r1
1000396e:	4604      	mov	r4, r0
10003970:	4690      	mov	r8, r2
10003972:	4d23      	ldr	r5, [pc, #140]	; (10003a00 <vTaskPlaceOnUnorderedEventList+0x9c>)
10003974:	f7fe fc90 	bl	10002298 <ulSetInterruptMask>
10003978:	6833      	ldr	r3, [r6, #0]
1000397a:	f047 4700 	orr.w	r7, r7, #2147483648	; 0x80000000
1000397e:	f855 9023 	ldr.w	r9, [r5, r3, lsl #2]
10003982:	f7fe fc95 	bl	100022b0 <vClearInterruptMask>
10003986:	f8c9 701c 	str.w	r7, [r9, #28]
1000398a:	6867      	ldr	r7, [r4, #4]
1000398c:	f7fe fc84 	bl	10002298 <ulSetInterruptMask>
10003990:	6833      	ldr	r3, [r6, #0]
10003992:	f855 9023 	ldr.w	r9, [r5, r3, lsl #2]
10003996:	f7fe fc8b 	bl	100022b0 <vClearInterruptMask>
1000399a:	f8c9 7020 	str.w	r7, [r9, #32]
1000399e:	f7fe fc7b 	bl	10002298 <ulSetInterruptMask>
100039a2:	6833      	ldr	r3, [r6, #0]
100039a4:	f855 9023 	ldr.w	r9, [r5, r3, lsl #2]
100039a8:	f7fe fc82 	bl	100022b0 <vClearInterruptMask>
100039ac:	68bb      	ldr	r3, [r7, #8]
100039ae:	f8c9 3024 	str.w	r3, [r9, #36]	; 0x24
100039b2:	f7fe fc71 	bl	10002298 <ulSetInterruptMask>
100039b6:	6833      	ldr	r3, [r6, #0]
100039b8:	f855 9023 	ldr.w	r9, [r5, r3, lsl #2]
100039bc:	f7fe fc78 	bl	100022b0 <vClearInterruptMask>
100039c0:	68ba      	ldr	r2, [r7, #8]
100039c2:	f109 031c 	add.w	r3, r9, #28
100039c6:	6053      	str	r3, [r2, #4]
100039c8:	f7fe fc66 	bl	10002298 <ulSetInterruptMask>
100039cc:	6833      	ldr	r3, [r6, #0]
100039ce:	f855 9023 	ldr.w	r9, [r5, r3, lsl #2]
100039d2:	f7fe fc6d 	bl	100022b0 <vClearInterruptMask>
100039d6:	f109 031c 	add.w	r3, r9, #28
100039da:	60bb      	str	r3, [r7, #8]
100039dc:	f7fe fc5c 	bl	10002298 <ulSetInterruptMask>
100039e0:	6833      	ldr	r3, [r6, #0]
100039e2:	f855 5023 	ldr.w	r5, [r5, r3, lsl #2]
100039e6:	f7fe fc63 	bl	100022b0 <vClearInterruptMask>
100039ea:	6823      	ldr	r3, [r4, #0]
100039ec:	4640      	mov	r0, r8
100039ee:	3301      	adds	r3, #1
100039f0:	62ec      	str	r4, [r5, #44]	; 0x2c
100039f2:	2101      	movs	r1, #1
100039f4:	6023      	str	r3, [r4, #0]
100039f6:	e8bd 43f8 	ldmia.w	sp!, {r3, r4, r5, r6, r7, r8, r9, lr}
100039fa:	f7ff bc2f 	b.w	1000325c <prvAddCurrentTaskToDelayedList>
100039fe:	bf00      	nop
10003a00:	20001f20 	.word	0x20001f20

10003a04 <vTaskPlaceOnEventListRestricted>:
10003a04:	e92d 47f0 	stmdb	sp!, {r4, r5, r6, r7, r8, r9, sl, lr}
10003a08:	f04f 4650 	mov.w	r6, #3489660928	; 0xd0000000
10003a0c:	4604      	mov	r4, r0
10003a0e:	4617      	mov	r7, r2
10003a10:	4689      	mov	r9, r1
10003a12:	f8d0 8004 	ldr.w	r8, [r0, #4]
10003a16:	4d21      	ldr	r5, [pc, #132]	; (10003a9c <vTaskPlaceOnEventListRestricted+0x98>)
10003a18:	f7fe fc3e 	bl	10002298 <ulSetInterruptMask>
10003a1c:	6833      	ldr	r3, [r6, #0]
10003a1e:	f855 a023 	ldr.w	sl, [r5, r3, lsl #2]
10003a22:	f7fe fc45 	bl	100022b0 <vClearInterruptMask>
10003a26:	f8ca 8020 	str.w	r8, [sl, #32]
10003a2a:	f7fe fc35 	bl	10002298 <ulSetInterruptMask>
10003a2e:	6833      	ldr	r3, [r6, #0]
10003a30:	f855 a023 	ldr.w	sl, [r5, r3, lsl #2]
10003a34:	f7fe fc3c 	bl	100022b0 <vClearInterruptMask>
10003a38:	f8d8 3008 	ldr.w	r3, [r8, #8]
10003a3c:	f8ca 3024 	str.w	r3, [sl, #36]	; 0x24
10003a40:	f7fe fc2a 	bl	10002298 <ulSetInterruptMask>
10003a44:	6833      	ldr	r3, [r6, #0]
10003a46:	f855 a023 	ldr.w	sl, [r5, r3, lsl #2]
10003a4a:	f7fe fc31 	bl	100022b0 <vClearInterruptMask>
10003a4e:	f8d8 2008 	ldr.w	r2, [r8, #8]
10003a52:	f10a 031c 	add.w	r3, sl, #28
10003a56:	6053      	str	r3, [r2, #4]
10003a58:	f7fe fc1e 	bl	10002298 <ulSetInterruptMask>
10003a5c:	6833      	ldr	r3, [r6, #0]
10003a5e:	f855 a023 	ldr.w	sl, [r5, r3, lsl #2]
10003a62:	f7fe fc25 	bl	100022b0 <vClearInterruptMask>
10003a66:	f10a 031c 	add.w	r3, sl, #28
10003a6a:	f8c8 3008 	str.w	r3, [r8, #8]
10003a6e:	f7fe fc13 	bl	10002298 <ulSetInterruptMask>
10003a72:	6833      	ldr	r3, [r6, #0]
10003a74:	f855 5023 	ldr.w	r5, [r5, r3, lsl #2]
10003a78:	f7fe fc1a 	bl	100022b0 <vClearInterruptMask>
10003a7c:	6823      	ldr	r3, [r4, #0]
10003a7e:	2f00      	cmp	r7, #0
10003a80:	f103 0301 	add.w	r3, r3, #1
10003a84:	62ec      	str	r4, [r5, #44]	; 0x2c
10003a86:	4639      	mov	r1, r7
10003a88:	bf08      	it	eq
10003a8a:	4648      	moveq	r0, r9
10003a8c:	6023      	str	r3, [r4, #0]
10003a8e:	bf18      	it	ne
10003a90:	f04f 30ff 	movne.w	r0, #4294967295
10003a94:	e8bd 47f0 	ldmia.w	sp!, {r4, r5, r6, r7, r8, r9, sl, lr}
10003a98:	f7ff bbe0 	b.w	1000325c <prvAddCurrentTaskToDelayedList>
10003a9c:	20001f20 	.word	0x20001f20

10003aa0 <xTaskRemoveFromEventList>:
10003aa0:	b570      	push	{r4, r5, r6, lr}
10003aa2:	2500      	movs	r5, #0
10003aa4:	68c3      	ldr	r3, [r0, #12]
10003aa6:	68d8      	ldr	r0, [r3, #12]
10003aa8:	6ac3      	ldr	r3, [r0, #44]	; 0x2c
10003aaa:	e9d0 4208 	ldrd	r4, r2, [r0, #32]
10003aae:	60a2      	str	r2, [r4, #8]
10003ab0:	6054      	str	r4, [r2, #4]
10003ab2:	685c      	ldr	r4, [r3, #4]
10003ab4:	f100 011c 	add.w	r1, r0, #28
10003ab8:	428c      	cmp	r4, r1
10003aba:	4c26      	ldr	r4, [pc, #152]	; (10003b54 <xTaskRemoveFromEventList+0xb4>)
10003abc:	bf08      	it	eq
10003abe:	605a      	streq	r2, [r3, #4]
10003ac0:	681a      	ldr	r2, [r3, #0]
10003ac2:	6824      	ldr	r4, [r4, #0]
10003ac4:	3a01      	subs	r2, #1
10003ac6:	62c5      	str	r5, [r0, #44]	; 0x2c
10003ac8:	601a      	str	r2, [r3, #0]
10003aca:	2c00      	cmp	r4, #0
10003acc:	d134      	bne.n	10003b38 <xTaskRemoveFromEventList+0x98>
10003ace:	e9d0 2103 	ldrd	r2, r1, [r0, #12]
10003ad2:	6983      	ldr	r3, [r0, #24]
10003ad4:	6091      	str	r1, [r2, #8]
10003ad6:	6901      	ldr	r1, [r0, #16]
10003ad8:	f100 0508 	add.w	r5, r0, #8
10003adc:	604a      	str	r2, [r1, #4]
10003ade:	685a      	ldr	r2, [r3, #4]
10003ae0:	42aa      	cmp	r2, r5
10003ae2:	681a      	ldr	r2, [r3, #0]
10003ae4:	bf08      	it	eq
10003ae6:	6059      	streq	r1, [r3, #4]
10003ae8:	491b      	ldr	r1, [pc, #108]	; (10003b58 <xTaskRemoveFromEventList+0xb8>)
10003aea:	3a01      	subs	r2, #1
10003aec:	601a      	str	r2, [r3, #0]
10003aee:	6b03      	ldr	r3, [r0, #48]	; 0x30
10003af0:	680a      	ldr	r2, [r1, #0]
10003af2:	4293      	cmp	r3, r2
10003af4:	bf88      	it	hi
10003af6:	600b      	strhi	r3, [r1, #0]
10003af8:	4918      	ldr	r1, [pc, #96]	; (10003b5c <xTaskRemoveFromEventList+0xbc>)
10003afa:	eb03 0383 	add.w	r3, r3, r3, lsl #2
10003afe:	ea4f 0c83 	mov.w	ip, r3, lsl #2
10003b02:	eb01 0383 	add.w	r3, r1, r3, lsl #2
10003b06:	685a      	ldr	r2, [r3, #4]
10003b08:	6894      	ldr	r4, [r2, #8]
10003b0a:	60c2      	str	r2, [r0, #12]
10003b0c:	6104      	str	r4, [r0, #16]
10003b0e:	f851 400c 	ldr.w	r4, [r1, ip]
10003b12:	6896      	ldr	r6, [r2, #8]
10003b14:	3401      	adds	r4, #1
10003b16:	6075      	str	r5, [r6, #4]
10003b18:	6095      	str	r5, [r2, #8]
10003b1a:	6183      	str	r3, [r0, #24]
10003b1c:	f841 400c 	str.w	r4, [r1, ip]
10003b20:	f7ff f8dc 	bl	10002cdc <prvYieldForTask>
10003b24:	f04f 4250 	mov.w	r2, #3489660928	; 0xd0000000
10003b28:	4b0d      	ldr	r3, [pc, #52]	; (10003b60 <xTaskRemoveFromEventList+0xc0>)
10003b2a:	6812      	ldr	r2, [r2, #0]
10003b2c:	f853 0022 	ldr.w	r0, [r3, r2, lsl #2]
10003b30:	3800      	subs	r0, #0
10003b32:	bf18      	it	ne
10003b34:	2001      	movne	r0, #1
10003b36:	bd70      	pop	{r4, r5, r6, pc}
10003b38:	4b0a      	ldr	r3, [pc, #40]	; (10003b64 <xTaskRemoveFromEventList+0xc4>)
10003b3a:	685a      	ldr	r2, [r3, #4]
10003b3c:	6894      	ldr	r4, [r2, #8]
10003b3e:	e9c0 2408 	strd	r2, r4, [r0, #32]
10003b42:	6894      	ldr	r4, [r2, #8]
10003b44:	6061      	str	r1, [r4, #4]
10003b46:	681c      	ldr	r4, [r3, #0]
10003b48:	6091      	str	r1, [r2, #8]
10003b4a:	3401      	adds	r4, #1
10003b4c:	62c3      	str	r3, [r0, #44]	; 0x2c
10003b4e:	601c      	str	r4, [r3, #0]
10003b50:	e7e6      	b.n	10003b20 <xTaskRemoveFromEventList+0x80>
10003b52:	bf00      	nop
10003b54:	20042200 	.word	0x20042200
10003b58:	20042208 	.word	0x20042208
10003b5c:	20001f3c 	.word	0x20001f3c
10003b60:	200422dc 	.word	0x200422dc
10003b64:	20042288 	.word	0x20042288

10003b68 <vTaskInternalSetTimeOutState>:
10003b68:	4a03      	ldr	r2, [pc, #12]	; (10003b78 <vTaskInternalSetTimeOutState+0x10>)
10003b6a:	4b04      	ldr	r3, [pc, #16]	; (10003b7c <vTaskInternalSetTimeOutState+0x14>)
10003b6c:	6812      	ldr	r2, [r2, #0]
10003b6e:	681b      	ldr	r3, [r3, #0]
10003b70:	e9c0 2300 	strd	r2, r3, [r0]
10003b74:	4770      	bx	lr
10003b76:	bf00      	nop
10003b78:	20042278 	.word	0x20042278
10003b7c:	200422d0 	.word	0x200422d0

10003b80 <vTaskMissedYield>:
10003b80:	f04f 4250 	mov.w	r2, #3489660928	; 0xd0000000
10003b84:	2101      	movs	r1, #1
10003b86:	4b02      	ldr	r3, [pc, #8]	; (10003b90 <vTaskMissedYield+0x10>)
10003b88:	6812      	ldr	r2, [r2, #0]
10003b8a:	f843 1022 	str.w	r1, [r3, r2, lsl #2]
10003b8e:	4770      	bx	lr
10003b90:	200422dc 	.word	0x200422dc

10003b94 <xTaskGetCurrentTaskHandle>:
10003b94:	b510      	push	{r4, lr}
10003b96:	f7fe fb7f 	bl	10002298 <ulSetInterruptMask>
10003b9a:	f04f 4250 	mov.w	r2, #3489660928	; 0xd0000000
10003b9e:	4b04      	ldr	r3, [pc, #16]	; (10003bb0 <xTaskGetCurrentTaskHandle+0x1c>)
10003ba0:	6812      	ldr	r2, [r2, #0]
10003ba2:	f853 4022 	ldr.w	r4, [r3, r2, lsl #2]
10003ba6:	f7fe fb83 	bl	100022b0 <vClearInterruptMask>
10003baa:	4620      	mov	r0, r4
10003bac:	bd10      	pop	{r4, pc}
10003bae:	bf00      	nop
10003bb0:	20001f20 	.word	0x20001f20

10003bb4 <xTaskPriorityDisinherit>:
10003bb4:	b158      	cbz	r0, 10003bce <xTaskPriorityDisinherit+0x1a>
10003bb6:	6dc3      	ldr	r3, [r0, #92]	; 0x5c
10003bb8:	6b01      	ldr	r1, [r0, #48]	; 0x30
10003bba:	6d82      	ldr	r2, [r0, #88]	; 0x58
10003bbc:	3b01      	subs	r3, #1
10003bbe:	4291      	cmp	r1, r2
10003bc0:	b570      	push	{r4, r5, r6, lr}
10003bc2:	4604      	mov	r4, r0
10003bc4:	65c3      	str	r3, [r0, #92]	; 0x5c
10003bc6:	d000      	beq.n	10003bca <xTaskPriorityDisinherit+0x16>
10003bc8:	b11b      	cbz	r3, 10003bd2 <xTaskPriorityDisinherit+0x1e>
10003bca:	2000      	movs	r0, #0
10003bcc:	bd70      	pop	{r4, r5, r6, pc}
10003bce:	2000      	movs	r0, #0
10003bd0:	4770      	bx	lr
10003bd2:	f100 0508 	add.w	r5, r0, #8
10003bd6:	4628      	mov	r0, r5
10003bd8:	f7fe fcde 	bl	10002598 <uxListRemove>
10003bdc:	6da3      	ldr	r3, [r4, #88]	; 0x58
10003bde:	4a22      	ldr	r2, [pc, #136]	; (10003c68 <xTaskPriorityDisinherit+0xb4>)
10003be0:	f1c3 0120 	rsb	r1, r3, #32
10003be4:	61e1      	str	r1, [r4, #28]
10003be6:	6811      	ldr	r1, [r2, #0]
10003be8:	6323      	str	r3, [r4, #48]	; 0x30
10003bea:	428b      	cmp	r3, r1
10003bec:	491f      	ldr	r1, [pc, #124]	; (10003c6c <xTaskPriorityDisinherit+0xb8>)
10003bee:	bf88      	it	hi
10003bf0:	6013      	strhi	r3, [r2, #0]
10003bf2:	eb03 0383 	add.w	r3, r3, r3, lsl #2
10003bf6:	ea4f 0c83 	mov.w	ip, r3, lsl #2
10003bfa:	eb01 0383 	add.w	r3, r1, r3, lsl #2
10003bfe:	685a      	ldr	r2, [r3, #4]
10003c00:	6890      	ldr	r0, [r2, #8]
10003c02:	60e2      	str	r2, [r4, #12]
10003c04:	6120      	str	r0, [r4, #16]
10003c06:	6896      	ldr	r6, [r2, #8]
10003c08:	f851 000c 	ldr.w	r0, [r1, ip]
10003c0c:	6075      	str	r5, [r6, #4]
10003c0e:	6095      	str	r5, [r2, #8]
10003c10:	61a3      	str	r3, [r4, #24]
10003c12:	6ba3      	ldr	r3, [r4, #56]	; 0x38
10003c14:	3001      	adds	r0, #1
10003c16:	2b00      	cmp	r3, #0
10003c18:	f841 000c 	str.w	r0, [r1, ip]
10003c1c:	db02      	blt.n	10003c24 <xTaskPriorityDisinherit+0x70>
10003c1e:	6ba3      	ldr	r3, [r4, #56]	; 0x38
10003c20:	2b01      	cmp	r3, #1
10003c22:	dd01      	ble.n	10003c28 <xTaskPriorityDisinherit+0x74>
10003c24:	2001      	movs	r0, #1
10003c26:	bd70      	pop	{r4, r5, r6, pc}
10003c28:	f04f 4350 	mov.w	r3, #3489660928	; 0xd0000000
10003c2c:	6ba2      	ldr	r2, [r4, #56]	; 0x38
10003c2e:	681b      	ldr	r3, [r3, #0]
10003c30:	429a      	cmp	r2, r3
10003c32:	d011      	beq.n	10003c58 <xTaskPriorityDisinherit+0xa4>
10003c34:	6ba3      	ldr	r3, [r4, #56]	; 0x38
10003c36:	4d0e      	ldr	r5, [pc, #56]	; (10003c70 <xTaskPriorityDisinherit+0xbc>)
10003c38:	f855 3023 	ldr.w	r3, [r5, r3, lsl #2]
10003c3c:	6b9b      	ldr	r3, [r3, #56]	; 0x38
10003c3e:	3302      	adds	r3, #2
10003c40:	d0f0      	beq.n	10003c24 <xTaskPriorityDisinherit+0x70>
10003c42:	6ba0      	ldr	r0, [r4, #56]	; 0x38
10003c44:	f7fe faf8 	bl	10002238 <vYieldCore>
10003c48:	f06f 0201 	mvn.w	r2, #1
10003c4c:	6ba3      	ldr	r3, [r4, #56]	; 0x38
10003c4e:	2001      	movs	r0, #1
10003c50:	f855 3023 	ldr.w	r3, [r5, r3, lsl #2]
10003c54:	639a      	str	r2, [r3, #56]	; 0x38
10003c56:	bd70      	pop	{r4, r5, r6, pc}
10003c58:	2301      	movs	r3, #1
10003c5a:	6ba1      	ldr	r1, [r4, #56]	; 0x38
10003c5c:	4a05      	ldr	r2, [pc, #20]	; (10003c74 <xTaskPriorityDisinherit+0xc0>)
10003c5e:	4618      	mov	r0, r3
10003c60:	f842 3021 	str.w	r3, [r2, r1, lsl #2]
10003c64:	bd70      	pop	{r4, r5, r6, pc}
10003c66:	bf00      	nop
10003c68:	20042208 	.word	0x20042208
10003c6c:	20001f3c 	.word	0x20001f3c
10003c70:	20001f20 	.word	0x20001f20
10003c74:	200422dc 	.word	0x200422dc

10003c78 <vTaskYieldWithinAPI>:
10003c78:	f04f 4350 	mov.w	r3, #3489660928	; 0xd0000000
10003c7c:	4a05      	ldr	r2, [pc, #20]	; (10003c94 <vTaskYieldWithinAPI+0x1c>)
10003c7e:	681b      	ldr	r3, [r3, #0]
10003c80:	f852 2023 	ldr.w	r2, [r2, r3, lsl #2]
10003c84:	b122      	cbz	r2, 10003c90 <vTaskYieldWithinAPI+0x18>
10003c86:	2101      	movs	r1, #1
10003c88:	4a03      	ldr	r2, [pc, #12]	; (10003c98 <vTaskYieldWithinAPI+0x20>)
10003c8a:	f842 1023 	str.w	r1, [r2, r3, lsl #2]
10003c8e:	4770      	bx	lr
10003c90:	f7fe b92e 	b.w	10001ef0 <vPortYield>
10003c94:	200421d8 	.word	0x200421d8
10003c98:	200422dc 	.word	0x200422dc

10003c9c <vTaskEnterCritical>:
10003c9c:	b538      	push	{r3, r4, r5, lr}
10003c9e:	f7fe fafb 	bl	10002298 <ulSetInterruptMask>
10003ca2:	4b3e      	ldr	r3, [pc, #248]	; (10003d9c <vTaskEnterCritical+0x100>)
10003ca4:	681b      	ldr	r3, [r3, #0]
10003ca6:	b193      	cbz	r3, 10003cce <vTaskEnterCritical+0x32>
10003ca8:	f04f 4350 	mov.w	r3, #3489660928	; 0xd0000000
10003cac:	4a3c      	ldr	r2, [pc, #240]	; (10003da0 <vTaskEnterCritical+0x104>)
10003cae:	681b      	ldr	r3, [r3, #0]
10003cb0:	f852 1023 	ldr.w	r1, [r2, r3, lsl #2]
10003cb4:	b1a1      	cbz	r1, 10003ce0 <vTaskEnterCritical+0x44>
10003cb6:	f04f 4050 	mov.w	r0, #3489660928	; 0xd0000000
10003cba:	f852 1023 	ldr.w	r1, [r2, r3, lsl #2]
10003cbe:	3101      	adds	r1, #1
10003cc0:	f842 1023 	str.w	r1, [r2, r3, lsl #2]
10003cc4:	6803      	ldr	r3, [r0, #0]
10003cc6:	f852 3023 	ldr.w	r3, [r2, r3, lsl #2]
10003cca:	2b01      	cmp	r3, #1
10003ccc:	d000      	beq.n	10003cd0 <vTaskEnterCritical+0x34>
10003cce:	bd38      	pop	{r3, r4, r5, pc}
10003cd0:	4b34      	ldr	r3, [pc, #208]	; (10003da4 <vTaskEnterCritical+0x108>)
10003cd2:	681b      	ldr	r3, [r3, #0]
10003cd4:	2b00      	cmp	r3, #0
10003cd6:	d1fa      	bne.n	10003cce <vTaskEnterCritical+0x32>
10003cd8:	e8bd 4038 	ldmia.w	sp!, {r3, r4, r5, lr}
10003cdc:	f7ff b8aa 	b.w	10002e34 <prvCheckForRunStateChange>
10003ce0:	4931      	ldr	r1, [pc, #196]	; (10003da8 <vTaskEnterCritical+0x10c>)
10003ce2:	e8d1 0fcf 	ldaexb	r0, [r1]
10003ce6:	2401      	movs	r4, #1
10003ce8:	2800      	cmp	r0, #0
10003cea:	d101      	bne.n	10003cf0 <vTaskEnterCritical+0x54>
10003cec:	e8c1 4f40 	strexb	r0, r4, [r1]
10003cf0:	f3bf 8f5f 	dmb	sy
10003cf4:	2800      	cmp	r0, #0
10003cf6:	d131      	bne.n	10003d5c <vTaskEnterCritical+0xc0>
10003cf8:	482c      	ldr	r0, [pc, #176]	; (10003dac <vTaskEnterCritical+0x110>)
10003cfa:	ea4f 0c43 	mov.w	ip, r3, lsl #1
10003cfe:	2301      	movs	r3, #1
10003d00:	492b      	ldr	r1, [pc, #172]	; (10003db0 <vTaskEnterCritical+0x114>)
10003d02:	4484      	add	ip, r0
10003d04:	704b      	strb	r3, [r1, #1]
10003d06:	f88c 3001 	strb.w	r3, [ip, #1]
10003d0a:	f04f 4c50 	mov.w	ip, #3489660928	; 0xd0000000
10003d0e:	4b29      	ldr	r3, [pc, #164]	; (10003db4 <vTaskEnterCritical+0x118>)
10003d10:	f8dc 4000 	ldr.w	r4, [ip]
10003d14:	e8d3 5fcf 	ldaexb	r5, [r3]
10003d18:	f05f 0e01 	movs.w	lr, #1
10003d1c:	2d00      	cmp	r5, #0
10003d1e:	d101      	bne.n	10003d24 <vTaskEnterCritical+0x88>
10003d20:	e8c3 ef45 	strexb	r5, lr, [r3]
10003d24:	f3bf 8f5f 	dmb	sy
10003d28:	b185      	cbz	r5, 10003d4c <vTaskEnterCritical+0xb0>
10003d2a:	f810 5014 	ldrb.w	r5, [r0, r4, lsl #1]
10003d2e:	2d00      	cmp	r5, #0
10003d30:	d127      	bne.n	10003d82 <vTaskEnterCritical+0xe6>
10003d32:	e8d3 cfcf 	ldaexb	ip, [r3]
10003d36:	2501      	movs	r5, #1
10003d38:	f1bc 0f00 	cmp.w	ip, #0
10003d3c:	d1f9      	bne.n	10003d32 <vTaskEnterCritical+0x96>
10003d3e:	e8c3 5f4c 	strexb	ip, r5, [r3]
10003d42:	f1bc 0f00 	cmp.w	ip, #0
10003d46:	d1f4      	bne.n	10003d32 <vTaskEnterCritical+0x96>
10003d48:	f3bf 8f5f 	dmb	sy
10003d4c:	2301      	movs	r3, #1
10003d4e:	f04f 4550 	mov.w	r5, #3489660928	; 0xd0000000
10003d52:	700b      	strb	r3, [r1, #0]
10003d54:	f800 3014 	strb.w	r3, [r0, r4, lsl #1]
10003d58:	682b      	ldr	r3, [r5, #0]
10003d5a:	e7ac      	b.n	10003cb6 <vTaskEnterCritical+0x1a>
10003d5c:	4813      	ldr	r0, [pc, #76]	; (10003dac <vTaskEnterCritical+0x110>)
10003d5e:	ea4f 0c43 	mov.w	ip, r3, lsl #1
10003d62:	eb00 0343 	add.w	r3, r0, r3, lsl #1
10003d66:	785b      	ldrb	r3, [r3, #1]
10003d68:	b993      	cbnz	r3, 10003d90 <vTaskEnterCritical+0xf4>
10003d6a:	e8d1 4fcf 	ldaexb	r4, [r1]
10003d6e:	2301      	movs	r3, #1
10003d70:	2c00      	cmp	r4, #0
10003d72:	d1fa      	bne.n	10003d6a <vTaskEnterCritical+0xce>
10003d74:	e8c1 3f44 	strexb	r4, r3, [r1]
10003d78:	2c00      	cmp	r4, #0
10003d7a:	d1f6      	bne.n	10003d6a <vTaskEnterCritical+0xce>
10003d7c:	f3bf 8f5f 	dmb	sy
10003d80:	e7bd      	b.n	10003cfe <vTaskEnterCritical+0x62>
10003d82:	780b      	ldrb	r3, [r1, #0]
10003d84:	3301      	adds	r3, #1
10003d86:	b2db      	uxtb	r3, r3
10003d88:	700b      	strb	r3, [r1, #0]
10003d8a:	f8dc 3000 	ldr.w	r3, [ip]
10003d8e:	e792      	b.n	10003cb6 <vTaskEnterCritical+0x1a>
10003d90:	4907      	ldr	r1, [pc, #28]	; (10003db0 <vTaskEnterCritical+0x114>)
10003d92:	784b      	ldrb	r3, [r1, #1]
10003d94:	3301      	adds	r3, #1
10003d96:	b2db      	uxtb	r3, r3
10003d98:	704b      	strb	r3, [r1, #1]
10003d9a:	e7b6      	b.n	10003d0a <vTaskEnterCritical+0x6e>
10003d9c:	2004229c 	.word	0x2004229c
10003da0:	200421d8 	.word	0x200421d8
10003da4:	20042200 	.word	0x20042200
10003da8:	20001677 	.word	0x20001677
10003dac:	200421d0 	.word	0x200421d0
10003db0:	200421d4 	.word	0x200421d4
10003db4:	20001676 	.word	0x20001676

10003db8 <prvAddNewTaskToReadyList>:
10003db8:	e92d 41f0 	stmdb	sp!, {r4, r5, r6, r7, r8, lr}
10003dbc:	4605      	mov	r5, r0
10003dbe:	f7ff ff6d 	bl	10003c9c <vTaskEnterCritical>
10003dc2:	4a2e      	ldr	r2, [pc, #184]	; (10003e7c <prvAddNewTaskToReadyList+0xc4>)
10003dc4:	4f2e      	ldr	r7, [pc, #184]	; (10003e80 <prvAddNewTaskToReadyList+0xc8>)
10003dc6:	6813      	ldr	r3, [r2, #0]
10003dc8:	3301      	adds	r3, #1
10003dca:	6013      	str	r3, [r2, #0]
10003dcc:	683b      	ldr	r3, [r7, #0]
10003dce:	b35b      	cbz	r3, 10003e28 <prvAddNewTaskToReadyList+0x70>
10003dd0:	4e2c      	ldr	r6, [pc, #176]	; (10003e84 <prvAddNewTaskToReadyList+0xcc>)
10003dd2:	4b2d      	ldr	r3, [pc, #180]	; (10003e88 <prvAddNewTaskToReadyList+0xd0>)
10003dd4:	f105 0c08 	add.w	ip, r5, #8
10003dd8:	681a      	ldr	r2, [r3, #0]
10003dda:	3201      	adds	r2, #1
10003ddc:	652a      	str	r2, [r5, #80]	; 0x50
10003dde:	601a      	str	r2, [r3, #0]
10003de0:	4a2a      	ldr	r2, [pc, #168]	; (10003e8c <prvAddNewTaskToReadyList+0xd4>)
10003de2:	6b2b      	ldr	r3, [r5, #48]	; 0x30
10003de4:	6811      	ldr	r1, [r2, #0]
10003de6:	428b      	cmp	r3, r1
10003de8:	bf88      	it	hi
10003dea:	6013      	strhi	r3, [r2, #0]
10003dec:	eb03 0383 	add.w	r3, r3, r3, lsl #2
10003df0:	0098      	lsls	r0, r3, #2
10003df2:	eb06 0383 	add.w	r3, r6, r3, lsl #2
10003df6:	685a      	ldr	r2, [r3, #4]
10003df8:	683c      	ldr	r4, [r7, #0]
10003dfa:	6891      	ldr	r1, [r2, #8]
10003dfc:	60ea      	str	r2, [r5, #12]
10003dfe:	6129      	str	r1, [r5, #16]
10003e00:	5831      	ldr	r1, [r6, r0]
10003e02:	f101 0e01 	add.w	lr, r1, #1
10003e06:	6891      	ldr	r1, [r2, #8]
10003e08:	f8c1 c004 	str.w	ip, [r1, #4]
10003e0c:	f8c2 c008 	str.w	ip, [r2, #8]
10003e10:	61ab      	str	r3, [r5, #24]
10003e12:	f846 e000 	str.w	lr, [r6, r0]
10003e16:	bb64      	cbnz	r4, 10003e72 <prvAddNewTaskToReadyList+0xba>
10003e18:	683b      	ldr	r3, [r7, #0]
10003e1a:	b11b      	cbz	r3, 10003e24 <prvAddNewTaskToReadyList+0x6c>
10003e1c:	e8bd 41f0 	ldmia.w	sp!, {r4, r5, r6, r7, r8, lr}
10003e20:	f7fe bfc2 	b.w	10002da8 <vTaskExitCritical.part.0>
10003e24:	e8bd 81f0 	ldmia.w	sp!, {r4, r5, r6, r7, r8, pc}
10003e28:	6813      	ldr	r3, [r2, #0]
10003e2a:	4e16      	ldr	r6, [pc, #88]	; (10003e84 <prvAddNewTaskToReadyList+0xcc>)
10003e2c:	2b01      	cmp	r3, #1
10003e2e:	d1d0      	bne.n	10003dd2 <prvAddNewTaskToReadyList+0x1a>
10003e30:	4634      	mov	r4, r6
10003e32:	f506 7820 	add.w	r8, r6, #640	; 0x280
10003e36:	4620      	mov	r0, r4
10003e38:	3414      	adds	r4, #20
10003e3a:	f7fe fb75 	bl	10002528 <vListInitialise>
10003e3e:	45a0      	cmp	r8, r4
10003e40:	d1f9      	bne.n	10003e36 <prvAddNewTaskToReadyList+0x7e>
10003e42:	f8df 8064 	ldr.w	r8, [pc, #100]	; 10003ea8 <prvAddNewTaskToReadyList+0xf0>
10003e46:	4c12      	ldr	r4, [pc, #72]	; (10003e90 <prvAddNewTaskToReadyList+0xd8>)
10003e48:	4640      	mov	r0, r8
10003e4a:	f7fe fb6d 	bl	10002528 <vListInitialise>
10003e4e:	4620      	mov	r0, r4
10003e50:	f7fe fb6a 	bl	10002528 <vListInitialise>
10003e54:	480f      	ldr	r0, [pc, #60]	; (10003e94 <prvAddNewTaskToReadyList+0xdc>)
10003e56:	f7fe fb67 	bl	10002528 <vListInitialise>
10003e5a:	480f      	ldr	r0, [pc, #60]	; (10003e98 <prvAddNewTaskToReadyList+0xe0>)
10003e5c:	f7fe fb64 	bl	10002528 <vListInitialise>
10003e60:	480e      	ldr	r0, [pc, #56]	; (10003e9c <prvAddNewTaskToReadyList+0xe4>)
10003e62:	f7fe fb61 	bl	10002528 <vListInitialise>
10003e66:	4b0e      	ldr	r3, [pc, #56]	; (10003ea0 <prvAddNewTaskToReadyList+0xe8>)
10003e68:	f8c3 8000 	str.w	r8, [r3]
10003e6c:	4b0d      	ldr	r3, [pc, #52]	; (10003ea4 <prvAddNewTaskToReadyList+0xec>)
10003e6e:	601c      	str	r4, [r3, #0]
10003e70:	e7af      	b.n	10003dd2 <prvAddNewTaskToReadyList+0x1a>
10003e72:	4628      	mov	r0, r5
10003e74:	f7fe ff32 	bl	10002cdc <prvYieldForTask>
10003e78:	e7ce      	b.n	10003e18 <prvAddNewTaskToReadyList+0x60>
10003e7a:	bf00      	nop
10003e7c:	200421f8 	.word	0x200421f8
10003e80:	2004229c 	.word	0x2004229c
10003e84:	20001f3c 	.word	0x20001f3c
10003e88:	20042204 	.word	0x20042204
10003e8c:	20042208 	.word	0x20042208
10003e90:	20042248 	.word	0x20042248
10003e94:	20042288 	.word	0x20042288
10003e98:	200422bc 	.word	0x200422bc
10003e9c:	200422a8 	.word	0x200422a8
10003ea0:	20001f2c 	.word	0x20001f2c
10003ea4:	20001f34 	.word	0x20001f34
10003ea8:	20042234 	.word	0x20042234

10003eac <xTaskCreate>:
10003eac:	e92d 43f8 	stmdb	sp!, {r3, r4, r5, r6, r7, r8, r9, lr}
10003eb0:	0096      	lsls	r6, r2, #2
10003eb2:	4680      	mov	r8, r0
10003eb4:	4630      	mov	r0, r6
10003eb6:	460d      	mov	r5, r1
10003eb8:	4699      	mov	r9, r3
10003eba:	f7fd fe71 	bl	10001ba0 <pvPortMalloc>
10003ebe:	2800      	cmp	r0, #0
10003ec0:	f000 80a4 	beq.w	1000400c <xTaskCreate+0x160>
10003ec4:	4607      	mov	r7, r0
10003ec6:	207c      	movs	r0, #124	; 0x7c
10003ec8:	f7fd fe6a 	bl	10001ba0 <pvPortMalloc>
10003ecc:	4604      	mov	r4, r0
10003ece:	2800      	cmp	r0, #0
10003ed0:	f000 80a0 	beq.w	10004014 <xTaskCreate+0x168>
10003ed4:	227c      	movs	r2, #124	; 0x7c
10003ed6:	2100      	movs	r1, #0
10003ed8:	f005 fb0c 	bl	100094f4 <memset>
10003edc:	4632      	mov	r2, r6
10003ede:	4638      	mov	r0, r7
10003ee0:	21a5      	movs	r1, #165	; 0xa5
10003ee2:	6367      	str	r7, [r4, #52]	; 0x34
10003ee4:	f005 fb06 	bl	100094f4 <memset>
10003ee8:	6b63      	ldr	r3, [r4, #52]	; 0x34
10003eea:	3e04      	subs	r6, #4
10003eec:	441e      	add	r6, r3
10003eee:	f026 0607 	bic.w	r6, r6, #7
10003ef2:	2d00      	cmp	r5, #0
10003ef4:	d056      	beq.n	10003fa4 <xTaskCreate+0xf8>
10003ef6:	782b      	ldrb	r3, [r5, #0]
10003ef8:	f884 3040 	strb.w	r3, [r4, #64]	; 0x40
10003efc:	782b      	ldrb	r3, [r5, #0]
10003efe:	2b00      	cmp	r3, #0
10003f00:	d04d      	beq.n	10003f9e <xTaskCreate+0xf2>
10003f02:	786b      	ldrb	r3, [r5, #1]
10003f04:	f884 3041 	strb.w	r3, [r4, #65]	; 0x41
10003f08:	786b      	ldrb	r3, [r5, #1]
10003f0a:	2b00      	cmp	r3, #0
10003f0c:	d047      	beq.n	10003f9e <xTaskCreate+0xf2>
10003f0e:	78ab      	ldrb	r3, [r5, #2]
10003f10:	f884 3042 	strb.w	r3, [r4, #66]	; 0x42
10003f14:	78ab      	ldrb	r3, [r5, #2]
10003f16:	2b00      	cmp	r3, #0
10003f18:	d041      	beq.n	10003f9e <xTaskCreate+0xf2>
10003f1a:	78eb      	ldrb	r3, [r5, #3]
10003f1c:	f884 3043 	strb.w	r3, [r4, #67]	; 0x43
10003f20:	78eb      	ldrb	r3, [r5, #3]
10003f22:	2b00      	cmp	r3, #0
10003f24:	d03b      	beq.n	10003f9e <xTaskCreate+0xf2>
10003f26:	792b      	ldrb	r3, [r5, #4]
10003f28:	f884 3044 	strb.w	r3, [r4, #68]	; 0x44
10003f2c:	792b      	ldrb	r3, [r5, #4]
10003f2e:	2b00      	cmp	r3, #0
10003f30:	d035      	beq.n	10003f9e <xTaskCreate+0xf2>
10003f32:	796b      	ldrb	r3, [r5, #5]
10003f34:	f884 3045 	strb.w	r3, [r4, #69]	; 0x45
10003f38:	796b      	ldrb	r3, [r5, #5]
10003f3a:	2b00      	cmp	r3, #0
10003f3c:	d02f      	beq.n	10003f9e <xTaskCreate+0xf2>
10003f3e:	79ab      	ldrb	r3, [r5, #6]
10003f40:	f884 3046 	strb.w	r3, [r4, #70]	; 0x46
10003f44:	79ab      	ldrb	r3, [r5, #6]
10003f46:	b353      	cbz	r3, 10003f9e <xTaskCreate+0xf2>
10003f48:	79eb      	ldrb	r3, [r5, #7]
10003f4a:	f884 3047 	strb.w	r3, [r4, #71]	; 0x47
10003f4e:	79eb      	ldrb	r3, [r5, #7]
10003f50:	b32b      	cbz	r3, 10003f9e <xTaskCreate+0xf2>
10003f52:	7a2b      	ldrb	r3, [r5, #8]
10003f54:	f884 3048 	strb.w	r3, [r4, #72]	; 0x48
10003f58:	7a2b      	ldrb	r3, [r5, #8]
10003f5a:	b303      	cbz	r3, 10003f9e <xTaskCreate+0xf2>
10003f5c:	7a6b      	ldrb	r3, [r5, #9]
10003f5e:	f884 3049 	strb.w	r3, [r4, #73]	; 0x49
10003f62:	7a6b      	ldrb	r3, [r5, #9]
10003f64:	b1db      	cbz	r3, 10003f9e <xTaskCreate+0xf2>
10003f66:	7aab      	ldrb	r3, [r5, #10]
10003f68:	f884 304a 	strb.w	r3, [r4, #74]	; 0x4a
10003f6c:	7aab      	ldrb	r3, [r5, #10]
10003f6e:	b1b3      	cbz	r3, 10003f9e <xTaskCreate+0xf2>
10003f70:	7aeb      	ldrb	r3, [r5, #11]
10003f72:	f884 304b 	strb.w	r3, [r4, #75]	; 0x4b
10003f76:	7aeb      	ldrb	r3, [r5, #11]
10003f78:	b18b      	cbz	r3, 10003f9e <xTaskCreate+0xf2>
10003f7a:	7b2b      	ldrb	r3, [r5, #12]
10003f7c:	f884 304c 	strb.w	r3, [r4, #76]	; 0x4c
10003f80:	7b2b      	ldrb	r3, [r5, #12]
10003f82:	b163      	cbz	r3, 10003f9e <xTaskCreate+0xf2>
10003f84:	7b6b      	ldrb	r3, [r5, #13]
10003f86:	f884 304d 	strb.w	r3, [r4, #77]	; 0x4d
10003f8a:	7b6b      	ldrb	r3, [r5, #13]
10003f8c:	b13b      	cbz	r3, 10003f9e <xTaskCreate+0xf2>
10003f8e:	7bab      	ldrb	r3, [r5, #14]
10003f90:	f884 304e 	strb.w	r3, [r4, #78]	; 0x4e
10003f94:	7bab      	ldrb	r3, [r5, #14]
10003f96:	b113      	cbz	r3, 10003f9e <xTaskCreate+0xf2>
10003f98:	7beb      	ldrb	r3, [r5, #15]
10003f9a:	f884 304f 	strb.w	r3, [r4, #79]	; 0x4f
10003f9e:	2300      	movs	r3, #0
10003fa0:	f884 304f 	strb.w	r3, [r4, #79]	; 0x4f
10003fa4:	9d08      	ldr	r5, [sp, #32]
10003fa6:	f104 0008 	add.w	r0, r4, #8
10003faa:	2d1f      	cmp	r5, #31
10003fac:	bf28      	it	cs
10003fae:	251f      	movcs	r5, #31
10003fb0:	6325      	str	r5, [r4, #48]	; 0x30
10003fb2:	65a5      	str	r5, [r4, #88]	; 0x58
10003fb4:	f7fe fac4 	bl	10002540 <vListInitialiseItem>
10003fb8:	f1c5 0520 	rsb	r5, r5, #32
10003fbc:	f104 001c 	add.w	r0, r4, #28
10003fc0:	f7fe fabe 	bl	10002540 <vListInitialiseItem>
10003fc4:	464b      	mov	r3, r9
10003fc6:	4642      	mov	r2, r8
10003fc8:	4630      	mov	r0, r6
10003fca:	6b61      	ldr	r1, [r4, #52]	; 0x34
10003fcc:	6164      	str	r4, [r4, #20]
10003fce:	61e5      	str	r5, [r4, #28]
10003fd0:	62a4      	str	r4, [r4, #40]	; 0x28
10003fd2:	f7fd ffaf 	bl	10001f34 <pxPortInitialiseStack>
10003fd6:	f04f 32ff 	mov.w	r2, #4294967295
10003fda:	4b12      	ldr	r3, [pc, #72]	; (10004024 <xTaskCreate+0x178>)
10003fdc:	6020      	str	r0, [r4, #0]
10003fde:	4598      	cmp	r8, r3
10003fe0:	63a2      	str	r2, [r4, #56]	; 0x38
10003fe2:	d00e      	beq.n	10004002 <xTaskCreate+0x156>
10003fe4:	4b10      	ldr	r3, [pc, #64]	; (10004028 <xTaskCreate+0x17c>)
10003fe6:	4598      	cmp	r8, r3
10003fe8:	d00b      	beq.n	10004002 <xTaskCreate+0x156>
10003fea:	9b09      	ldr	r3, [sp, #36]	; 0x24
10003fec:	b103      	cbz	r3, 10003ff0 <xTaskCreate+0x144>
10003fee:	601c      	str	r4, [r3, #0]
10003ff0:	f04f 33ff 	mov.w	r3, #4294967295
10003ff4:	4620      	mov	r0, r4
10003ff6:	6063      	str	r3, [r4, #4]
10003ff8:	f7ff fede 	bl	10003db8 <prvAddNewTaskToReadyList>
10003ffc:	2001      	movs	r0, #1
10003ffe:	e8bd 83f8 	ldmia.w	sp!, {r3, r4, r5, r6, r7, r8, r9, pc}
10004002:	6be3      	ldr	r3, [r4, #60]	; 0x3c
10004004:	f043 0301 	orr.w	r3, r3, #1
10004008:	63e3      	str	r3, [r4, #60]	; 0x3c
1000400a:	e7ee      	b.n	10003fea <xTaskCreate+0x13e>
1000400c:	f04f 30ff 	mov.w	r0, #4294967295
10004010:	e8bd 83f8 	ldmia.w	sp!, {r3, r4, r5, r6, r7, r8, r9, pc}
10004014:	4638      	mov	r0, r7
10004016:	f7fd fe47 	bl	10001ca8 <vPortFree>
1000401a:	f04f 30ff 	mov.w	r0, #4294967295
1000401e:	e8bd 83f8 	ldmia.w	sp!, {r3, r4, r5, r6, r7, r8, r9, pc}
10004022:	bf00      	nop
10004024:	10003241 	.word	0x10003241
10004028:	10002cbd 	.word	0x10002cbd

1000402c <xTaskCreateAffinitySet>:
1000402c:	e92d 43f8 	stmdb	sp!, {r3, r4, r5, r6, r7, r8, r9, lr}
10004030:	0096      	lsls	r6, r2, #2
10004032:	4680      	mov	r8, r0
10004034:	4630      	mov	r0, r6
10004036:	460d      	mov	r5, r1
10004038:	4699      	mov	r9, r3
1000403a:	f7fd fdb1 	bl	10001ba0 <pvPortMalloc>
1000403e:	2800      	cmp	r0, #0
10004040:	f000 80a3 	beq.w	1000418a <xTaskCreateAffinitySet+0x15e>
10004044:	4607      	mov	r7, r0
10004046:	207c      	movs	r0, #124	; 0x7c
10004048:	f7fd fdaa 	bl	10001ba0 <pvPortMalloc>
1000404c:	4604      	mov	r4, r0
1000404e:	2800      	cmp	r0, #0
10004050:	f000 809f 	beq.w	10004192 <xTaskCreateAffinitySet+0x166>
10004054:	227c      	movs	r2, #124	; 0x7c
10004056:	2100      	movs	r1, #0
10004058:	f005 fa4c 	bl	100094f4 <memset>
1000405c:	4632      	mov	r2, r6
1000405e:	4638      	mov	r0, r7
10004060:	21a5      	movs	r1, #165	; 0xa5
10004062:	6367      	str	r7, [r4, #52]	; 0x34
10004064:	f005 fa46 	bl	100094f4 <memset>
10004068:	6b63      	ldr	r3, [r4, #52]	; 0x34
1000406a:	3e04      	subs	r6, #4
1000406c:	441e      	add	r6, r3
1000406e:	f026 0607 	bic.w	r6, r6, #7
10004072:	2d00      	cmp	r5, #0
10004074:	d056      	beq.n	10004124 <xTaskCreateAffinitySet+0xf8>
10004076:	782b      	ldrb	r3, [r5, #0]
10004078:	f884 3040 	strb.w	r3, [r4, #64]	; 0x40
1000407c:	782b      	ldrb	r3, [r5, #0]
1000407e:	2b00      	cmp	r3, #0
10004080:	d04d      	beq.n	1000411e <xTaskCreateAffinitySet+0xf2>
10004082:	786b      	ldrb	r3, [r5, #1]
10004084:	f884 3041 	strb.w	r3, [r4, #65]	; 0x41
10004088:	786b      	ldrb	r3, [r5, #1]
1000408a:	2b00      	cmp	r3, #0
1000408c:	d047      	beq.n	1000411e <xTaskCreateAffinitySet+0xf2>
1000408e:	78ab      	ldrb	r3, [r5, #2]
10004090:	f884 3042 	strb.w	r3, [r4, #66]	; 0x42
10004094:	78ab      	ldrb	r3, [r5, #2]
10004096:	2b00      	cmp	r3, #0
10004098:	d041      	beq.n	1000411e <xTaskCreateAffinitySet+0xf2>
1000409a:	78eb      	ldrb	r3, [r5, #3]
1000409c:	f884 3043 	strb.w	r3, [r4, #67]	; 0x43
100040a0:	78eb      	ldrb	r3, [r5, #3]
100040a2:	2b00      	cmp	r3, #0
100040a4:	d03b      	beq.n	1000411e <xTaskCreateAffinitySet+0xf2>
100040a6:	792b      	ldrb	r3, [r5, #4]
100040a8:	f884 3044 	strb.w	r3, [r4, #68]	; 0x44
100040ac:	792b      	ldrb	r3, [r5, #4]
100040ae:	2b00      	cmp	r3, #0
100040b0:	d035      	beq.n	1000411e <xTaskCreateAffinitySet+0xf2>
100040b2:	796b      	ldrb	r3, [r5, #5]
100040b4:	f884 3045 	strb.w	r3, [r4, #69]	; 0x45
100040b8:	796b      	ldrb	r3, [r5, #5]
100040ba:	2b00      	cmp	r3, #0
100040bc:	d02f      	beq.n	1000411e <xTaskCreateAffinitySet+0xf2>
100040be:	79ab      	ldrb	r3, [r5, #6]
100040c0:	f884 3046 	strb.w	r3, [r4, #70]	; 0x46
100040c4:	79ab      	ldrb	r3, [r5, #6]
100040c6:	b353      	cbz	r3, 1000411e <xTaskCreateAffinitySet+0xf2>
100040c8:	79eb      	ldrb	r3, [r5, #7]
100040ca:	f884 3047 	strb.w	r3, [r4, #71]	; 0x47
100040ce:	79eb      	ldrb	r3, [r5, #7]
100040d0:	b32b      	cbz	r3, 1000411e <xTaskCreateAffinitySet+0xf2>
100040d2:	7a2b      	ldrb	r3, [r5, #8]
100040d4:	f884 3048 	strb.w	r3, [r4, #72]	; 0x48
100040d8:	7a2b      	ldrb	r3, [r5, #8]
100040da:	b303      	cbz	r3, 1000411e <xTaskCreateAffinitySet+0xf2>
100040dc:	7a6b      	ldrb	r3, [r5, #9]
100040de:	f884 3049 	strb.w	r3, [r4, #73]	; 0x49
100040e2:	7a6b      	ldrb	r3, [r5, #9]
100040e4:	b1db      	cbz	r3, 1000411e <xTaskCreateAffinitySet+0xf2>
100040e6:	7aab      	ldrb	r3, [r5, #10]
100040e8:	f884 304a 	strb.w	r3, [r4, #74]	; 0x4a
100040ec:	7aab      	ldrb	r3, [r5, #10]
100040ee:	b1b3      	cbz	r3, 1000411e <xTaskCreateAffinitySet+0xf2>
100040f0:	7aeb      	ldrb	r3, [r5, #11]
100040f2:	f884 304b 	strb.w	r3, [r4, #75]	; 0x4b
100040f6:	7aeb      	ldrb	r3, [r5, #11]
100040f8:	b18b      	cbz	r3, 1000411e <xTaskCreateAffinitySet+0xf2>
100040fa:	7b2b      	ldrb	r3, [r5, #12]
100040fc:	f884 304c 	strb.w	r3, [r4, #76]	; 0x4c
10004100:	7b2b      	ldrb	r3, [r5, #12]
10004102:	b163      	cbz	r3, 1000411e <xTaskCreateAffinitySet+0xf2>
10004104:	7b6b      	ldrb	r3, [r5, #13]
10004106:	f884 304d 	strb.w	r3, [r4, #77]	; 0x4d
1000410a:	7b6b      	ldrb	r3, [r5, #13]
1000410c:	b13b      	cbz	r3, 1000411e <xTaskCreateAffinitySet+0xf2>
1000410e:	7bab      	ldrb	r3, [r5, #14]
10004110:	f884 304e 	strb.w	r3, [r4, #78]	; 0x4e
10004114:	7bab      	ldrb	r3, [r5, #14]
10004116:	b113      	cbz	r3, 1000411e <xTaskCreateAffinitySet+0xf2>
10004118:	7beb      	ldrb	r3, [r5, #15]
1000411a:	f884 304f 	strb.w	r3, [r4, #79]	; 0x4f
1000411e:	2300      	movs	r3, #0
10004120:	f884 304f 	strb.w	r3, [r4, #79]	; 0x4f
10004124:	9d08      	ldr	r5, [sp, #32]
10004126:	f104 0008 	add.w	r0, r4, #8
1000412a:	2d1f      	cmp	r5, #31
1000412c:	bf28      	it	cs
1000412e:	251f      	movcs	r5, #31
10004130:	6325      	str	r5, [r4, #48]	; 0x30
10004132:	65a5      	str	r5, [r4, #88]	; 0x58
10004134:	f7fe fa04 	bl	10002540 <vListInitialiseItem>
10004138:	f1c5 0520 	rsb	r5, r5, #32
1000413c:	f104 001c 	add.w	r0, r4, #28
10004140:	f7fe f9fe 	bl	10002540 <vListInitialiseItem>
10004144:	464b      	mov	r3, r9
10004146:	4642      	mov	r2, r8
10004148:	4630      	mov	r0, r6
1000414a:	6b61      	ldr	r1, [r4, #52]	; 0x34
1000414c:	6164      	str	r4, [r4, #20]
1000414e:	61e5      	str	r5, [r4, #28]
10004150:	62a4      	str	r4, [r4, #40]	; 0x28
10004152:	f7fd feef 	bl	10001f34 <pxPortInitialiseStack>
10004156:	f04f 32ff 	mov.w	r2, #4294967295
1000415a:	4b11      	ldr	r3, [pc, #68]	; (100041a0 <xTaskCreateAffinitySet+0x174>)
1000415c:	6020      	str	r0, [r4, #0]
1000415e:	4598      	cmp	r8, r3
10004160:	63a2      	str	r2, [r4, #56]	; 0x38
10004162:	d00d      	beq.n	10004180 <xTaskCreateAffinitySet+0x154>
10004164:	4b0f      	ldr	r3, [pc, #60]	; (100041a4 <xTaskCreateAffinitySet+0x178>)
10004166:	4598      	cmp	r8, r3
10004168:	d00a      	beq.n	10004180 <xTaskCreateAffinitySet+0x154>
1000416a:	9b0a      	ldr	r3, [sp, #40]	; 0x28
1000416c:	b103      	cbz	r3, 10004170 <xTaskCreateAffinitySet+0x144>
1000416e:	601c      	str	r4, [r3, #0]
10004170:	9b09      	ldr	r3, [sp, #36]	; 0x24
10004172:	4620      	mov	r0, r4
10004174:	6063      	str	r3, [r4, #4]
10004176:	f7ff fe1f 	bl	10003db8 <prvAddNewTaskToReadyList>
1000417a:	2001      	movs	r0, #1
1000417c:	e8bd 83f8 	ldmia.w	sp!, {r3, r4, r5, r6, r7, r8, r9, pc}
10004180:	6be3      	ldr	r3, [r4, #60]	; 0x3c
10004182:	f043 0301 	orr.w	r3, r3, #1
10004186:	63e3      	str	r3, [r4, #60]	; 0x3c
10004188:	e7ef      	b.n	1000416a <xTaskCreateAffinitySet+0x13e>
1000418a:	f04f 30ff 	mov.w	r0, #4294967295
1000418e:	e8bd 83f8 	ldmia.w	sp!, {r3, r4, r5, r6, r7, r8, r9, pc}
10004192:	4638      	mov	r0, r7
10004194:	f7fd fd88 	bl	10001ca8 <vPortFree>
10004198:	f04f 30ff 	mov.w	r0, #4294967295
1000419c:	e8bd 83f8 	ldmia.w	sp!, {r3, r4, r5, r6, r7, r8, r9, pc}
100041a0:	10003241 	.word	0x10003241
100041a4:	10002cbd 	.word	0x10002cbd

100041a8 <vTaskStartScheduler>:
100041a8:	e92d 4ff8 	stmdb	sp!, {r3, r4, r5, r6, r7, r8, r9, sl, fp, lr}
100041ac:	f44f 6000 	mov.w	r0, #2048	; 0x800
100041b0:	2600      	movs	r6, #0
100041b2:	f7fd fcf5 	bl	10001ba0 <pvPortMalloc>
100041b6:	f8df 8120 	ldr.w	r8, [pc, #288]	; 100042d8 <vTaskStartScheduler+0x130>
100041ba:	4605      	mov	r5, r0
100041bc:	4f44      	ldr	r7, [pc, #272]	; (100042d0 <vTaskStartScheduler+0x128>)
100041be:	f8df 9130 	ldr.w	r9, [pc, #304]	; 100042f0 <vTaskStartScheduler+0x148>
100041c2:	f106 0a30 	add.w	sl, r6, #48	; 0x30
100041c6:	2800      	cmp	r0, #0
100041c8:	d05e      	beq.n	10004288 <vTaskStartScheduler+0xe0>
100041ca:	207c      	movs	r0, #124	; 0x7c
100041cc:	f7fd fce8 	bl	10001ba0 <pvPortMalloc>
100041d0:	4604      	mov	r4, r0
100041d2:	2800      	cmp	r0, #0
100041d4:	d060      	beq.n	10004298 <vTaskStartScheduler+0xf0>
100041d6:	f04f 0b00 	mov.w	fp, #0
100041da:	227c      	movs	r2, #124	; 0x7c
100041dc:	4659      	mov	r1, fp
100041de:	f005 f989 	bl	100094f4 <memset>
100041e2:	f44f 6200 	mov.w	r2, #2048	; 0x800
100041e6:	21a5      	movs	r1, #165	; 0xa5
100041e8:	4628      	mov	r0, r5
100041ea:	6365      	str	r5, [r4, #52]	; 0x34
100041ec:	f005 f982 	bl	100094f4 <memset>
100041f0:	6b60      	ldr	r0, [r4, #52]	; 0x34
100041f2:	4b38      	ldr	r3, [pc, #224]	; (100042d4 <vTaskStartScheduler+0x12c>)
100041f4:	f200 70fc 	addw	r0, r0, #2044	; 0x7fc
100041f8:	6423      	str	r3, [r4, #64]	; 0x40
100041fa:	f020 0507 	bic.w	r5, r0, #7
100041fe:	f884 a044 	strb.w	sl, [r4, #68]	; 0x44
10004202:	f104 0008 	add.w	r0, r4, #8
10004206:	f884 b045 	strb.w	fp, [r4, #69]	; 0x45
1000420a:	f884 b04f 	strb.w	fp, [r4, #79]	; 0x4f
1000420e:	f8c4 b030 	str.w	fp, [r4, #48]	; 0x30
10004212:	f8c4 b058 	str.w	fp, [r4, #88]	; 0x58
10004216:	f7fe f993 	bl	10002540 <vListInitialiseItem>
1000421a:	f104 001c 	add.w	r0, r4, #28
1000421e:	f7fe f98f 	bl	10002540 <vListInitialiseItem>
10004222:	2220      	movs	r2, #32
10004224:	465b      	mov	r3, fp
10004226:	61e2      	str	r2, [r4, #28]
10004228:	4628      	mov	r0, r5
1000422a:	4642      	mov	r2, r8
1000422c:	6b61      	ldr	r1, [r4, #52]	; 0x34
1000422e:	6164      	str	r4, [r4, #20]
10004230:	62a4      	str	r4, [r4, #40]	; 0x28
10004232:	f7fd fe7f 	bl	10001f34 <pxPortInitialiseStack>
10004236:	f04f 33ff 	mov.w	r3, #4294967295
1000423a:	63a3      	str	r3, [r4, #56]	; 0x38
1000423c:	4b26      	ldr	r3, [pc, #152]	; (100042d8 <vTaskStartScheduler+0x130>)
1000423e:	6020      	str	r0, [r4, #0]
10004240:	4598      	cmp	r8, r3
10004242:	d024      	beq.n	1000428e <vTaskStartScheduler+0xe6>
10004244:	45c8      	cmp	r8, r9
10004246:	d022      	beq.n	1000428e <vTaskStartScheduler+0xe6>
10004248:	f04f 33ff 	mov.w	r3, #4294967295
1000424c:	603c      	str	r4, [r7, #0]
1000424e:	4620      	mov	r0, r4
10004250:	6063      	str	r3, [r4, #4]
10004252:	f7ff fdb1 	bl	10003db8 <prvAddNewTaskToReadyList>
10004256:	2401      	movs	r4, #1
10004258:	f857 3b04 	ldr.w	r3, [r7], #4
1000425c:	4a1f      	ldr	r2, [pc, #124]	; (100042dc <vTaskStartScheduler+0x134>)
1000425e:	639e      	str	r6, [r3, #56]	; 0x38
10004260:	46c8      	mov	r8, r9
10004262:	f842 3026 	str.w	r3, [r2, r6, lsl #2]
10004266:	b12e      	cbz	r6, 10004274 <vTaskStartScheduler+0xcc>
10004268:	2c01      	cmp	r4, #1
1000426a:	d01b      	beq.n	100042a4 <vTaskStartScheduler+0xfc>
1000426c:	4b1c      	ldr	r3, [pc, #112]	; (100042e0 <vTaskStartScheduler+0x138>)
1000426e:	681b      	ldr	r3, [r3, #0]
10004270:	e8bd 8ff8 	ldmia.w	sp!, {r3, r4, r5, r6, r7, r8, r9, sl, fp, pc}
10004274:	f44f 6000 	mov.w	r0, #2048	; 0x800
10004278:	2601      	movs	r6, #1
1000427a:	f7fd fc91 	bl	10001ba0 <pvPortMalloc>
1000427e:	f106 0a30 	add.w	sl, r6, #48	; 0x30
10004282:	4605      	mov	r5, r0
10004284:	2800      	cmp	r0, #0
10004286:	d1a0      	bne.n	100041ca <vTaskStartScheduler+0x22>
10004288:	f04f 34ff 	mov.w	r4, #4294967295
1000428c:	e7e4      	b.n	10004258 <vTaskStartScheduler+0xb0>
1000428e:	6be3      	ldr	r3, [r4, #60]	; 0x3c
10004290:	f043 0301 	orr.w	r3, r3, #1
10004294:	63e3      	str	r3, [r4, #60]	; 0x3c
10004296:	e7d7      	b.n	10004248 <vTaskStartScheduler+0xa0>
10004298:	4628      	mov	r0, r5
1000429a:	f7fd fd05 	bl	10001ca8 <vPortFree>
1000429e:	f04f 34ff 	mov.w	r4, #4294967295
100042a2:	e7d9      	b.n	10004258 <vTaskStartScheduler+0xb0>
100042a4:	f000 fc5c 	bl	10004b60 <xTimerCreateTimerTask>
100042a8:	2801      	cmp	r0, #1
100042aa:	d1df      	bne.n	1000426c <vTaskStartScheduler+0xc4>
100042ac:	f7fd fff4 	bl	10002298 <ulSetInterruptMask>
100042b0:	f04f 35ff 	mov.w	r5, #4294967295
100042b4:	2200      	movs	r2, #0
100042b6:	4b0b      	ldr	r3, [pc, #44]	; (100042e4 <vTaskStartScheduler+0x13c>)
100042b8:	480b      	ldr	r0, [pc, #44]	; (100042e8 <vTaskStartScheduler+0x140>)
100042ba:	490c      	ldr	r1, [pc, #48]	; (100042ec <vTaskStartScheduler+0x144>)
100042bc:	6005      	str	r5, [r0, #0]
100042be:	600c      	str	r4, [r1, #0]
100042c0:	601a      	str	r2, [r3, #0]
100042c2:	f7fd fe75 	bl	10001fb0 <xPortStartScheduler>
100042c6:	4b06      	ldr	r3, [pc, #24]	; (100042e0 <vTaskStartScheduler+0x138>)
100042c8:	681b      	ldr	r3, [r3, #0]
100042ca:	e8bd 8ff8 	ldmia.w	sp!, {r3, r4, r5, r6, r7, r8, r9, sl, fp, pc}
100042ce:	bf00      	nop
100042d0:	20042264 	.word	0x20042264
100042d4:	454c4449 	.word	0x454c4449
100042d8:	10003241 	.word	0x10003241
100042dc:	20001f20 	.word	0x20001f20
100042e0:	20001270 	.word	0x20001270
100042e4:	200422d0 	.word	0x200422d0
100042e8:	20042274 	.word	0x20042274
100042ec:	2004229c 	.word	0x2004229c
100042f0:	10002cbd 	.word	0x10002cbd

100042f4 <xTaskResumeAll.part.0>:
100042f4:	e92d 43f0 	stmdb	sp!, {r4, r5, r6, r7, r8, r9, lr}
100042f8:	b083      	sub	sp, #12
100042fa:	f7ff fccf 	bl	10003c9c <vTaskEnterCritical>
100042fe:	f04f 4050 	mov.w	r0, #3489660928	; 0xd0000000
10004302:	4a4b      	ldr	r2, [pc, #300]	; (10004430 <xTaskResumeAll.part.0+0x13c>)
10004304:	494b      	ldr	r1, [pc, #300]	; (10004434 <xTaskResumeAll.part.0+0x140>)
10004306:	6813      	ldr	r3, [r2, #0]
10004308:	6804      	ldr	r4, [r0, #0]
1000430a:	3b01      	subs	r3, #1
1000430c:	6013      	str	r3, [r2, #0]
1000430e:	784b      	ldrb	r3, [r1, #1]
10004310:	6800      	ldr	r0, [r0, #0]
10004312:	3b01      	subs	r3, #1
10004314:	b2db      	uxtb	r3, r3
10004316:	704b      	strb	r3, [r1, #1]
10004318:	b933      	cbnz	r3, 10004328 <xTaskResumeAll.part.0+0x34>
1000431a:	4947      	ldr	r1, [pc, #284]	; (10004438 <xTaskResumeAll.part.0+0x144>)
1000431c:	eb01 0140 	add.w	r1, r1, r0, lsl #1
10004320:	704b      	strb	r3, [r1, #1]
10004322:	4946      	ldr	r1, [pc, #280]	; (1000443c <xTaskResumeAll.part.0+0x148>)
10004324:	e8c1 3f8f 	stlb	r3, [r1]
10004328:	6817      	ldr	r7, [r2, #0]
1000432a:	2f00      	cmp	r7, #0
1000432c:	d170      	bne.n	10004410 <xTaskResumeAll.part.0+0x11c>
1000432e:	4b44      	ldr	r3, [pc, #272]	; (10004440 <xTaskResumeAll.part.0+0x14c>)
10004330:	6818      	ldr	r0, [r3, #0]
10004332:	2800      	cmp	r0, #0
10004334:	d062      	beq.n	100043fc <xTaskResumeAll.part.0+0x108>
10004336:	4e43      	ldr	r6, [pc, #268]	; (10004444 <xTaskResumeAll.part.0+0x150>)
10004338:	6833      	ldr	r3, [r6, #0]
1000433a:	2b00      	cmp	r3, #0
1000433c:	d049      	beq.n	100043d2 <xTaskResumeAll.part.0+0xde>
1000433e:	f8df c11c 	ldr.w	ip, [pc, #284]	; 1000445c <xTaskResumeAll.part.0+0x168>
10004342:	4d41      	ldr	r5, [pc, #260]	; (10004448 <xTaskResumeAll.part.0+0x154>)
10004344:	68f3      	ldr	r3, [r6, #12]
10004346:	68db      	ldr	r3, [r3, #12]
10004348:	6ada      	ldr	r2, [r3, #44]	; 0x2c
1000434a:	e9d3 1008 	ldrd	r1, r0, [r3, #32]
1000434e:	6088      	str	r0, [r1, #8]
10004350:	6041      	str	r1, [r0, #4]
10004352:	6851      	ldr	r1, [r2, #4]
10004354:	f103 0e1c 	add.w	lr, r3, #28
10004358:	4571      	cmp	r1, lr
1000435a:	6811      	ldr	r1, [r2, #0]
1000435c:	bf08      	it	eq
1000435e:	6050      	streq	r0, [r2, #4]
10004360:	3901      	subs	r1, #1
10004362:	62df      	str	r7, [r3, #44]	; 0x2c
10004364:	6011      	str	r1, [r2, #0]
10004366:	6999      	ldr	r1, [r3, #24]
10004368:	f103 0e08 	add.w	lr, r3, #8
1000436c:	f8d1 8004 	ldr.w	r8, [r1, #4]
10004370:	e9d3 0203 	ldrd	r0, r2, [r3, #12]
10004374:	45f0      	cmp	r8, lr
10004376:	6082      	str	r2, [r0, #8]
10004378:	6050      	str	r0, [r2, #4]
1000437a:	bf08      	it	eq
1000437c:	604a      	streq	r2, [r1, #4]
1000437e:	6b1a      	ldr	r2, [r3, #48]	; 0x30
10004380:	f8dc 9000 	ldr.w	r9, [ip]
10004384:	eb02 0882 	add.w	r8, r2, r2, lsl #2
10004388:	6808      	ldr	r0, [r1, #0]
1000438a:	454a      	cmp	r2, r9
1000438c:	eb05 0988 	add.w	r9, r5, r8, lsl #2
10004390:	bf88      	it	hi
10004392:	f8cc 2000 	strhi.w	r2, [ip]
10004396:	f8d9 2004 	ldr.w	r2, [r9, #4]
1000439a:	3801      	subs	r0, #1
1000439c:	6008      	str	r0, [r1, #0]
1000439e:	6890      	ldr	r0, [r2, #8]
100043a0:	f855 1028 	ldr.w	r1, [r5, r8, lsl #2]
100043a4:	6118      	str	r0, [r3, #16]
100043a6:	6890      	ldr	r0, [r2, #8]
100043a8:	60da      	str	r2, [r3, #12]
100043aa:	f8c0 e004 	str.w	lr, [r0, #4]
100043ae:	6830      	ldr	r0, [r6, #0]
100043b0:	3101      	adds	r1, #1
100043b2:	f8c2 e008 	str.w	lr, [r2, #8]
100043b6:	f8c3 9018 	str.w	r9, [r3, #24]
100043ba:	f845 1028 	str.w	r1, [r5, r8, lsl #2]
100043be:	2800      	cmp	r0, #0
100043c0:	d1c0      	bne.n	10004344 <xTaskResumeAll.part.0+0x50>
100043c2:	4b22      	ldr	r3, [pc, #136]	; (1000444c <xTaskResumeAll.part.0+0x158>)
100043c4:	681a      	ldr	r2, [r3, #0]
100043c6:	6812      	ldr	r2, [r2, #0]
100043c8:	bb5a      	cbnz	r2, 10004422 <xTaskResumeAll.part.0+0x12e>
100043ca:	f04f 32ff 	mov.w	r2, #4294967295
100043ce:	4b20      	ldr	r3, [pc, #128]	; (10004450 <xTaskResumeAll.part.0+0x15c>)
100043d0:	601a      	str	r2, [r3, #0]
100043d2:	f8df 808c 	ldr.w	r8, [pc, #140]	; 10004460 <xTaskResumeAll.part.0+0x16c>
100043d6:	f8d8 5000 	ldr.w	r5, [r8]
100043da:	b1dd      	cbz	r5, 10004414 <xTaskResumeAll.part.0+0x120>
100043dc:	2701      	movs	r7, #1
100043de:	4e1d      	ldr	r6, [pc, #116]	; (10004454 <xTaskResumeAll.part.0+0x160>)
100043e0:	f7fe ffee 	bl	100033c0 <xTaskIncrementTick>
100043e4:	b108      	cbz	r0, 100043ea <xTaskResumeAll.part.0+0xf6>
100043e6:	f846 7024 	str.w	r7, [r6, r4, lsl #2]
100043ea:	3d01      	subs	r5, #1
100043ec:	d1f8      	bne.n	100043e0 <xTaskResumeAll.part.0+0xec>
100043ee:	f8c8 5000 	str.w	r5, [r8]
100043f2:	f856 0024 	ldr.w	r0, [r6, r4, lsl #2]
100043f6:	3800      	subs	r0, #0
100043f8:	bf18      	it	ne
100043fa:	2001      	movne	r0, #1
100043fc:	4b16      	ldr	r3, [pc, #88]	; (10004458 <xTaskResumeAll.part.0+0x164>)
100043fe:	681b      	ldr	r3, [r3, #0]
10004400:	b11b      	cbz	r3, 1000440a <xTaskResumeAll.part.0+0x116>
10004402:	9001      	str	r0, [sp, #4]
10004404:	f7fe fcd0 	bl	10002da8 <vTaskExitCritical.part.0>
10004408:	9801      	ldr	r0, [sp, #4]
1000440a:	b003      	add	sp, #12
1000440c:	e8bd 83f0 	ldmia.w	sp!, {r4, r5, r6, r7, r8, r9, pc}
10004410:	2000      	movs	r0, #0
10004412:	e7f3      	b.n	100043fc <xTaskResumeAll.part.0+0x108>
10004414:	4e0f      	ldr	r6, [pc, #60]	; (10004454 <xTaskResumeAll.part.0+0x160>)
10004416:	f856 0024 	ldr.w	r0, [r6, r4, lsl #2]
1000441a:	3800      	subs	r0, #0
1000441c:	bf18      	it	ne
1000441e:	2001      	movne	r0, #1
10004420:	e7ec      	b.n	100043fc <xTaskResumeAll.part.0+0x108>
10004422:	681a      	ldr	r2, [r3, #0]
10004424:	4b0a      	ldr	r3, [pc, #40]	; (10004450 <xTaskResumeAll.part.0+0x15c>)
10004426:	68d2      	ldr	r2, [r2, #12]
10004428:	6812      	ldr	r2, [r2, #0]
1000442a:	601a      	str	r2, [r3, #0]
1000442c:	e7d1      	b.n	100043d2 <xTaskResumeAll.part.0+0xde>
1000442e:	bf00      	nop
10004430:	20042200 	.word	0x20042200
10004434:	200421d4 	.word	0x200421d4
10004438:	200421d0 	.word	0x200421d0
1000443c:	20001677 	.word	0x20001677
10004440:	200421f8 	.word	0x200421f8
10004444:	20042288 	.word	0x20042288
10004448:	20001f3c 	.word	0x20001f3c
1000444c:	20001f2c 	.word	0x20001f2c
10004450:	20042274 	.word	0x20042274
10004454:	200422dc 	.word	0x200422dc
10004458:	2004229c 	.word	0x2004229c
1000445c:	20042208 	.word	0x20042208
10004460:	20042284 	.word	0x20042284

10004464 <xTaskResumeAll>:
10004464:	4b02      	ldr	r3, [pc, #8]	; (10004470 <xTaskResumeAll+0xc>)
10004466:	6818      	ldr	r0, [r3, #0]
10004468:	b900      	cbnz	r0, 1000446c <xTaskResumeAll+0x8>
1000446a:	4770      	bx	lr
1000446c:	f7ff bf42 	b.w	100042f4 <xTaskResumeAll.part.0>
10004470:	2004229c 	.word	0x2004229c

10004474 <vTaskDelay>:
10004474:	b510      	push	{r4, lr}
10004476:	b082      	sub	sp, #8
10004478:	b138      	cbz	r0, 1000448a <vTaskDelay+0x16>
1000447a:	4c15      	ldr	r4, [pc, #84]	; (100044d0 <vTaskDelay+0x5c>)
1000447c:	6823      	ldr	r3, [r4, #0]
1000447e:	b9db      	cbnz	r3, 100044b8 <vTaskDelay+0x44>
10004480:	2100      	movs	r1, #0
10004482:	f7fe feeb 	bl	1000325c <prvAddCurrentTaskToDelayedList>
10004486:	6823      	ldr	r3, [r4, #0]
10004488:	b98b      	cbnz	r3, 100044ae <vTaskDelay+0x3a>
1000448a:	f04f 4350 	mov.w	r3, #3489660928	; 0xd0000000
1000448e:	4a11      	ldr	r2, [pc, #68]	; (100044d4 <vTaskDelay+0x60>)
10004490:	681b      	ldr	r3, [r3, #0]
10004492:	f852 2023 	ldr.w	r2, [r2, r3, lsl #2]
10004496:	b12a      	cbz	r2, 100044a4 <vTaskDelay+0x30>
10004498:	2101      	movs	r1, #1
1000449a:	4a0f      	ldr	r2, [pc, #60]	; (100044d8 <vTaskDelay+0x64>)
1000449c:	f842 1023 	str.w	r1, [r2, r3, lsl #2]
100044a0:	b002      	add	sp, #8
100044a2:	bd10      	pop	{r4, pc}
100044a4:	b002      	add	sp, #8
100044a6:	e8bd 4010 	ldmia.w	sp!, {r4, lr}
100044aa:	f7fd bd21 	b.w	10001ef0 <vPortYield>
100044ae:	f7ff ff21 	bl	100042f4 <xTaskResumeAll.part.0>
100044b2:	2800      	cmp	r0, #0
100044b4:	d0e9      	beq.n	1000448a <vTaskDelay+0x16>
100044b6:	e7f3      	b.n	100044a0 <vTaskDelay+0x2c>
100044b8:	9001      	str	r0, [sp, #4]
100044ba:	f7fe fd6b 	bl	10002f94 <vTaskSuspendAll.part.0>
100044be:	2100      	movs	r1, #0
100044c0:	9801      	ldr	r0, [sp, #4]
100044c2:	f7fe fecb 	bl	1000325c <prvAddCurrentTaskToDelayedList>
100044c6:	6823      	ldr	r3, [r4, #0]
100044c8:	2b00      	cmp	r3, #0
100044ca:	d0de      	beq.n	1000448a <vTaskDelay+0x16>
100044cc:	e7ef      	b.n	100044ae <vTaskDelay+0x3a>
100044ce:	bf00      	nop
100044d0:	2004229c 	.word	0x2004229c
100044d4:	200421d8 	.word	0x200421d8
100044d8:	200422dc 	.word	0x200422dc

100044dc <vTaskRemoveFromUnorderedEventList>:
100044dc:	b5f8      	push	{r3, r4, r5, r6, r7, lr}
100044de:	e9d0 2501 	ldrd	r2, r5, [r0, #4]
100044e2:	2700      	movs	r7, #0
100044e4:	f041 4100 	orr.w	r1, r1, #2147483648	; 0x80000000
100044e8:	68c4      	ldr	r4, [r0, #12]
100044ea:	6903      	ldr	r3, [r0, #16]
100044ec:	6001      	str	r1, [r0, #0]
100044ee:	6095      	str	r5, [r2, #8]
100044f0:	6881      	ldr	r1, [r0, #8]
100044f2:	f104 0508 	add.w	r5, r4, #8
100044f6:	604a      	str	r2, [r1, #4]
100044f8:	685a      	ldr	r2, [r3, #4]
100044fa:	4282      	cmp	r2, r0
100044fc:	681a      	ldr	r2, [r3, #0]
100044fe:	bf08      	it	eq
10004500:	6059      	streq	r1, [r3, #4]
10004502:	3a01      	subs	r2, #1
10004504:	e9d4 1603 	ldrd	r1, r6, [r4, #12]
10004508:	6107      	str	r7, [r0, #16]
1000450a:	601a      	str	r2, [r3, #0]
1000450c:	69a3      	ldr	r3, [r4, #24]
1000450e:	608e      	str	r6, [r1, #8]
10004510:	6922      	ldr	r2, [r4, #16]
10004512:	6051      	str	r1, [r2, #4]
10004514:	6859      	ldr	r1, [r3, #4]
10004516:	42a9      	cmp	r1, r5
10004518:	bf08      	it	eq
1000451a:	605a      	streq	r2, [r3, #4]
1000451c:	681a      	ldr	r2, [r3, #0]
1000451e:	4913      	ldr	r1, [pc, #76]	; (1000456c <vTaskRemoveFromUnorderedEventList+0x90>)
10004520:	3a01      	subs	r2, #1
10004522:	601a      	str	r2, [r3, #0]
10004524:	680a      	ldr	r2, [r1, #0]
10004526:	6b23      	ldr	r3, [r4, #48]	; 0x30
10004528:	4293      	cmp	r3, r2
1000452a:	bf88      	it	hi
1000452c:	600b      	strhi	r3, [r1, #0]
1000452e:	4910      	ldr	r1, [pc, #64]	; (10004570 <vTaskRemoveFromUnorderedEventList+0x94>)
10004530:	eb03 0383 	add.w	r3, r3, r3, lsl #2
10004534:	0098      	lsls	r0, r3, #2
10004536:	eb01 0383 	add.w	r3, r1, r3, lsl #2
1000453a:	685a      	ldr	r2, [r3, #4]
1000453c:	6896      	ldr	r6, [r2, #8]
1000453e:	60e2      	str	r2, [r4, #12]
10004540:	6126      	str	r6, [r4, #16]
10004542:	6896      	ldr	r6, [r2, #8]
10004544:	6075      	str	r5, [r6, #4]
10004546:	6095      	str	r5, [r2, #8]
10004548:	580a      	ldr	r2, [r1, r0]
1000454a:	61a3      	str	r3, [r4, #24]
1000454c:	3201      	adds	r2, #1
1000454e:	500a      	str	r2, [r1, r0]
10004550:	f7ff fba4 	bl	10003c9c <vTaskEnterCritical>
10004554:	4620      	mov	r0, r4
10004556:	f7fe fbc1 	bl	10002cdc <prvYieldForTask>
1000455a:	4b06      	ldr	r3, [pc, #24]	; (10004574 <vTaskRemoveFromUnorderedEventList+0x98>)
1000455c:	681b      	ldr	r3, [r3, #0]
1000455e:	b11b      	cbz	r3, 10004568 <vTaskRemoveFromUnorderedEventList+0x8c>
10004560:	e8bd 40f8 	ldmia.w	sp!, {r3, r4, r5, r6, r7, lr}
10004564:	f7fe bc20 	b.w	10002da8 <vTaskExitCritical.part.0>
10004568:	bdf8      	pop	{r3, r4, r5, r6, r7, pc}
1000456a:	bf00      	nop
1000456c:	20042208 	.word	0x20042208
10004570:	20001f3c 	.word	0x20001f3c
10004574:	2004229c 	.word	0x2004229c

10004578 <xTaskCheckForTimeOut>:
10004578:	e92d 4ff8 	stmdb	sp!, {r3, r4, r5, r6, r7, r8, r9, sl, fp, lr}
1000457c:	4604      	mov	r4, r0
1000457e:	f04f 4a50 	mov.w	sl, #3489660928	; 0xd0000000
10004582:	4d23      	ldr	r5, [pc, #140]	; (10004610 <xTaskCheckForTimeOut+0x98>)
10004584:	460e      	mov	r6, r1
10004586:	4f23      	ldr	r7, [pc, #140]	; (10004614 <xTaskCheckForTimeOut+0x9c>)
10004588:	f7ff fb88 	bl	10003c9c <vTaskEnterCritical>
1000458c:	f8d5 9000 	ldr.w	r9, [r5]
10004590:	f8d4 8004 	ldr.w	r8, [r4, #4]
10004594:	f7fd fe80 	bl	10002298 <ulSetInterruptMask>
10004598:	f8da 3000 	ldr.w	r3, [sl]
1000459c:	f857 b023 	ldr.w	fp, [r7, r3, lsl #2]
100045a0:	f7fd fe86 	bl	100022b0 <vClearInterruptMask>
100045a4:	f89b 0079 	ldrb.w	r0, [fp, #121]	; 0x79
100045a8:	bb28      	cbnz	r0, 100045f6 <xTaskCheckForTimeOut+0x7e>
100045aa:	6833      	ldr	r3, [r6, #0]
100045ac:	1c5a      	adds	r2, r3, #1
100045ae:	d00b      	beq.n	100045c8 <xTaskCheckForTimeOut+0x50>
100045b0:	4a19      	ldr	r2, [pc, #100]	; (10004618 <xTaskCheckForTimeOut+0xa0>)
100045b2:	6821      	ldr	r1, [r4, #0]
100045b4:	6810      	ldr	r0, [r2, #0]
100045b6:	4281      	cmp	r1, r0
100045b8:	d00f      	beq.n	100045da <xTaskCheckForTimeOut+0x62>
100045ba:	6861      	ldr	r1, [r4, #4]
100045bc:	4549      	cmp	r1, r9
100045be:	d80c      	bhi.n	100045da <xTaskCheckForTimeOut+0x62>
100045c0:	2300      	movs	r3, #0
100045c2:	2501      	movs	r5, #1
100045c4:	6033      	str	r3, [r6, #0]
100045c6:	e000      	b.n	100045ca <xTaskCheckForTimeOut+0x52>
100045c8:	4605      	mov	r5, r0
100045ca:	4b14      	ldr	r3, [pc, #80]	; (1000461c <xTaskCheckForTimeOut+0xa4>)
100045cc:	681b      	ldr	r3, [r3, #0]
100045ce:	b10b      	cbz	r3, 100045d4 <xTaskCheckForTimeOut+0x5c>
100045d0:	f7fe fbea 	bl	10002da8 <vTaskExitCritical.part.0>
100045d4:	4628      	mov	r0, r5
100045d6:	e8bd 8ff8 	ldmia.w	sp!, {r3, r4, r5, r6, r7, r8, r9, sl, fp, pc}
100045da:	eba9 0108 	sub.w	r1, r9, r8
100045de:	428b      	cmp	r3, r1
100045e0:	d9ee      	bls.n	100045c0 <xTaskCheckForTimeOut+0x48>
100045e2:	6811      	ldr	r1, [r2, #0]
100045e4:	eba3 0309 	sub.w	r3, r3, r9
100045e8:	682a      	ldr	r2, [r5, #0]
100045ea:	4443      	add	r3, r8
100045ec:	6033      	str	r3, [r6, #0]
100045ee:	2500      	movs	r5, #0
100045f0:	e9c4 1200 	strd	r1, r2, [r4]
100045f4:	e7e9      	b.n	100045ca <xTaskCheckForTimeOut+0x52>
100045f6:	f7fd fe4f 	bl	10002298 <ulSetInterruptMask>
100045fa:	f8da 3000 	ldr.w	r3, [sl]
100045fe:	2501      	movs	r5, #1
10004600:	f857 4023 	ldr.w	r4, [r7, r3, lsl #2]
10004604:	f7fd fe54 	bl	100022b0 <vClearInterruptMask>
10004608:	2300      	movs	r3, #0
1000460a:	f884 3079 	strb.w	r3, [r4, #121]	; 0x79
1000460e:	e7dc      	b.n	100045ca <xTaskCheckForTimeOut+0x52>
10004610:	200422d0 	.word	0x200422d0
10004614:	20001f20 	.word	0x20001f20
10004618:	20042278 	.word	0x20042278
1000461c:	2004229c 	.word	0x2004229c

10004620 <vTaskEnterCriticalFromISR>:
10004620:	4b1f      	ldr	r3, [pc, #124]	; (100046a0 <vTaskEnterCriticalFromISR+0x80>)
10004622:	6818      	ldr	r0, [r3, #0]
10004624:	b900      	cbnz	r0, 10004628 <vTaskEnterCriticalFromISR+0x8>
10004626:	4770      	bx	lr
10004628:	b570      	push	{r4, r5, r6, lr}
1000462a:	f7fd fe35 	bl	10002298 <ulSetInterruptMask>
1000462e:	f04f 4250 	mov.w	r2, #3489660928	; 0xd0000000
10004632:	4c1c      	ldr	r4, [pc, #112]	; (100046a4 <vTaskEnterCriticalFromISR+0x84>)
10004634:	6813      	ldr	r3, [r2, #0]
10004636:	f854 1023 	ldr.w	r1, [r4, r3, lsl #2]
1000463a:	b129      	cbz	r1, 10004648 <vTaskEnterCriticalFromISR+0x28>
1000463c:	f854 2023 	ldr.w	r2, [r4, r3, lsl #2]
10004640:	3201      	adds	r2, #1
10004642:	f844 2023 	str.w	r2, [r4, r3, lsl #2]
10004646:	bd70      	pop	{r4, r5, r6, pc}
10004648:	4917      	ldr	r1, [pc, #92]	; (100046a8 <vTaskEnterCriticalFromISR+0x88>)
1000464a:	e8d1 5fcf 	ldaexb	r5, [r1]
1000464e:	2601      	movs	r6, #1
10004650:	2d00      	cmp	r5, #0
10004652:	d101      	bne.n	10004658 <vTaskEnterCriticalFromISR+0x38>
10004654:	e8c1 6f45 	strexb	r5, r6, [r1]
10004658:	f3bf 8f5f 	dmb	sy
1000465c:	b94d      	cbnz	r5, 10004672 <vTaskEnterCriticalFromISR+0x52>
1000465e:	4d13      	ldr	r5, [pc, #76]	; (100046ac <vTaskEnterCriticalFromISR+0x8c>)
10004660:	2201      	movs	r2, #1
10004662:	4913      	ldr	r1, [pc, #76]	; (100046b0 <vTaskEnterCriticalFromISR+0x90>)
10004664:	700a      	strb	r2, [r1, #0]
10004666:	f805 2013 	strb.w	r2, [r5, r3, lsl #1]
1000466a:	f04f 4350 	mov.w	r3, #3489660928	; 0xd0000000
1000466e:	681b      	ldr	r3, [r3, #0]
10004670:	e7e4      	b.n	1000463c <vTaskEnterCriticalFromISR+0x1c>
10004672:	4d0e      	ldr	r5, [pc, #56]	; (100046ac <vTaskEnterCriticalFromISR+0x8c>)
10004674:	f815 6013 	ldrb.w	r6, [r5, r3, lsl #1]
10004678:	b95e      	cbnz	r6, 10004692 <vTaskEnterCriticalFromISR+0x72>
1000467a:	e8d1 6fcf 	ldaexb	r6, [r1]
1000467e:	2201      	movs	r2, #1
10004680:	2e00      	cmp	r6, #0
10004682:	d1fa      	bne.n	1000467a <vTaskEnterCriticalFromISR+0x5a>
10004684:	e8c1 2f46 	strexb	r6, r2, [r1]
10004688:	2e00      	cmp	r6, #0
1000468a:	d1f6      	bne.n	1000467a <vTaskEnterCriticalFromISR+0x5a>
1000468c:	f3bf 8f5f 	dmb	sy
10004690:	e7e6      	b.n	10004660 <vTaskEnterCriticalFromISR+0x40>
10004692:	4907      	ldr	r1, [pc, #28]	; (100046b0 <vTaskEnterCriticalFromISR+0x90>)
10004694:	780b      	ldrb	r3, [r1, #0]
10004696:	3301      	adds	r3, #1
10004698:	b2db      	uxtb	r3, r3
1000469a:	700b      	strb	r3, [r1, #0]
1000469c:	6813      	ldr	r3, [r2, #0]
1000469e:	e7cd      	b.n	1000463c <vTaskEnterCriticalFromISR+0x1c>
100046a0:	2004229c 	.word	0x2004229c
100046a4:	200421d8 	.word	0x200421d8
100046a8:	20001676 	.word	0x20001676
100046ac:	200421d0 	.word	0x200421d0
100046b0:	200421d4 	.word	0x200421d4

100046b4 <vTaskExitCritical>:
100046b4:	4b1e      	ldr	r3, [pc, #120]	; (10004730 <vTaskExitCritical+0x7c>)
100046b6:	681b      	ldr	r3, [r3, #0]
100046b8:	2b00      	cmp	r3, #0
100046ba:	d034      	beq.n	10004726 <vTaskExitCritical+0x72>
100046bc:	f04f 4150 	mov.w	r1, #3489660928	; 0xd0000000
100046c0:	4b1c      	ldr	r3, [pc, #112]	; (10004734 <vTaskExitCritical+0x80>)
100046c2:	680a      	ldr	r2, [r1, #0]
100046c4:	f853 0022 	ldr.w	r0, [r3, r2, lsl #2]
100046c8:	2800      	cmp	r0, #0
100046ca:	d02c      	beq.n	10004726 <vTaskExitCritical+0x72>
100046cc:	f853 0022 	ldr.w	r0, [r3, r2, lsl #2]
100046d0:	3801      	subs	r0, #1
100046d2:	f843 0022 	str.w	r0, [r3, r2, lsl #2]
100046d6:	680a      	ldr	r2, [r1, #0]
100046d8:	f853 3022 	ldr.w	r3, [r3, r2, lsl #2]
100046dc:	bb1b      	cbnz	r3, 10004726 <vTaskExitCritical+0x72>
100046de:	b510      	push	{r4, lr}
100046e0:	4915      	ldr	r1, [pc, #84]	; (10004738 <vTaskExitCritical+0x84>)
100046e2:	4b16      	ldr	r3, [pc, #88]	; (1000473c <vTaskExitCritical+0x88>)
100046e4:	f853 4022 	ldr.w	r4, [r3, r2, lsl #2]
100046e8:	780b      	ldrb	r3, [r1, #0]
100046ea:	3b01      	subs	r3, #1
100046ec:	b2db      	uxtb	r3, r3
100046ee:	700b      	strb	r3, [r1, #0]
100046f0:	b92b      	cbnz	r3, 100046fe <vTaskExitCritical+0x4a>
100046f2:	4813      	ldr	r0, [pc, #76]	; (10004740 <vTaskExitCritical+0x8c>)
100046f4:	f800 3012 	strb.w	r3, [r0, r2, lsl #1]
100046f8:	4a12      	ldr	r2, [pc, #72]	; (10004744 <vTaskExitCritical+0x90>)
100046fa:	e8c2 3f8f 	stlb	r3, [r2]
100046fe:	f04f 4250 	mov.w	r2, #3489660928	; 0xd0000000
10004702:	784b      	ldrb	r3, [r1, #1]
10004704:	6810      	ldr	r0, [r2, #0]
10004706:	3b01      	subs	r3, #1
10004708:	b2db      	uxtb	r3, r3
1000470a:	704b      	strb	r3, [r1, #1]
1000470c:	b933      	cbnz	r3, 1000471c <vTaskExitCritical+0x68>
1000470e:	4a0c      	ldr	r2, [pc, #48]	; (10004740 <vTaskExitCritical+0x8c>)
10004710:	490d      	ldr	r1, [pc, #52]	; (10004748 <vTaskExitCritical+0x94>)
10004712:	eb02 0240 	add.w	r2, r2, r0, lsl #1
10004716:	7053      	strb	r3, [r2, #1]
10004718:	e8c1 3f8f 	stlb	r3, [r1]
1000471c:	2000      	movs	r0, #0
1000471e:	f7fd fdc7 	bl	100022b0 <vClearInterruptMask>
10004722:	b90c      	cbnz	r4, 10004728 <vTaskExitCritical+0x74>
10004724:	bd10      	pop	{r4, pc}
10004726:	4770      	bx	lr
10004728:	e8bd 4010 	ldmia.w	sp!, {r4, lr}
1000472c:	f7fd bbe0 	b.w	10001ef0 <vPortYield>
10004730:	2004229c 	.word	0x2004229c
10004734:	200421d8 	.word	0x200421d8
10004738:	200421d4 	.word	0x200421d4
1000473c:	200422dc 	.word	0x200422dc
10004740:	200421d0 	.word	0x200421d0
10004744:	20001676 	.word	0x20001676
10004748:	20001677 	.word	0x20001677

1000474c <vTaskExitCriticalFromISR>:
1000474c:	4b13      	ldr	r3, [pc, #76]	; (1000479c <vTaskExitCriticalFromISR+0x50>)
1000474e:	681b      	ldr	r3, [r3, #0]
10004750:	b903      	cbnz	r3, 10004754 <vTaskExitCriticalFromISR+0x8>
10004752:	4770      	bx	lr
10004754:	f04f 4150 	mov.w	r1, #3489660928	; 0xd0000000
10004758:	4b11      	ldr	r3, [pc, #68]	; (100047a0 <vTaskExitCriticalFromISR+0x54>)
1000475a:	680a      	ldr	r2, [r1, #0]
1000475c:	b410      	push	{r4}
1000475e:	f853 4022 	ldr.w	r4, [r3, r2, lsl #2]
10004762:	b1c4      	cbz	r4, 10004796 <vTaskExitCriticalFromISR+0x4a>
10004764:	f853 4022 	ldr.w	r4, [r3, r2, lsl #2]
10004768:	3c01      	subs	r4, #1
1000476a:	f843 4022 	str.w	r4, [r3, r2, lsl #2]
1000476e:	680a      	ldr	r2, [r1, #0]
10004770:	f853 3022 	ldr.w	r3, [r3, r2, lsl #2]
10004774:	b97b      	cbnz	r3, 10004796 <vTaskExitCriticalFromISR+0x4a>
10004776:	490b      	ldr	r1, [pc, #44]	; (100047a4 <vTaskExitCriticalFromISR+0x58>)
10004778:	780b      	ldrb	r3, [r1, #0]
1000477a:	3b01      	subs	r3, #1
1000477c:	b2db      	uxtb	r3, r3
1000477e:	700b      	strb	r3, [r1, #0]
10004780:	b92b      	cbnz	r3, 1000478e <vTaskExitCriticalFromISR+0x42>
10004782:	4c09      	ldr	r4, [pc, #36]	; (100047a8 <vTaskExitCriticalFromISR+0x5c>)
10004784:	4909      	ldr	r1, [pc, #36]	; (100047ac <vTaskExitCriticalFromISR+0x60>)
10004786:	f804 3012 	strb.w	r3, [r4, r2, lsl #1]
1000478a:	e8c1 3f8f 	stlb	r3, [r1]
1000478e:	f85d 4b04 	ldr.w	r4, [sp], #4
10004792:	f7fd bd8d 	b.w	100022b0 <vClearInterruptMask>
10004796:	f85d 4b04 	ldr.w	r4, [sp], #4
1000479a:	4770      	bx	lr
1000479c:	2004229c 	.word	0x2004229c
100047a0:	200421d8 	.word	0x200421d8
100047a4:	200421d4 	.word	0x200421d4
100047a8:	200421d0 	.word	0x200421d0
100047ac:	20001676 	.word	0x20001676

100047b0 <uxTaskResetEventItemValue>:
100047b0:	b5f8      	push	{r3, r4, r5, r6, r7, lr}
100047b2:	f04f 4650 	mov.w	r6, #3489660928	; 0xd0000000
100047b6:	f7fd fd6f 	bl	10002298 <ulSetInterruptMask>
100047ba:	4d0d      	ldr	r5, [pc, #52]	; (100047f0 <uxTaskResetEventItemValue+0x40>)
100047bc:	6833      	ldr	r3, [r6, #0]
100047be:	f855 4023 	ldr.w	r4, [r5, r3, lsl #2]
100047c2:	f7fd fd75 	bl	100022b0 <vClearInterruptMask>
100047c6:	69e7      	ldr	r7, [r4, #28]
100047c8:	f7fd fd66 	bl	10002298 <ulSetInterruptMask>
100047cc:	6833      	ldr	r3, [r6, #0]
100047ce:	f855 4023 	ldr.w	r4, [r5, r3, lsl #2]
100047d2:	f7fd fd6d 	bl	100022b0 <vClearInterruptMask>
100047d6:	6b24      	ldr	r4, [r4, #48]	; 0x30
100047d8:	f7fd fd5e 	bl	10002298 <ulSetInterruptMask>
100047dc:	6833      	ldr	r3, [r6, #0]
100047de:	f1c4 0420 	rsb	r4, r4, #32
100047e2:	f855 5023 	ldr.w	r5, [r5, r3, lsl #2]
100047e6:	f7fd fd63 	bl	100022b0 <vClearInterruptMask>
100047ea:	4638      	mov	r0, r7
100047ec:	61ec      	str	r4, [r5, #28]
100047ee:	bdf8      	pop	{r3, r4, r5, r6, r7, pc}
100047f0:	20001f20 	.word	0x20001f20

100047f4 <prvTimerTask>:
100047f4:	e92d 4ff0 	stmdb	sp!, {r4, r5, r6, r7, r8, r9, sl, fp, lr}
100047f8:	4ea4      	ldr	r6, [pc, #656]	; (10004a8c <prvTimerTask+0x298>)
100047fa:	f8df 829c 	ldr.w	r8, [pc, #668]	; 10004a98 <prvTimerTask+0x2a4>
100047fe:	4da4      	ldr	r5, [pc, #656]	; (10004a90 <prvTimerTask+0x29c>)
10004800:	b087      	sub	sp, #28
10004802:	6833      	ldr	r3, [r6, #0]
10004804:	681c      	ldr	r4, [r3, #0]
10004806:	2c00      	cmp	r4, #0
10004808:	f000 80d7 	beq.w	100049ba <prvTimerTask+0x1c6>
1000480c:	68db      	ldr	r3, [r3, #12]
1000480e:	681c      	ldr	r4, [r3, #0]
10004810:	f7fe fdc2 	bl	10003398 <vTaskSuspendAll>
10004814:	f7fe fdc8 	bl	100033a8 <xTaskGetTickCount>
10004818:	4b9e      	ldr	r3, [pc, #632]	; (10004a94 <prvTimerTask+0x2a0>)
1000481a:	4682      	mov	sl, r0
1000481c:	681b      	ldr	r3, [r3, #0]
1000481e:	4283      	cmp	r3, r0
10004820:	d845      	bhi.n	100048ae <prvTimerTask+0xba>
10004822:	4b9c      	ldr	r3, [pc, #624]	; (10004a94 <prvTimerTask+0x2a0>)
10004824:	4284      	cmp	r4, r0
10004826:	6018      	str	r0, [r3, #0]
10004828:	f240 8138 	bls.w	10004a9c <prvTimerTask+0x2a8>
1000482c:	2200      	movs	r2, #0
1000482e:	6828      	ldr	r0, [r5, #0]
10004830:	eba4 010a 	sub.w	r1, r4, sl
10004834:	f7fe fa1a 	bl	10002c6c <vQueueWaitForMessageRestricted>
10004838:	f7ff fe14 	bl	10004464 <xTaskResumeAll>
1000483c:	2800      	cmp	r0, #0
1000483e:	f000 8117 	beq.w	10004a70 <prvTimerTask+0x27c>
10004842:	2300      	movs	r3, #0
10004844:	e9cd 3302 	strd	r3, r3, [sp, #8]
10004848:	e9cd 3304 	strd	r3, r3, [sp, #16]
1000484c:	2200      	movs	r2, #0
1000484e:	6828      	ldr	r0, [r5, #0]
10004850:	a902      	add	r1, sp, #8
10004852:	f7fe f8f9 	bl	10002a48 <xQueueReceive>
10004856:	2800      	cmp	r0, #0
10004858:	d0d3      	beq.n	10004802 <prvTimerTask+0xe>
1000485a:	9b02      	ldr	r3, [sp, #8]
1000485c:	2b00      	cmp	r3, #0
1000485e:	f2c0 80a3 	blt.w	100049a8 <prvTimerTask+0x1b4>
10004862:	f8dd a010 	ldr.w	sl, [sp, #16]
10004866:	f8da 3014 	ldr.w	r3, [sl, #20]
1000486a:	b11b      	cbz	r3, 10004874 <prvTimerTask+0x80>
1000486c:	f10a 0004 	add.w	r0, sl, #4
10004870:	f7fd fe92 	bl	10002598 <uxListRemove>
10004874:	f7fe fd98 	bl	100033a8 <xTaskGetTickCount>
10004878:	4b86      	ldr	r3, [pc, #536]	; (10004a94 <prvTimerTask+0x2a0>)
1000487a:	9001      	str	r0, [sp, #4]
1000487c:	681b      	ldr	r3, [r3, #0]
1000487e:	4298      	cmp	r0, r3
10004880:	f0c0 80ba 	bcc.w	100049f8 <prvTimerTask+0x204>
10004884:	9b02      	ldr	r3, [sp, #8]
10004886:	4a83      	ldr	r2, [pc, #524]	; (10004a94 <prvTimerTask+0x2a0>)
10004888:	9901      	ldr	r1, [sp, #4]
1000488a:	3b01      	subs	r3, #1
1000488c:	6011      	str	r1, [r2, #0]
1000488e:	2b08      	cmp	r3, #8
10004890:	d8dc      	bhi.n	1000484c <prvTimerTask+0x58>
10004892:	e8df f003 	tbb	[pc, r3]
10004896:	3838      	.short	0x3838
10004898:	387f5c78 	.word	0x387f5c78
1000489c:	7838      	.short	0x7838
1000489e:	5c          	.byte	0x5c
1000489f:	00          	.byte	0x00
100048a0:	f023 0301 	bic.w	r3, r3, #1
100048a4:	f884 3028 	strb.w	r3, [r4, #40]	; 0x28
100048a8:	4620      	mov	r0, r4
100048aa:	6a23      	ldr	r3, [r4, #32]
100048ac:	4798      	blx	r3
100048ae:	6833      	ldr	r3, [r6, #0]
100048b0:	681a      	ldr	r2, [r3, #0]
100048b2:	2a00      	cmp	r2, #0
100048b4:	f000 8095 	beq.w	100049e2 <prvTimerTask+0x1ee>
100048b8:	68db      	ldr	r3, [r3, #12]
100048ba:	68dc      	ldr	r4, [r3, #12]
100048bc:	681f      	ldr	r7, [r3, #0]
100048be:	f104 0b04 	add.w	fp, r4, #4
100048c2:	4658      	mov	r0, fp
100048c4:	f7fd fe68 	bl	10002598 <uxListRemove>
100048c8:	f894 3028 	ldrb.w	r3, [r4, #40]	; 0x28
100048cc:	0758      	lsls	r0, r3, #29
100048ce:	d5e7      	bpl.n	100048a0 <prvTimerTask+0xac>
100048d0:	43fa      	mvns	r2, r7
100048d2:	69a3      	ldr	r3, [r4, #24]
100048d4:	6124      	str	r4, [r4, #16]
100048d6:	eb07 0903 	add.w	r9, r7, r3
100048da:	4293      	cmp	r3, r2
100048dc:	f8c4 9004 	str.w	r9, [r4, #4]
100048e0:	d80b      	bhi.n	100048fa <prvTimerTask+0x106>
100048e2:	464f      	mov	r7, r9
100048e4:	43ff      	mvns	r7, r7
100048e6:	6a23      	ldr	r3, [r4, #32]
100048e8:	4620      	mov	r0, r4
100048ea:	4798      	blx	r3
100048ec:	69a3      	ldr	r3, [r4, #24]
100048ee:	6124      	str	r4, [r4, #16]
100048f0:	4499      	add	r9, r3
100048f2:	42bb      	cmp	r3, r7
100048f4:	f8c4 9004 	str.w	r9, [r4, #4]
100048f8:	d9f3      	bls.n	100048e2 <prvTimerTask+0xee>
100048fa:	4659      	mov	r1, fp
100048fc:	f8d8 0000 	ldr.w	r0, [r8]
10004900:	f7fd fe32 	bl	10002568 <vListInsert>
10004904:	e7d0      	b.n	100048a8 <prvTimerTask+0xb4>
10004906:	f89a 4028 	ldrb.w	r4, [sl, #40]	; 0x28
1000490a:	9803      	ldr	r0, [sp, #12]
1000490c:	f8da 1018 	ldr.w	r1, [sl, #24]
10004910:	9a01      	ldr	r2, [sp, #4]
10004912:	1843      	adds	r3, r0, r1
10004914:	f044 0701 	orr.w	r7, r4, #1
10004918:	f88a 7028 	strb.w	r7, [sl, #40]	; 0x28
1000491c:	bf2c      	ite	cs
1000491e:	2701      	movcs	r7, #1
10004920:	2700      	movcc	r7, #0
10004922:	4293      	cmp	r3, r2
10004924:	f8ca 3004 	str.w	r3, [sl, #4]
10004928:	f8ca a010 	str.w	sl, [sl, #16]
1000492c:	f200 80a3 	bhi.w	10004a76 <prvTimerTask+0x282>
10004930:	1a10      	subs	r0, r2, r0
10004932:	4281      	cmp	r1, r0
10004934:	d820      	bhi.n	10004978 <prvTimerTask+0x184>
10004936:	0767      	lsls	r7, r4, #29
10004938:	f100 80ec 	bmi.w	10004b14 <prvTimerTask+0x320>
1000493c:	f024 0401 	bic.w	r4, r4, #1
10004940:	f88a 4028 	strb.w	r4, [sl, #40]	; 0x28
10004944:	4650      	mov	r0, sl
10004946:	f8da 3020 	ldr.w	r3, [sl, #32]
1000494a:	4798      	blx	r3
1000494c:	e77e      	b.n	1000484c <prvTimerTask+0x58>
1000494e:	9903      	ldr	r1, [sp, #12]
10004950:	9a01      	ldr	r2, [sp, #4]
10004952:	f89a 3028 	ldrb.w	r3, [sl, #40]	; 0x28
10004956:	1888      	adds	r0, r1, r2
10004958:	f043 0301 	orr.w	r3, r3, #1
1000495c:	4290      	cmp	r0, r2
1000495e:	f88a 3028 	strb.w	r3, [sl, #40]	; 0x28
10004962:	f8ca 1018 	str.w	r1, [sl, #24]
10004966:	f8ca 0004 	str.w	r0, [sl, #4]
1000496a:	f8ca a010 	str.w	sl, [sl, #16]
1000496e:	f200 8087 	bhi.w	10004a80 <prvTimerTask+0x28c>
10004972:	2900      	cmp	r1, #0
10004974:	f43f af6a 	beq.w	1000484c <prvTimerTask+0x58>
10004978:	f8d8 0000 	ldr.w	r0, [r8]
1000497c:	f10a 0104 	add.w	r1, sl, #4
10004980:	f7fd fdf2 	bl	10002568 <vListInsert>
10004984:	e762      	b.n	1000484c <prvTimerTask+0x58>
10004986:	f89a 3028 	ldrb.w	r3, [sl, #40]	; 0x28
1000498a:	f023 0301 	bic.w	r3, r3, #1
1000498e:	f88a 3028 	strb.w	r3, [sl, #40]	; 0x28
10004992:	e75b      	b.n	1000484c <prvTimerTask+0x58>
10004994:	f89a 3028 	ldrb.w	r3, [sl, #40]	; 0x28
10004998:	079a      	lsls	r2, r3, #30
1000499a:	f140 80b1 	bpl.w	10004b00 <prvTimerTask+0x30c>
1000499e:	f023 0301 	bic.w	r3, r3, #1
100049a2:	f88a 3028 	strb.w	r3, [sl, #40]	; 0x28
100049a6:	e751      	b.n	1000484c <prvTimerTask+0x58>
100049a8:	9b03      	ldr	r3, [sp, #12]
100049aa:	e9dd 0104 	ldrd	r0, r1, [sp, #16]
100049ae:	4798      	blx	r3
100049b0:	9b02      	ldr	r3, [sp, #8]
100049b2:	2b00      	cmp	r3, #0
100049b4:	f6ff af4a 	blt.w	1000484c <prvTimerTask+0x58>
100049b8:	e753      	b.n	10004862 <prvTimerTask+0x6e>
100049ba:	f7fe fced 	bl	10003398 <vTaskSuspendAll>
100049be:	f7fe fcf3 	bl	100033a8 <xTaskGetTickCount>
100049c2:	4b34      	ldr	r3, [pc, #208]	; (10004a94 <prvTimerTask+0x2a0>)
100049c4:	4682      	mov	sl, r0
100049c6:	681b      	ldr	r3, [r3, #0]
100049c8:	4298      	cmp	r0, r3
100049ca:	f4ff af70 	bcc.w	100048ae <prvTimerTask+0xba>
100049ce:	4a31      	ldr	r2, [pc, #196]	; (10004a94 <prvTimerTask+0x2a0>)
100049d0:	f8d8 3000 	ldr.w	r3, [r8]
100049d4:	f8c2 a000 	str.w	sl, [r2]
100049d8:	681a      	ldr	r2, [r3, #0]
100049da:	fab2 f282 	clz	r2, r2
100049de:	0952      	lsrs	r2, r2, #5
100049e0:	e725      	b.n	1000482e <prvTimerTask+0x3a>
100049e2:	f8d8 2000 	ldr.w	r2, [r8]
100049e6:	492b      	ldr	r1, [pc, #172]	; (10004a94 <prvTimerTask+0x2a0>)
100049e8:	6032      	str	r2, [r6, #0]
100049ea:	f8c1 a000 	str.w	sl, [r1]
100049ee:	f8c8 3000 	str.w	r3, [r8]
100049f2:	f7ff fd37 	bl	10004464 <xTaskResumeAll>
100049f6:	e724      	b.n	10004842 <prvTimerTask+0x4e>
100049f8:	6833      	ldr	r3, [r6, #0]
100049fa:	6819      	ldr	r1, [r3, #0]
100049fc:	b951      	cbnz	r1, 10004a14 <prvTimerTask+0x220>
100049fe:	e031      	b.n	10004a64 <prvTimerTask+0x270>
10004a00:	f023 0301 	bic.w	r3, r3, #1
10004a04:	f884 3028 	strb.w	r3, [r4, #40]	; 0x28
10004a08:	6a23      	ldr	r3, [r4, #32]
10004a0a:	4620      	mov	r0, r4
10004a0c:	4798      	blx	r3
10004a0e:	6833      	ldr	r3, [r6, #0]
10004a10:	681a      	ldr	r2, [r3, #0]
10004a12:	b33a      	cbz	r2, 10004a64 <prvTimerTask+0x270>
10004a14:	68db      	ldr	r3, [r3, #12]
10004a16:	68dc      	ldr	r4, [r3, #12]
10004a18:	f8d3 9000 	ldr.w	r9, [r3]
10004a1c:	f104 0b04 	add.w	fp, r4, #4
10004a20:	4658      	mov	r0, fp
10004a22:	f7fd fdb9 	bl	10002598 <uxListRemove>
10004a26:	f894 3028 	ldrb.w	r3, [r4, #40]	; 0x28
10004a2a:	075a      	lsls	r2, r3, #29
10004a2c:	d5e8      	bpl.n	10004a00 <prvTimerTask+0x20c>
10004a2e:	69a3      	ldr	r3, [r4, #24]
10004a30:	6124      	str	r4, [r4, #16]
10004a32:	eb09 0703 	add.w	r7, r9, r3
10004a36:	ea6f 0909 	mvn.w	r9, r9
10004a3a:	454b      	cmp	r3, r9
10004a3c:	6067      	str	r7, [r4, #4]
10004a3e:	d80b      	bhi.n	10004a58 <prvTimerTask+0x264>
10004a40:	46b9      	mov	r9, r7
10004a42:	ea6f 0909 	mvn.w	r9, r9
10004a46:	6a23      	ldr	r3, [r4, #32]
10004a48:	4620      	mov	r0, r4
10004a4a:	4798      	blx	r3
10004a4c:	69a3      	ldr	r3, [r4, #24]
10004a4e:	6124      	str	r4, [r4, #16]
10004a50:	441f      	add	r7, r3
10004a52:	454b      	cmp	r3, r9
10004a54:	6067      	str	r7, [r4, #4]
10004a56:	d9f3      	bls.n	10004a40 <prvTimerTask+0x24c>
10004a58:	4659      	mov	r1, fp
10004a5a:	f8d8 0000 	ldr.w	r0, [r8]
10004a5e:	f7fd fd83 	bl	10002568 <vListInsert>
10004a62:	e7d1      	b.n	10004a08 <prvTimerTask+0x214>
10004a64:	f8d8 1000 	ldr.w	r1, [r8]
10004a68:	f8c8 3000 	str.w	r3, [r8]
10004a6c:	6031      	str	r1, [r6, #0]
10004a6e:	e709      	b.n	10004884 <prvTimerTask+0x90>
10004a70:	f7ff f902 	bl	10003c78 <vTaskYieldWithinAPI>
10004a74:	e6e5      	b.n	10004842 <prvTimerTask+0x4e>
10004a76:	4290      	cmp	r0, r2
10004a78:	d902      	bls.n	10004a80 <prvTimerTask+0x28c>
10004a7a:	2f00      	cmp	r7, #0
10004a7c:	f43f af5b 	beq.w	10004936 <prvTimerTask+0x142>
10004a80:	6830      	ldr	r0, [r6, #0]
10004a82:	f10a 0104 	add.w	r1, sl, #4
10004a86:	f7fd fd6f 	bl	10002568 <vListInsert>
10004a8a:	e6df      	b.n	1000484c <prvTimerTask+0x58>
10004a8c:	20001f28 	.word	0x20001f28
10004a90:	200422d4 	.word	0x200422d4
10004a94:	2004226c 	.word	0x2004226c
10004a98:	20001f38 	.word	0x20001f38
10004a9c:	f7ff fce2 	bl	10004464 <xTaskResumeAll>
10004aa0:	6833      	ldr	r3, [r6, #0]
10004aa2:	68db      	ldr	r3, [r3, #12]
10004aa4:	68df      	ldr	r7, [r3, #12]
10004aa6:	f107 0b04 	add.w	fp, r7, #4
10004aaa:	4658      	mov	r0, fp
10004aac:	f7fd fd74 	bl	10002598 <uxListRemove>
10004ab0:	f897 3028 	ldrb.w	r3, [r7, #40]	; 0x28
10004ab4:	0759      	lsls	r1, r3, #29
10004ab6:	d40d      	bmi.n	10004ad4 <prvTimerTask+0x2e0>
10004ab8:	f023 0301 	bic.w	r3, r3, #1
10004abc:	f887 3028 	strb.w	r3, [r7, #40]	; 0x28
10004ac0:	4638      	mov	r0, r7
10004ac2:	6a3b      	ldr	r3, [r7, #32]
10004ac4:	4798      	blx	r3
10004ac6:	e6bc      	b.n	10004842 <prvTimerTask+0x4e>
10004ac8:	4293      	cmp	r3, r2
10004aca:	d81d      	bhi.n	10004b08 <prvTimerTask+0x314>
10004acc:	4638      	mov	r0, r7
10004ace:	6a3b      	ldr	r3, [r7, #32]
10004ad0:	4798      	blx	r3
10004ad2:	464c      	mov	r4, r9
10004ad4:	69bb      	ldr	r3, [r7, #24]
10004ad6:	ebaa 0204 	sub.w	r2, sl, r4
10004ada:	eb14 0903 	adds.w	r9, r4, r3
10004ade:	bf2c      	ite	cs
10004ae0:	2101      	movcs	r1, #1
10004ae2:	2100      	movcc	r1, #0
10004ae4:	45d1      	cmp	r9, sl
10004ae6:	f8c7 9004 	str.w	r9, [r7, #4]
10004aea:	613f      	str	r7, [r7, #16]
10004aec:	d9ec      	bls.n	10004ac8 <prvTimerTask+0x2d4>
10004aee:	4554      	cmp	r4, sl
10004af0:	d901      	bls.n	10004af6 <prvTimerTask+0x302>
10004af2:	2900      	cmp	r1, #0
10004af4:	d0ea      	beq.n	10004acc <prvTimerTask+0x2d8>
10004af6:	4659      	mov	r1, fp
10004af8:	6830      	ldr	r0, [r6, #0]
10004afa:	f7fd fd35 	bl	10002568 <vListInsert>
10004afe:	e7df      	b.n	10004ac0 <prvTimerTask+0x2cc>
10004b00:	4650      	mov	r0, sl
10004b02:	f7fd f8d1 	bl	10001ca8 <vPortFree>
10004b06:	e6a1      	b.n	1000484c <prvTimerTask+0x58>
10004b08:	4659      	mov	r1, fp
10004b0a:	f8d8 0000 	ldr.w	r0, [r8]
10004b0e:	f7fd fd2b 	bl	10002568 <vListInsert>
10004b12:	e7d5      	b.n	10004ac0 <prvTimerTask+0x2cc>
10004b14:	4654      	mov	r4, sl
10004b16:	f8dd 9004 	ldr.w	r9, [sp, #4]
10004b1a:	e006      	b.n	10004b2a <prvTimerTask+0x336>
10004b1c:	4291      	cmp	r1, r2
10004b1e:	d818      	bhi.n	10004b52 <prvTimerTask+0x35e>
10004b20:	6a23      	ldr	r3, [r4, #32]
10004b22:	4620      	mov	r0, r4
10004b24:	4798      	blx	r3
10004b26:	463b      	mov	r3, r7
10004b28:	69a1      	ldr	r1, [r4, #24]
10004b2a:	18cf      	adds	r7, r1, r3
10004b2c:	bf2c      	ite	cs
10004b2e:	2001      	movcs	r0, #1
10004b30:	2000      	movcc	r0, #0
10004b32:	45b9      	cmp	r9, r7
10004b34:	eba9 0203 	sub.w	r2, r9, r3
10004b38:	6067      	str	r7, [r4, #4]
10004b3a:	6124      	str	r4, [r4, #16]
10004b3c:	d2ee      	bcs.n	10004b1c <prvTimerTask+0x328>
10004b3e:	4599      	cmp	r9, r3
10004b40:	d201      	bcs.n	10004b46 <prvTimerTask+0x352>
10004b42:	2800      	cmp	r0, #0
10004b44:	d0ec      	beq.n	10004b20 <prvTimerTask+0x32c>
10004b46:	6830      	ldr	r0, [r6, #0]
10004b48:	1d21      	adds	r1, r4, #4
10004b4a:	46a2      	mov	sl, r4
10004b4c:	f7fd fd0c 	bl	10002568 <vListInsert>
10004b50:	e6f8      	b.n	10004944 <prvTimerTask+0x150>
10004b52:	f8d8 0000 	ldr.w	r0, [r8]
10004b56:	1d21      	adds	r1, r4, #4
10004b58:	46a2      	mov	sl, r4
10004b5a:	f7fd fd05 	bl	10002568 <vListInsert>
10004b5e:	e6f1      	b.n	10004944 <prvTimerTask+0x150>

10004b60 <xTimerCreateTimerTask>:
10004b60:	b5f0      	push	{r4, r5, r6, r7, lr}
10004b62:	4c19      	ldr	r4, [pc, #100]	; (10004bc8 <xTimerCreateTimerTask+0x68>)
10004b64:	b085      	sub	sp, #20
10004b66:	f7ff f899 	bl	10003c9c <vTaskEnterCritical>
10004b6a:	6825      	ldr	r5, [r4, #0]
10004b6c:	b19d      	cbz	r5, 10004b96 <xTimerCreateTimerTask+0x36>
10004b6e:	f7ff fda1 	bl	100046b4 <vTaskExitCritical>
10004b72:	6820      	ldr	r0, [r4, #0]
10004b74:	b168      	cbz	r0, 10004b92 <xTimerCreateTimerTask+0x32>
10004b76:	f04f 35ff 	mov.w	r5, #4294967295
10004b7a:	241f      	movs	r4, #31
10004b7c:	4913      	ldr	r1, [pc, #76]	; (10004bcc <xTimerCreateTimerTask+0x6c>)
10004b7e:	2300      	movs	r3, #0
10004b80:	9102      	str	r1, [sp, #8]
10004b82:	f44f 6280 	mov.w	r2, #1024	; 0x400
10004b86:	e9cd 4500 	strd	r4, r5, [sp]
10004b8a:	4911      	ldr	r1, [pc, #68]	; (10004bd0 <xTimerCreateTimerTask+0x70>)
10004b8c:	4811      	ldr	r0, [pc, #68]	; (10004bd4 <xTimerCreateTimerTask+0x74>)
10004b8e:	f7ff fa4d 	bl	1000402c <xTaskCreateAffinitySet>
10004b92:	b005      	add	sp, #20
10004b94:	bdf0      	pop	{r4, r5, r6, r7, pc}
10004b96:	4f10      	ldr	r7, [pc, #64]	; (10004bd8 <xTimerCreateTimerTask+0x78>)
10004b98:	4e10      	ldr	r6, [pc, #64]	; (10004bdc <xTimerCreateTimerTask+0x7c>)
10004b9a:	4638      	mov	r0, r7
10004b9c:	f7fd fcc4 	bl	10002528 <vListInitialise>
10004ba0:	4630      	mov	r0, r6
10004ba2:	f7fd fcc1 	bl	10002528 <vListInitialise>
10004ba6:	4b0e      	ldr	r3, [pc, #56]	; (10004be0 <xTimerCreateTimerTask+0x80>)
10004ba8:	462a      	mov	r2, r5
10004baa:	601f      	str	r7, [r3, #0]
10004bac:	4b0d      	ldr	r3, [pc, #52]	; (10004be4 <xTimerCreateTimerTask+0x84>)
10004bae:	2110      	movs	r1, #16
10004bb0:	200a      	movs	r0, #10
10004bb2:	601e      	str	r6, [r3, #0]
10004bb4:	f7fd fe22 	bl	100027fc <xQueueGenericCreate>
10004bb8:	6020      	str	r0, [r4, #0]
10004bba:	2800      	cmp	r0, #0
10004bbc:	d0d7      	beq.n	10004b6e <xTimerCreateTimerTask+0xe>
10004bbe:	490a      	ldr	r1, [pc, #40]	; (10004be8 <xTimerCreateTimerTask+0x88>)
10004bc0:	f7fd ffc4 	bl	10002b4c <vQueueAddToRegistry>
10004bc4:	e7d3      	b.n	10004b6e <xTimerCreateTimerTask+0xe>
10004bc6:	bf00      	nop
10004bc8:	200422d4 	.word	0x200422d4
10004bcc:	200422d8 	.word	0x200422d8
10004bd0:	100099d8 	.word	0x100099d8
10004bd4:	100047f5 	.word	0x100047f5
10004bd8:	2004220c 	.word	0x2004220c
10004bdc:	20042220 	.word	0x20042220
10004be0:	20001f28 	.word	0x20001f28
10004be4:	20001f38 	.word	0x20001f38
10004be8:	100099d0 	.word	0x100099d0

10004bec <xTimerPendFunctionCallFromISR>:
10004bec:	469c      	mov	ip, r3
10004bee:	b5f0      	push	{r4, r5, r6, r7, lr}
10004bf0:	4607      	mov	r7, r0
10004bf2:	460e      	mov	r6, r1
10004bf4:	4615      	mov	r5, r2
10004bf6:	f06f 0401 	mvn.w	r4, #1
10004bfa:	4b07      	ldr	r3, [pc, #28]	; (10004c18 <xTimerPendFunctionCallFromISR+0x2c>)
10004bfc:	b085      	sub	sp, #20
10004bfe:	4669      	mov	r1, sp
10004c00:	4662      	mov	r2, ip
10004c02:	6818      	ldr	r0, [r3, #0]
10004c04:	2300      	movs	r3, #0
10004c06:	e9cd 7601 	strd	r7, r6, [sp, #4]
10004c0a:	9503      	str	r5, [sp, #12]
10004c0c:	9400      	str	r4, [sp, #0]
10004c0e:	f7fd fec5 	bl	1000299c <xQueueGenericSendFromISR>
10004c12:	b005      	add	sp, #20
10004c14:	bdf0      	pop	{r4, r5, r6, r7, pc}
10004c16:	bf00      	nop
10004c18:	200422d4 	.word	0x200422d4

10004c1c <exception_set_exclusive_handler>:
10004c1c:	b5f8      	push	{r3, r4, r5, r6, r7, lr}
10004c1e:	4604      	mov	r4, r0
10004c20:	460d      	mov	r5, r1
10004c22:	f3ef 8710 	mrs	r7, PRIMASK
10004c26:	b672      	cpsid	i
10004c28:	4b0c      	ldr	r3, [pc, #48]	; (10004c5c <exception_set_exclusive_handler+0x40>)
10004c2a:	689b      	ldr	r3, [r3, #8]
10004c2c:	f853 6020 	ldr.w	r6, [r3, r0, lsl #2]
10004c30:	42b1      	cmp	r1, r6
10004c32:	d005      	beq.n	10004c40 <exception_set_exclusive_handler+0x24>
10004c34:	4b0a      	ldr	r3, [pc, #40]	; (10004c60 <exception_set_exclusive_handler+0x44>)
10004c36:	429e      	cmp	r6, r3
10004c38:	d30c      	bcc.n	10004c54 <exception_set_exclusive_handler+0x38>
10004c3a:	4b0a      	ldr	r3, [pc, #40]	; (10004c64 <exception_set_exclusive_handler+0x48>)
10004c3c:	429e      	cmp	r6, r3
10004c3e:	d209      	bcs.n	10004c54 <exception_set_exclusive_handler+0x38>
10004c40:	4b06      	ldr	r3, [pc, #24]	; (10004c5c <exception_set_exclusive_handler+0x40>)
10004c42:	689b      	ldr	r3, [r3, #8]
10004c44:	f843 5024 	str.w	r5, [r3, r4, lsl #2]
10004c48:	f3bf 8f5f 	dmb	sy
10004c4c:	f387 8810 	msr	PRIMASK, r7
10004c50:	4630      	mov	r0, r6
10004c52:	bdf8      	pop	{r3, r4, r5, r6, r7, pc}
10004c54:	f000 f8f6 	bl	10004e44 <hard_assertion_failure>
10004c58:	e7f2      	b.n	10004c40 <exception_set_exclusive_handler+0x24>
10004c5a:	bf00      	nop
10004c5c:	e000ed00 	.word	0xe000ed00
10004c60:	10000110 	.word	0x10000110
10004c64:	10000124 	.word	0x10000124

10004c68 <core1_trampoline>:
10004c68:	bd03      	pop	{r0, r1, pc}
10004c6a:	bf00      	nop

10004c6c <core1_wrapper>:
10004c6c:	b510      	push	{r4, lr}
10004c6e:	4604      	mov	r4, r0
10004c70:	f000 f8fe 	bl	10004e70 <runtime_run_per_core_initializers>
10004c74:	4623      	mov	r3, r4
10004c76:	e8bd 4010 	ldmia.w	sp!, {r4, lr}
10004c7a:	4718      	bx	r3

10004c7c <multicore_launch_core1_raw>:
10004c7c:	b5f0      	push	{r4, r5, r6, r7, lr}
10004c7e:	4605      	mov	r5, r0
10004c80:	b087      	sub	sp, #28
10004c82:	2019      	movs	r0, #25
10004c84:	4617      	mov	r7, r2
10004c86:	460e      	mov	r6, r1
10004c88:	f7fb fe76 	bl	10000978 <irq_is_enabled>
10004c8c:	2100      	movs	r1, #0
10004c8e:	4604      	mov	r4, r0
10004c90:	2019      	movs	r0, #25
10004c92:	f7fb fe5b 	bl	1000094c <irq_set_enabled>
10004c96:	2100      	movs	r1, #0
10004c98:	e9cd 6504 	strd	r6, r5, [sp, #16]
10004c9c:	9703      	str	r7, [sp, #12]
10004c9e:	2600      	movs	r6, #0
10004ca0:	2700      	movs	r7, #0
10004ca2:	2201      	movs	r2, #1
10004ca4:	f04f 4350 	mov.w	r3, #3489660928	; 0xd0000000
10004ca8:	468c      	mov	ip, r1
10004caa:	e9cd 6700 	strd	r6, r7, [sp]
10004cae:	9202      	str	r2, [sp, #8]
10004cb0:	b1b9      	cbz	r1, 10004ce2 <multicore_launch_core1_raw+0x66>
10004cb2:	6d1a      	ldr	r2, [r3, #80]	; 0x50
10004cb4:	0795      	lsls	r5, r2, #30
10004cb6:	d5fc      	bpl.n	10004cb2 <multicore_launch_core1_raw+0x36>
10004cb8:	6559      	str	r1, [r3, #84]	; 0x54
10004cba:	bf40      	sev
10004cbc:	6d1a      	ldr	r2, [r3, #80]	; 0x50
10004cbe:	07d0      	lsls	r0, r2, #31
10004cc0:	d403      	bmi.n	10004cca <multicore_launch_core1_raw+0x4e>
10004cc2:	bf20      	wfe
10004cc4:	6d1a      	ldr	r2, [r3, #80]	; 0x50
10004cc6:	07d2      	lsls	r2, r2, #31
10004cc8:	d5fb      	bpl.n	10004cc2 <multicore_launch_core1_raw+0x46>
10004cca:	6d9a      	ldr	r2, [r3, #88]	; 0x58
10004ccc:	428a      	cmp	r2, r1
10004cce:	d00d      	beq.n	10004cec <multicore_launch_core1_raw+0x70>
10004cd0:	f04f 0c00 	mov.w	ip, #0
10004cd4:	aa06      	add	r2, sp, #24
10004cd6:	eb02 028c 	add.w	r2, r2, ip, lsl #2
10004cda:	f852 1c18 	ldr.w	r1, [r2, #-24]
10004cde:	e7e7      	b.n	10004cb0 <multicore_launch_core1_raw+0x34>
10004ce0:	6d9a      	ldr	r2, [r3, #88]	; 0x58
10004ce2:	6d1a      	ldr	r2, [r3, #80]	; 0x50
10004ce4:	07d6      	lsls	r6, r2, #31
10004ce6:	d4fb      	bmi.n	10004ce0 <multicore_launch_core1_raw+0x64>
10004ce8:	bf40      	sev
10004cea:	e7e2      	b.n	10004cb2 <multicore_launch_core1_raw+0x36>
10004cec:	f10c 0c01 	add.w	ip, ip, #1
10004cf0:	f1bc 0f05 	cmp.w	ip, #5
10004cf4:	d9ee      	bls.n	10004cd4 <multicore_launch_core1_raw+0x58>
10004cf6:	4621      	mov	r1, r4
10004cf8:	2019      	movs	r0, #25
10004cfa:	b007      	add	sp, #28
10004cfc:	e8bd 40f0 	ldmia.w	sp!, {r4, r5, r6, r7, lr}
10004d00:	f7fb be24 	b.w	1000094c <irq_set_enabled>

10004d04 <multicore_launch_core1>:
10004d04:	4b0b      	ldr	r3, [pc, #44]	; (10004d34 <multicore_launch_core1+0x30>)
10004d06:	4a0c      	ldr	r2, [pc, #48]	; (10004d38 <multicore_launch_core1+0x34>)
10004d08:	b410      	push	{r4}
10004d0a:	429a      	cmp	r2, r3
10004d0c:	bf88      	it	hi
10004d0e:	f04f 33ff 	movhi.w	r3, #4294967295
10004d12:	4c0a      	ldr	r4, [pc, #40]	; (10004d3c <multicore_launch_core1+0x38>)
10004d14:	4a0a      	ldr	r2, [pc, #40]	; (10004d40 <multicore_launch_core1+0x3c>)
10004d16:	f203 71f4 	addw	r1, r3, #2036	; 0x7f4
10004d1a:	6892      	ldr	r2, [r2, #8]
10004d1c:	f8c3 07f4 	str.w	r0, [r3, #2036]	; 0x7f4
10004d20:	f8c3 47fc 	str.w	r4, [r3, #2044]	; 0x7fc
10004d24:	4807      	ldr	r0, [pc, #28]	; (10004d44 <multicore_launch_core1+0x40>)
10004d26:	f85d 4b04 	ldr.w	r4, [sp], #4
10004d2a:	f8c3 37f8 	str.w	r3, [r3, #2040]	; 0x7f8
10004d2e:	f7ff bfa5 	b.w	10004c7c <multicore_launch_core1_raw>
10004d32:	bf00      	nop
10004d34:	20080800 	.word	0x20080800
10004d38:	20080000 	.word	0x20080000
10004d3c:	10004c6d 	.word	0x10004c6d
10004d40:	e000ed00 	.word	0xe000ed00
10004d44:	10004c69 	.word	0x10004c69

10004d48 <multicore_doorbell_claim_unused>:
10004d48:	b5f8      	push	{r3, r4, r5, r6, r7, lr}
10004d4a:	4604      	mov	r4, r0
10004d4c:	4e3a      	ldr	r6, [pc, #232]	; (10004e38 <multicore_doorbell_claim_unused+0xf0>)
10004d4e:	460f      	mov	r7, r1
10004d50:	f7fb fd0a 	bl	10000768 <hw_claim_lock>
10004d54:	78b3      	ldrb	r3, [r6, #2]
10004d56:	7832      	ldrb	r2, [r6, #0]
10004d58:	f003 0101 	and.w	r1, r3, #1
10004d5c:	f996 3000 	ldrsb.w	r3, [r6]
10004d60:	0fdb      	lsrs	r3, r3, #31
10004d62:	ea43 0341 	orr.w	r3, r3, r1, lsl #1
10004d66:	4223      	tst	r3, r4
10004d68:	d053      	beq.n	10004e12 <multicore_doorbell_claim_unused+0xca>
10004d6a:	f996 1001 	ldrsb.w	r1, [r6, #1]
10004d6e:	0fcb      	lsrs	r3, r1, #31
10004d70:	f3c2 1180 	ubfx	r1, r2, #6, #1
10004d74:	ea41 0143 	orr.w	r1, r1, r3, lsl #1
10004d78:	4221      	tst	r1, r4
10004d7a:	7873      	ldrb	r3, [r6, #1]
10004d7c:	d04c      	beq.n	10004e18 <multicore_doorbell_claim_unused+0xd0>
10004d7e:	f3c3 1180 	ubfx	r1, r3, #6, #1
10004d82:	f3c2 1540 	ubfx	r5, r2, #5, #1
10004d86:	ea45 0141 	orr.w	r1, r5, r1, lsl #1
10004d8a:	4221      	tst	r1, r4
10004d8c:	d047      	beq.n	10004e1e <multicore_doorbell_claim_unused+0xd6>
10004d8e:	f3c3 1140 	ubfx	r1, r3, #5, #1
10004d92:	f3c2 1500 	ubfx	r5, r2, #4, #1
10004d96:	ea45 0141 	orr.w	r1, r5, r1, lsl #1
10004d9a:	4221      	tst	r1, r4
10004d9c:	d042      	beq.n	10004e24 <multicore_doorbell_claim_unused+0xdc>
10004d9e:	f3c3 1100 	ubfx	r1, r3, #4, #1
10004da2:	f3c2 05c0 	ubfx	r5, r2, #3, #1
10004da6:	ea45 0141 	orr.w	r1, r5, r1, lsl #1
10004daa:	4221      	tst	r1, r4
10004dac:	d03d      	beq.n	10004e2a <multicore_doorbell_claim_unused+0xe2>
10004dae:	f3c3 01c0 	ubfx	r1, r3, #3, #1
10004db2:	f3c2 0580 	ubfx	r5, r2, #2, #1
10004db6:	ea45 0141 	orr.w	r1, r5, r1, lsl #1
10004dba:	4221      	tst	r1, r4
10004dbc:	d015      	beq.n	10004dea <multicore_doorbell_claim_unused+0xa2>
10004dbe:	f3c3 0180 	ubfx	r1, r3, #2, #1
10004dc2:	f3c2 0540 	ubfx	r5, r2, #1, #1
10004dc6:	ea45 0141 	orr.w	r1, r5, r1, lsl #1
10004dca:	4221      	tst	r1, r4
10004dcc:	d01c      	beq.n	10004e08 <multicore_doorbell_claim_unused+0xc0>
10004dce:	f003 0302 	and.w	r3, r3, #2
10004dd2:	f002 0501 	and.w	r5, r2, #1
10004dd6:	431d      	orrs	r5, r3
10004dd8:	4025      	ands	r5, r4
10004dda:	d018      	beq.n	10004e0e <multicore_doorbell_claim_unused+0xc6>
10004ddc:	bb47      	cbnz	r7, 10004e30 <multicore_doorbell_claim_unused+0xe8>
10004dde:	f06f 0508 	mvn.w	r5, #8
10004de2:	f7fb fcd3 	bl	1000078c <hw_claim_unlock>
10004de6:	4628      	mov	r0, r5
10004de8:	bdf8      	pop	{r3, r4, r5, r6, r7, pc}
10004dea:	2502      	movs	r5, #2
10004dec:	2304      	movs	r3, #4
10004dee:	07e1      	lsls	r1, r4, #31
10004df0:	bf44      	itt	mi
10004df2:	431a      	orrmi	r2, r3
10004df4:	7032      	strbmi	r2, [r6, #0]
10004df6:	07a2      	lsls	r2, r4, #30
10004df8:	d5f3      	bpl.n	10004de2 <multicore_doorbell_claim_unused+0x9a>
10004dfa:	7872      	ldrb	r2, [r6, #1]
10004dfc:	4313      	orrs	r3, r2
10004dfe:	7073      	strb	r3, [r6, #1]
10004e00:	f7fb fcc4 	bl	1000078c <hw_claim_unlock>
10004e04:	4628      	mov	r0, r5
10004e06:	bdf8      	pop	{r3, r4, r5, r6, r7, pc}
10004e08:	2501      	movs	r5, #1
10004e0a:	2302      	movs	r3, #2
10004e0c:	e7ef      	b.n	10004dee <multicore_doorbell_claim_unused+0xa6>
10004e0e:	2301      	movs	r3, #1
10004e10:	e7ed      	b.n	10004dee <multicore_doorbell_claim_unused+0xa6>
10004e12:	2507      	movs	r5, #7
10004e14:	2380      	movs	r3, #128	; 0x80
10004e16:	e7ea      	b.n	10004dee <multicore_doorbell_claim_unused+0xa6>
10004e18:	2506      	movs	r5, #6
10004e1a:	2340      	movs	r3, #64	; 0x40
10004e1c:	e7e7      	b.n	10004dee <multicore_doorbell_claim_unused+0xa6>
10004e1e:	2505      	movs	r5, #5
10004e20:	2320      	movs	r3, #32
10004e22:	e7e4      	b.n	10004dee <multicore_doorbell_claim_unused+0xa6>
10004e24:	2504      	movs	r5, #4
10004e26:	2310      	movs	r3, #16
10004e28:	e7e1      	b.n	10004dee <multicore_doorbell_claim_unused+0xa6>
10004e2a:	2503      	movs	r5, #3
10004e2c:	2308      	movs	r3, #8
10004e2e:	e7de      	b.n	10004dee <multicore_doorbell_claim_unused+0xa6>
10004e30:	4802      	ldr	r0, [pc, #8]	; (10004e3c <multicore_doorbell_claim_unused+0xf4>)
10004e32:	f7fb fc81 	bl	10000738 <panic>
10004e36:	bf00      	nop
10004e38:	20001adc 	.word	0x20001adc
10004e3c:	100099e0 	.word	0x100099e0

10004e40 <first_per_core_initializer>:
10004e40:	4770      	bx	lr
10004e42:	bf00      	nop

10004e44 <hard_assertion_failure>:
10004e44:	b508      	push	{r3, lr}
10004e46:	4801      	ldr	r0, [pc, #4]	; (10004e4c <hard_assertion_failure+0x8>)
10004e48:	f7fb fc76 	bl	10000738 <panic>
10004e4c:	100099f4 	.word	0x100099f4

10004e50 <runtime_run_initializers>:
10004e50:	b538      	push	{r3, r4, r5, lr}
10004e52:	4c05      	ldr	r4, [pc, #20]	; (10004e68 <runtime_run_initializers+0x18>)
10004e54:	4d05      	ldr	r5, [pc, #20]	; (10004e6c <runtime_run_initializers+0x1c>)
10004e56:	42ac      	cmp	r4, r5
10004e58:	d204      	bcs.n	10004e64 <runtime_run_initializers+0x14>
10004e5a:	f854 3b04 	ldr.w	r3, [r4], #4
10004e5e:	4798      	blx	r3
10004e60:	42ac      	cmp	r4, r5
10004e62:	d3fa      	bcc.n	10004e5a <runtime_run_initializers+0xa>
10004e64:	bd38      	pop	{r3, r4, r5, pc}
10004e66:	bf00      	nop
10004e68:	100096b8 	.word	0x100096b8
10004e6c:	100096f8 	.word	0x100096f8

10004e70 <runtime_run_per_core_initializers>:
10004e70:	b538      	push	{r3, r4, r5, lr}
10004e72:	4c05      	ldr	r4, [pc, #20]	; (10004e88 <runtime_run_per_core_initializers+0x18>)
10004e74:	4d05      	ldr	r5, [pc, #20]	; (10004e8c <runtime_run_per_core_initializers+0x1c>)
10004e76:	42ac      	cmp	r4, r5
10004e78:	d204      	bcs.n	10004e84 <runtime_run_per_core_initializers+0x14>
10004e7a:	f854 3b04 	ldr.w	r3, [r4], #4
10004e7e:	4798      	blx	r3
10004e80:	42ac      	cmp	r4, r5
10004e82:	d3fa      	bcc.n	10004e7a <runtime_run_per_core_initializers+0xa>
10004e84:	bd38      	pop	{r3, r4, r5, pc}
10004e86:	bf00      	nop
10004e88:	100096e4 	.word	0x100096e4
10004e8c:	100096f8 	.word	0x100096f8

10004e90 <runtime_init_early_resets>:
10004e90:	b410      	push	{r4}
10004e92:	4807      	ldr	r0, [pc, #28]	; (10004eb0 <runtime_init_early_resets+0x20>)
10004e94:	4c07      	ldr	r4, [pc, #28]	; (10004eb4 <runtime_init_early_resets+0x24>)
10004e96:	4b08      	ldr	r3, [pc, #32]	; (10004eb8 <runtime_init_early_resets+0x28>)
10004e98:	4a08      	ldr	r2, [pc, #32]	; (10004ebc <runtime_init_early_resets+0x2c>)
10004e9a:	4909      	ldr	r1, [pc, #36]	; (10004ec0 <runtime_init_early_resets+0x30>)
10004e9c:	6004      	str	r4, [r0, #0]
10004e9e:	601a      	str	r2, [r3, #0]
10004ea0:	688b      	ldr	r3, [r1, #8]
10004ea2:	ea32 0303 	bics.w	r3, r2, r3
10004ea6:	d1fb      	bne.n	10004ea0 <runtime_init_early_resets+0x10>
10004ea8:	f85d 4b04 	ldr.w	r4, [sp], #4
10004eac:	4770      	bx	lr
10004eae:	bf00      	nop
10004eb0:	40022000 	.word	0x40022000
10004eb4:	efef3b7f 	.word	0xefef3b7f
10004eb8:	40023000 	.word	0x40023000
10004ebc:	03f3fff6 	.word	0x03f3fff6
10004ec0:	40020000 	.word	0x40020000

10004ec4 <runtime_init_usb_power_down>:
10004ec4:	4b04      	ldr	r3, [pc, #16]	; (10004ed8 <runtime_init_usb_power_down+0x14>)
10004ec6:	6cdb      	ldr	r3, [r3, #76]	; 0x4c
10004ec8:	f5b3 4f00 	cmp.w	r3, #32768	; 0x8000
10004ecc:	d103      	bne.n	10004ed6 <runtime_init_usb_power_down+0x12>
10004ece:	f44f 2280 	mov.w	r2, #262144	; 0x40000
10004ed2:	4b02      	ldr	r3, [pc, #8]	; (10004edc <runtime_init_usb_power_down+0x18>)
10004ed4:	64da      	str	r2, [r3, #76]	; 0x4c
10004ed6:	4770      	bx	lr
10004ed8:	50110000 	.word	0x50110000
10004edc:	50112000 	.word	0x50112000

10004ee0 <runtime_init_per_core_enable_coprocessors>:
10004ee0:	f04f 22e0 	mov.w	r2, #3758153728	; 0xe000e000
10004ee4:	4b04      	ldr	r3, [pc, #16]	; (10004ef8 <runtime_init_per_core_enable_coprocessors+0x18>)
10004ee6:	f8d2 1d88 	ldr.w	r1, [r2, #3464]	; 0xd88
10004eea:	430b      	orrs	r3, r1
10004eec:	f8c2 3d88 	str.w	r3, [r2, #3464]	; 0xd88
10004ef0:	ee10 0430 	dcp_rcmp r0
10004ef4:	4770      	bx	lr
10004ef6:	bf00      	nop
10004ef8:	00300303 	.word	0x00300303

10004efc <runtime_init_post_clock_resets>:
10004efc:	f06f 4160 	mvn.w	r1, #3758096384	; 0xe0000000
10004f00:	4b04      	ldr	r3, [pc, #16]	; (10004f14 <runtime_init_post_clock_resets+0x18>)
10004f02:	4a05      	ldr	r2, [pc, #20]	; (10004f18 <runtime_init_post_clock_resets+0x1c>)
10004f04:	6019      	str	r1, [r3, #0]
10004f06:	6893      	ldr	r3, [r2, #8]
10004f08:	43db      	mvns	r3, r3
10004f0a:	f033 4360 	bics.w	r3, r3, #3758096384	; 0xe0000000
10004f0e:	d1fa      	bne.n	10004f06 <runtime_init_post_clock_resets+0xa>
10004f10:	4770      	bx	lr
10004f12:	bf00      	nop
10004f14:	40023000 	.word	0x40023000
10004f18:	40020000 	.word	0x40020000

10004f1c <runtime_init_bootrom_reset>:
10004f1c:	b510      	push	{r4, lr}
10004f1e:	f245 2053 	movw	r0, #21075	; 0x5253
10004f22:	f7fc fdf3 	bl	10001b0c <rom_func_lookup>
10004f26:	e8bd 4010 	ldmia.w	sp!, {r4, lr}
10004f2a:	4603      	mov	r3, r0
10004f2c:	2004      	movs	r0, #4
10004f2e:	4718      	bx	r3

10004f30 <runtime_init_per_core_bootrom_reset>:
10004f30:	b510      	push	{r4, lr}
10004f32:	f245 2053 	movw	r0, #21075	; 0x5253
10004f36:	f7fc fde9 	bl	10001b0c <rom_func_lookup>
10004f3a:	e8bd 4010 	ldmia.w	sp!, {r4, lr}
10004f3e:	4603      	mov	r3, r0
10004f40:	2001      	movs	r0, #1
10004f42:	4718      	bx	r3

10004f44 <runtime_init_spin_locks_reset>:
10004f44:	f7fb bcd6 	b.w	100008f4 <spin_locks_reset>

10004f48 <runtime_init_install_ram_vector_table>:
10004f48:	b570      	push	{r4, r5, r6, lr}
10004f4a:	492e      	ldr	r1, [pc, #184]	; (10005004 <runtime_init_install_ram_vector_table+0xbc>)
10004f4c:	4c2e      	ldr	r4, [pc, #184]	; (10005008 <runtime_init_install_ram_vector_table+0xc0>)
10004f4e:	4e2f      	ldr	r6, [pc, #188]	; (1000500c <runtime_init_install_ram_vector_table+0xc4>)
10004f50:	1a64      	subs	r4, r4, r1
10004f52:	10a5      	asrs	r5, r4, #2
10004f54:	2d44      	cmp	r5, #68	; 0x44
10004f56:	462a      	mov	r2, r5
10004f58:	bf28      	it	cs
10004f5a:	2244      	movcs	r2, #68	; 0x44
10004f5c:	4630      	mov	r0, r6
10004f5e:	0092      	lsls	r2, r2, #2
10004f60:	f004 fa52 	bl	10009408 <memcpy>
10004f64:	f5b4 7f86 	cmp.w	r4, #268	; 0x10c
10004f68:	d847      	bhi.n	10004ffa <runtime_init_install_ram_vector_table+0xb2>
10004f6a:	f105 0c01 	add.w	ip, r5, #1
10004f6e:	f1bc 0f44 	cmp.w	ip, #68	; 0x44
10004f72:	f1c5 0143 	rsb	r1, r5, #67	; 0x43
10004f76:	4434      	add	r4, r6
10004f78:	f1c5 0044 	rsb	r0, r5, #68	; 0x44
10004f7c:	bf88      	it	hi
10004f7e:	2001      	movhi	r0, #1
10004f80:	2905      	cmp	r1, #5
10004f82:	4663      	mov	r3, ip
10004f84:	4a22      	ldr	r2, [pc, #136]	; (10005010 <runtime_init_install_ram_vector_table+0xc8>)
10004f86:	f3c4 0480 	ubfx	r4, r4, #2, #1
10004f8a:	d918      	bls.n	10004fbe <runtime_init_install_ram_vector_table+0x76>
10004f8c:	f1bc 0f44 	cmp.w	ip, #68	; 0x44
10004f90:	d815      	bhi.n	10004fbe <runtime_init_install_ram_vector_table+0x76>
10004f92:	b3ac      	cbz	r4, 10005000 <runtime_init_install_ram_vector_table+0xb8>
10004f94:	f846 2025 	str.w	r2, [r6, r5, lsl #2]
10004f98:	1b00      	subs	r0, r0, r4
10004f9a:	442c      	add	r4, r5
10004f9c:	eb06 0384 	add.w	r3, r6, r4, lsl #2
10004fa0:	0841      	lsrs	r1, r0, #1
10004fa2:	eb03 01c1 	add.w	r1, r3, r1, lsl #3
10004fa6:	e9c3 2200 	strd	r2, r2, [r3]
10004faa:	3308      	adds	r3, #8
10004fac:	4299      	cmp	r1, r3
10004fae:	d1fa      	bne.n	10004fa6 <runtime_init_install_ram_vector_table+0x5e>
10004fb0:	f020 0301 	bic.w	r3, r0, #1
10004fb4:	4298      	cmp	r0, r3
10004fb6:	eb0c 0503 	add.w	r5, ip, r3
10004fba:	d01e      	beq.n	10004ffa <runtime_init_install_ram_vector_table+0xb2>
10004fbc:	1c6b      	adds	r3, r5, #1
10004fbe:	2b44      	cmp	r3, #68	; 0x44
10004fc0:	f846 2025 	str.w	r2, [r6, r5, lsl #2]
10004fc4:	d019      	beq.n	10004ffa <runtime_init_install_ram_vector_table+0xb2>
10004fc6:	2d42      	cmp	r5, #66	; 0x42
10004fc8:	f846 2023 	str.w	r2, [r6, r3, lsl #2]
10004fcc:	f105 0302 	add.w	r3, r5, #2
10004fd0:	d013      	beq.n	10004ffa <runtime_init_install_ram_vector_table+0xb2>
10004fd2:	2d41      	cmp	r5, #65	; 0x41
10004fd4:	f846 2023 	str.w	r2, [r6, r3, lsl #2]
10004fd8:	f105 0303 	add.w	r3, r5, #3
10004fdc:	d00d      	beq.n	10004ffa <runtime_init_install_ram_vector_table+0xb2>
10004fde:	2d40      	cmp	r5, #64	; 0x40
10004fe0:	f846 2023 	str.w	r2, [r6, r3, lsl #2]
10004fe4:	f105 0304 	add.w	r3, r5, #4
10004fe8:	d007      	beq.n	10004ffa <runtime_init_install_ram_vector_table+0xb2>
10004fea:	2d3f      	cmp	r5, #63	; 0x3f
10004fec:	f846 2023 	str.w	r2, [r6, r3, lsl #2]
10004ff0:	f105 0305 	add.w	r3, r5, #5
10004ff4:	d001      	beq.n	10004ffa <runtime_init_install_ram_vector_table+0xb2>
10004ff6:	f846 2023 	str.w	r2, [r6, r3, lsl #2]
10004ffa:	4b06      	ldr	r3, [pc, #24]	; (10005014 <runtime_init_install_ram_vector_table+0xcc>)
10004ffc:	609e      	str	r6, [r3, #8]
10004ffe:	bd70      	pop	{r4, r5, r6, pc}
10005000:	46ac      	mov	ip, r5
10005002:	e7c9      	b.n	10004f98 <runtime_init_install_ram_vector_table+0x50>
10005004:	10000000 	.word	0x10000000
10005008:	10000110 	.word	0x10000110
1000500c:	20000000 	.word	0x20000000
10005010:	10000111 	.word	0x10000111
10005014:	e000ed00 	.word	0xe000ed00

10005018 <runtime_init_clocks>:
10005018:	2300      	movs	r3, #0
1000501a:	b5f0      	push	{r4, r5, r6, r7, lr}
1000501c:	4c2b      	ldr	r4, [pc, #172]	; (100050cc <runtime_init_clocks+0xb4>)
1000501e:	b083      	sub	sp, #12
10005020:	f8c4 3084 	str.w	r3, [r4, #132]	; 0x84
10005024:	f7fc fda4 	bl	10001b70 <xosc_init>
10005028:	2201      	movs	r2, #1
1000502a:	4b29      	ldr	r3, [pc, #164]	; (100050d0 <runtime_init_clocks+0xb8>)
1000502c:	63da      	str	r2, [r3, #60]	; 0x3c
1000502e:	6c63      	ldr	r3, [r4, #68]	; 0x44
10005030:	2b01      	cmp	r3, #1
10005032:	d1fc      	bne.n	1000502e <runtime_init_clocks+0x16>
10005034:	2103      	movs	r1, #3
10005036:	4a26      	ldr	r2, [pc, #152]	; (100050d0 <runtime_init_clocks+0xb8>)
10005038:	4b24      	ldr	r3, [pc, #144]	; (100050cc <runtime_init_clocks+0xb4>)
1000503a:	6311      	str	r1, [r2, #48]	; 0x30
1000503c:	6b9d      	ldr	r5, [r3, #56]	; 0x38
1000503e:	2d01      	cmp	r5, #1
10005040:	d1fc      	bne.n	1000503c <runtime_init_clocks+0x24>
10005042:	2305      	movs	r3, #5
10005044:	2702      	movs	r7, #2
10005046:	461e      	mov	r6, r3
10005048:	2400      	movs	r4, #0
1000504a:	4629      	mov	r1, r5
1000504c:	4a21      	ldr	r2, [pc, #132]	; (100050d4 <runtime_init_clocks+0xbc>)
1000504e:	4822      	ldr	r0, [pc, #136]	; (100050d8 <runtime_init_clocks+0xc0>)
10005050:	9700      	str	r7, [sp, #0]
10005052:	f7fc fc9f 	bl	10001994 <pll_init>
10005056:	4629      	mov	r1, r5
10005058:	4633      	mov	r3, r6
1000505a:	4a20      	ldr	r2, [pc, #128]	; (100050dc <runtime_init_clocks+0xc4>)
1000505c:	4820      	ldr	r0, [pc, #128]	; (100050e0 <runtime_init_clocks+0xc8>)
1000505e:	9600      	str	r6, [sp, #0]
10005060:	f7fc fc98 	bl	10001994 <pll_init>
10005064:	4639      	mov	r1, r7
10005066:	4622      	mov	r2, r4
10005068:	2004      	movs	r0, #4
1000506a:	4b1e      	ldr	r3, [pc, #120]	; (100050e4 <runtime_init_clocks+0xcc>)
1000506c:	f7fc fc24 	bl	100018b8 <clock_configure_undivided>
10005070:	4629      	mov	r1, r5
10005072:	4622      	mov	r2, r4
10005074:	4630      	mov	r0, r6
10005076:	4b1c      	ldr	r3, [pc, #112]	; (100050e8 <runtime_init_clocks+0xd0>)
10005078:	f7fc fc1e 	bl	100018b8 <clock_configure_undivided>
1000507c:	4622      	mov	r2, r4
1000507e:	2008      	movs	r0, #8
10005080:	4621      	mov	r1, r4
10005082:	4b1a      	ldr	r3, [pc, #104]	; (100050ec <runtime_init_clocks+0xd4>)
10005084:	f7fc fc18 	bl	100018b8 <clock_configure_undivided>
10005088:	4622      	mov	r2, r4
1000508a:	2009      	movs	r0, #9
1000508c:	4621      	mov	r1, r4
1000508e:	4b17      	ldr	r3, [pc, #92]	; (100050ec <runtime_init_clocks+0xd4>)
10005090:	f7fc fc12 	bl	100018b8 <clock_configure_undivided>
10005094:	4622      	mov	r2, r4
10005096:	2006      	movs	r0, #6
10005098:	4621      	mov	r1, r4
1000509a:	4b13      	ldr	r3, [pc, #76]	; (100050e8 <runtime_init_clocks+0xd0>)
1000509c:	f7fc fc0c 	bl	100018b8 <clock_configure_undivided>
100050a0:	4b11      	ldr	r3, [pc, #68]	; (100050e8 <runtime_init_clocks+0xd0>)
100050a2:	4622      	mov	r2, r4
100050a4:	2007      	movs	r0, #7
100050a6:	4621      	mov	r1, r4
100050a8:	f7fc fc06 	bl	100018b8 <clock_configure_undivided>
100050ac:	2004      	movs	r0, #4
100050ae:	f7fc fc6b 	bl	10001988 <clock_get_hz>
100050b2:	4d0f      	ldr	r5, [pc, #60]	; (100050f0 <runtime_init_clocks+0xd8>)
100050b4:	fba5 3500 	umull	r3, r5, r5, r0
100050b8:	0cad      	lsrs	r5, r5, #18
100050ba:	b2e0      	uxtb	r0, r4
100050bc:	4629      	mov	r1, r5
100050be:	3401      	adds	r4, #1
100050c0:	f7fc fcfc 	bl	10001abc <tick_start>
100050c4:	2c06      	cmp	r4, #6
100050c6:	d1f8      	bne.n	100050ba <runtime_init_clocks+0xa2>
100050c8:	b003      	add	sp, #12
100050ca:	bdf0      	pop	{r4, r5, r6, r7, pc}
100050cc:	40010000 	.word	0x40010000
100050d0:	40013000 	.word	0x40013000
100050d4:	59682f00 	.word	0x59682f00
100050d8:	40050000 	.word	0x40050000
100050dc:	47868c00 	.word	0x47868c00
100050e0:	40058000 	.word	0x40058000
100050e4:	00b71b00 	.word	0x00b71b00
100050e8:	08f0d180 	.word	0x08f0d180
100050ec:	02dc6c00 	.word	0x02dc6c00
100050f0:	431bde83 	.word	0x431bde83

100050f4 <generic_save_state>:
100050f4:	b086      	sub	sp, #24
100050f6:	b403      	push	{r0, r1}
100050f8:	fc51 0408 	dcp_pxmd r0, r1
100050fc:	e9cd 0102 	strd	r0, r1, [sp, #8]
10005100:	fc51 0409 	dcp_pymd r0, r1
10005104:	e9cd 0104 	strd	r0, r1, [sp, #16]
10005108:	ec51 040a 	dcp_refd r0, r1
1000510c:	e9cd 0106 	strd	r0, r1, [sp, #24]
10005110:	bc03      	pop	{r0, r1}
10005112:	47f0      	blx	lr

10005114 <generic_restore_state>:
10005114:	e8bd 5000 	ldmia.w	sp!, {ip, lr}
10005118:	ec4e c400 	dcp_wxmd ip, lr
1000511c:	e8bd 5000 	ldmia.w	sp!, {ip, lr}
10005120:	ec4e c401 	dcp_wymd ip, lr
10005124:	e8bd 5000 	ldmia.w	sp!, {ip, lr}
10005128:	ec4e c402 	dcp_wefd ip, lr
1000512c:	bd00      	pop	{pc}
1000512e:	0000      	movs	r0, r0
10005130:	b500      	push	{lr}
10005132:	f7ff ffdf 	bl	100050f4 <generic_save_state>
10005136:	e002      	b.n	1000513e <__wrap___aeabi_dadd+0x6>

10005138 <__wrap___aeabi_dadd>:
10005138:	fe10 f430 	dcp_pcmp APSR_nzcv
1000513c:	d4f8      	bmi.n	10005130 <generic_restore_state+0x1c>
1000513e:	ec41 0410 	dcp_wxup r0, r1
10005142:	ec43 2411 	dcp_wyup r2, r3
10005146:	ee00 0401 	dcp_add0
1000514a:	ee10 0401 	dcp_add1
1000514e:	ee80 0420 	dcp_nrdd
10005152:	ec51 0410 	dcp_rdda r0, r1
10005156:	4770      	bx	lr
10005158:	b500      	push	{lr}
1000515a:	f7ff ffcb 	bl	100050f4 <generic_save_state>
1000515e:	e002      	b.n	10005166 <__wrap___aeabi_dsub+0x6>

10005160 <__wrap___aeabi_dsub>:
10005160:	fe10 f430 	dcp_pcmp APSR_nzcv
10005164:	d4f8      	bmi.n	10005158 <__wrap___aeabi_dadd+0x20>
10005166:	ec41 0410 	dcp_wxup r0, r1
1000516a:	ec43 2411 	dcp_wyup r2, r3
1000516e:	ee00 0401 	dcp_add0
10005172:	ee10 0421 	dcp_sub1
10005176:	ee80 0420 	dcp_nrdd
1000517a:	ec51 0430 	dcp_rdds r0, r1
1000517e:	4770      	bx	lr
10005180:	b500      	push	{lr}
10005182:	f7ff ffb7 	bl	100050f4 <generic_save_state>
10005186:	e002      	b.n	1000518e <__wrap___aeabi_dmul+0x6>

10005188 <__wrap___aeabi_dmul>:
10005188:	fe10 f430 	dcp_pcmp APSR_nzcv
1000518c:	d4f8      	bmi.n	10005180 <__wrap___aeabi_dsub+0x20>
1000518e:	b510      	push	{r4, lr}
10005190:	ec41 0410 	dcp_wxup r0, r1
10005194:	ec43 2411 	dcp_wyup r2, r3
10005198:	ec51 0404 	dcp_rxms r0, r1, #0x0
1000519c:	ec53 2405 	dcp_ryms r2, r3, #0x0
100051a0:	fba0 4c02 	umull	r4, ip, r0, r2
100051a4:	f05f 0e00 	movs.w	lr, #0
100051a8:	fbe0 ce03 	umlal	ip, lr, r0, r3
100051ac:	fbe1 ce02 	umlal	ip, lr, r1, r2
100051b0:	ec4c 4420 	dcp_wxms r4, ip
100051b4:	2400      	movs	r4, #0
100051b6:	fbe1 e403 	umlal	lr, r4, r1, r3
100051ba:	ec44 e430 	dcp_wxmo lr, r4
100051be:	ee80 0420 	dcp_nrdd
100051c2:	ec51 0450 	dcp_rddm r0, r1
100051c6:	e8bd 4010 	ldmia.w	sp!, {r4, lr}
100051ca:	4770      	bx	lr
100051cc:	b500      	push	{lr}
100051ce:	f7ff ff91 	bl	100050f4 <generic_save_state>
100051d2:	e002      	b.n	100051da <__wrap___aeabi_ddiv+0x6>

100051d4 <__wrap___aeabi_ddiv>:
100051d4:	fe10 f430 	dcp_pcmp APSR_nzcv
100051d8:	d4f8      	bmi.n	100051cc <__wrap___aeabi_dmul+0x44>
100051da:	ec41 0410 	dcp_wxup r0, r1
100051de:	ec43 2411 	dcp_wyup r2, r3
100051e2:	ec51 0421 	dcp_rymr r0, r1
100051e6:	fba0 1201 	umull	r1, r2, r0, r1
100051ea:	ea6f 0282 	mvn.w	r2, r2, lsl #2
100051ee:	fb52 0010 	smmlar	r0, r2, r0, r0
100051f2:	fb52 f212 	smmulr	r2, r2, r2
100051f6:	fb52 0010 	smmlar	r0, r2, r0, r0
100051fa:	eba0 7cd0 	sub.w	ip, r0, r0, lsr #31
100051fe:	ec53 2404 	dcp_rxms r2, r3, #0x0
10005202:	fb5c f113 	smmulr	r1, ip, r3
10005206:	ec53 2415 	dcp_ryms r2, r3, #0x1
1000520a:	fba1 2002 	umull	r2, r0, r1, r2
1000520e:	fb01 0003 	mla	r0, r1, r3, r0
10005212:	ec53 2444 	dcp_rxms r2, r3, #0x4
10005216:	eba2 0000 	sub.w	r0, r2, r0
1000521a:	fb50 f21c 	smmulr	r2, r0, ip
1000521e:	ea4f 1311 	mov.w	r3, r1, lsr #4
10005222:	eb12 7001 	adds.w	r0, r2, r1, lsl #28
10005226:	eb43 71e2 	adc.w	r1, r3, r2, asr #31
1000522a:	ea40 5051 	orr.w	r0, r0, r1, lsr #21
1000522e:	ea20 5091 	bic.w	r0, r0, r1, lsr #22
10005232:	f020 0007 	bic.w	r0, r0, #7
10005236:	ec53 2475 	dcp_ryms r2, r3, #0x7
1000523a:	fba0 3c02 	umull	r3, ip, r0, r2
1000523e:	ec53 2475 	dcp_ryms r2, r3, #0x7
10005242:	fb00 cc03 	mla	ip, r0, r3, ip
10005246:	fb01 cc02 	mla	ip, r1, r2, ip
1000524a:	ec53 2404 	dcp_rxms r2, r3, #0x0
1000524e:	ebac 4c82 	sub.w	ip, ip, r2, lsl #18
10005252:	ea40 705c 	orr.w	r0, r0, ip, lsr #29
10005256:	f1a0 0001 	sub.w	r0, r0, #1
1000525a:	ec41 0440 	dcp_wxdd r0, r1
1000525e:	ee80 0420 	dcp_nrdd
10005262:	ec51 0470 	dcp_rddd r0, r1
10005266:	4770      	bx	lr
10005268:	b500      	push	{lr}
1000526a:	f7ff ff43 	bl	100050f4 <generic_save_state>
1000526e:	e002      	b.n	10005276 <__wrap___aeabi_i2d+0x6>

10005270 <__wrap___aeabi_i2d>:
10005270:	fe10 f430 	dcp_pcmp APSR_nzcv
10005274:	d4f8      	bmi.n	10005268 <__wrap___aeabi_ddiv+0x94>
10005276:	ec40 0470 	dcp_wxic r0, r0
1000527a:	ee00 0401 	dcp_add0
1000527e:	ee10 0421 	dcp_sub1
10005282:	ee80 0420 	dcp_nrdd
10005286:	ec51 0430 	dcp_rdds r0, r1
1000528a:	4770      	bx	lr
1000528c:	b500      	push	{lr}
1000528e:	f7ff ff31 	bl	100050f4 <generic_save_state>
10005292:	e002      	b.n	1000529a <__wrap___aeabi_ui2d+0x6>

10005294 <__wrap___aeabi_ui2d>:
10005294:	fe10 f430 	dcp_pcmp APSR_nzcv
10005298:	d4f8      	bmi.n	1000528c <__wrap___aeabi_i2d+0x1c>
1000529a:	ec40 0460 	dcp_wxuc r0, r0
1000529e:	ee00 0401 	dcp_add0
100052a2:	ee10 0421 	dcp_sub1
100052a6:	ee80 0420 	dcp_nrdd
100052aa:	ec51 0430 	dcp_rdds r0, r1
100052ae:	4770      	bx	lr
100052b0:	b500      	push	{lr}
100052b2:	f7ff ff1f 	bl	100050f4 <generic_save_state>
100052b6:	e002      	b.n	100052be <double2int_z_entry>

100052b8 <__wrap___aeabi_d2iz>:
100052b8:	fe10 f430 	dcp_pcmp APSR_nzcv
100052bc:	d4f8      	bmi.n	100052b0 <__wrap___aeabi_ui2d+0x1c>

100052be <double2int_z_entry>:
100052be:	ec41 0480 	dcp_wxdc r0, r1
100052c2:	ee00 0401 	dcp_add0
100052c6:	ee10 0401 	dcp_add1
100052ca:	ee80 0440 	dcp_ntdc
100052ce:	ee10 0413 	dcp_rdic r0
100052d2:	4770      	bx	lr
100052d4:	b500      	push	{lr}
100052d6:	f7ff ff0d 	bl	100050f4 <generic_save_state>
100052da:	e002      	b.n	100052e2 <double2uint_z_entry>

100052dc <__wrap___aeabi_d2uiz>:
100052dc:	fe10 f430 	dcp_pcmp APSR_nzcv
100052e0:	d4f8      	bmi.n	100052d4 <double2int_z_entry+0x16>

100052e2 <double2uint_z_entry>:
100052e2:	ec41 0480 	dcp_wxdc r0, r1
100052e6:	ee00 0401 	dcp_add0
100052ea:	ee10 0401 	dcp_add1
100052ee:	ee80 0440 	dcp_ntdc
100052f2:	ee10 0433 	dcp_rduc r0
100052f6:	4770      	bx	lr
100052f8:	b500      	push	{lr}
100052fa:	f7ff fefb 	bl	100050f4 <generic_save_state>
100052fe:	e002      	b.n	10005306 <__wrap___aeabi_dcmpun+0x6>

10005300 <__wrap___aeabi_dcmpun>:
10005300:	fe10 f430 	dcp_pcmp APSR_nzcv
10005304:	d4f8      	bmi.n	100052f8 <double2uint_z_entry+0x16>
10005306:	ec41 0410 	dcp_wxup r0, r1
1000530a:	ec43 2411 	dcp_wyup r2, r3
1000530e:	ee00 0401 	dcp_add0
10005312:	ee10 0430 	dcp_rcmp r0
10005316:	f3c0 7000 	ubfx	r0, r0, #28, #1
1000531a:	4770      	bx	lr
1000531c:	b500      	push	{lr}
1000531e:	f7ff fee9 	bl	100050f4 <generic_save_state>
10005322:	e002      	b.n	1000532a <__wrap___aeabi_dcmplt+0x6>

10005324 <__wrap___aeabi_dcmplt>:
10005324:	fe10 f430 	dcp_pcmp APSR_nzcv
10005328:	d4f8      	bmi.n	1000531c <__wrap___aeabi_dcmpun+0x1c>
1000532a:	ec43 2410 	dcp_wxup r2, r3
1000532e:	ec41 0411 	dcp_wyup r0, r1
10005332:	ee00 0401 	dcp_add0
10005336:	ee10 f430 	dcp_rcmp APSR_nzcv
1000533a:	bf8c      	ite	hi
1000533c:	2001      	movhi	r0, #1
1000533e:	2000      	movls	r0, #0
10005340:	4770      	bx	lr
10005342:	bf00      	nop
10005344:	b500      	push	{lr}
10005346:	f7ff fed5 	bl	100050f4 <generic_save_state>
1000534a:	e002      	b.n	10005352 <__wrap___aeabi_dcmple+0x6>

1000534c <__wrap___aeabi_dcmple>:
1000534c:	fe10 f430 	dcp_pcmp APSR_nzcv
10005350:	d4f8      	bmi.n	10005344 <__wrap___aeabi_dcmplt+0x20>
10005352:	ec43 2410 	dcp_wxup r2, r3
10005356:	ec41 0411 	dcp_wyup r0, r1
1000535a:	ee00 0401 	dcp_add0
1000535e:	ee10 f430 	dcp_rcmp APSR_nzcv
10005362:	bf2c      	ite	cs
10005364:	2001      	movcs	r0, #1
10005366:	2000      	movcc	r0, #0
10005368:	4770      	bx	lr
1000536a:	bf00      	nop
1000536c:	b500      	push	{lr}
1000536e:	f7ff fec1 	bl	100050f4 <generic_save_state>
10005372:	e002      	b.n	1000537a <__wrap___aeabi_dcmpge+0x6>

10005374 <__wrap___aeabi_dcmpge>:
10005374:	fe10 f430 	dcp_pcmp APSR_nzcv
10005378:	d4f8      	bmi.n	1000536c <__wrap___aeabi_dcmple+0x20>
1000537a:	ec41 0410 	dcp_wxup r0, r1
1000537e:	ec43 2411 	dcp_wyup r2, r3
10005382:	ee00 0401 	dcp_add0
10005386:	ee10 f430 	dcp_rcmp APSR_nzcv
1000538a:	bf2c      	ite	cs
1000538c:	2001      	movcs	r0, #1
1000538e:	2000      	movcc	r0, #0
10005390:	4770      	bx	lr
10005392:	bf00      	nop
10005394:	b500      	push	{lr}
10005396:	f7ff fead 	bl	100050f4 <generic_save_state>
1000539a:	e002      	b.n	100053a2 <__wrap___aeabi_dcmpgt+0x6>

1000539c <__wrap___aeabi_dcmpgt>:
1000539c:	fe10 f430 	dcp_pcmp APSR_nzcv
100053a0:	d4f8      	bmi.n	10005394 <__wrap___aeabi_dcmpge+0x20>
100053a2:	ec41 0410 	dcp_wxup r0, r1
100053a6:	ec43 2411 	dcp_wyup r2, r3
100053aa:	ee00 0401 	dcp_add0
100053ae:	ee10 f430 	dcp_rcmp APSR_nzcv
100053b2:	bf8c      	ite	hi
100053b4:	2001      	movhi	r0, #1
100053b6:	2000      	movls	r0, #0
100053b8:	4770      	bx	lr
100053ba:	bf00      	nop

100053bc <_out_null>:
100053bc:	4770      	bx	lr
100053be:	bf00      	nop

100053c0 <_out_rev>:
100053c0:	e92d 4ff8 	stmdb	sp!, {r3, r4, r5, r6, r7, r8, r9, sl, fp, lr}
100053c4:	469a      	mov	sl, r3
100053c6:	9b0d      	ldr	r3, [sp, #52]	; 0x34
100053c8:	4617      	mov	r7, r2
100053ca:	079a      	lsls	r2, r3, #30
100053cc:	4606      	mov	r6, r0
100053ce:	468b      	mov	fp, r1
100053d0:	f8dd 8028 	ldr.w	r8, [sp, #40]	; 0x28
100053d4:	d111      	bne.n	100053fa <_out_rev+0x3a>
100053d6:	e9dd 320b 	ldrd	r3, r2, [sp, #44]	; 0x2c
100053da:	4293      	cmp	r3, r2
100053dc:	d20d      	bcs.n	100053fa <_out_rev+0x3a>
100053de:	4613      	mov	r3, r2
100053e0:	463c      	mov	r4, r7
100053e2:	9a0b      	ldr	r2, [sp, #44]	; 0x2c
100053e4:	1a9d      	subs	r5, r3, r2
100053e6:	443d      	add	r5, r7
100053e8:	4622      	mov	r2, r4
100053ea:	4653      	mov	r3, sl
100053ec:	4659      	mov	r1, fp
100053ee:	2020      	movs	r0, #32
100053f0:	3401      	adds	r4, #1
100053f2:	47b0      	blx	r6
100053f4:	42ac      	cmp	r4, r5
100053f6:	d1f7      	bne.n	100053e8 <_out_rev+0x28>
100053f8:	e000      	b.n	100053fc <_out_rev+0x3c>
100053fa:	463d      	mov	r5, r7
100053fc:	9b0b      	ldr	r3, [sp, #44]	; 0x2c
100053fe:	b173      	cbz	r3, 1000541e <_out_rev+0x5e>
10005400:	eb08 0403 	add.w	r4, r8, r3
10005404:	eb04 0905 	add.w	r9, r4, r5
10005408:	eba9 0204 	sub.w	r2, r9, r4
1000540c:	f814 0d01 	ldrb.w	r0, [r4, #-1]!
10005410:	4653      	mov	r3, sl
10005412:	4659      	mov	r1, fp
10005414:	47b0      	blx	r6
10005416:	4544      	cmp	r4, r8
10005418:	d1f6      	bne.n	10005408 <_out_rev+0x48>
1000541a:	9b0b      	ldr	r3, [sp, #44]	; 0x2c
1000541c:	441d      	add	r5, r3
1000541e:	9b0d      	ldr	r3, [sp, #52]	; 0x34
10005420:	079b      	lsls	r3, r3, #30
10005422:	d50e      	bpl.n	10005442 <_out_rev+0x82>
10005424:	9b0c      	ldr	r3, [sp, #48]	; 0x30
10005426:	1bef      	subs	r7, r5, r7
10005428:	42bb      	cmp	r3, r7
1000542a:	d90a      	bls.n	10005442 <_out_rev+0x82>
1000542c:	461c      	mov	r4, r3
1000542e:	462a      	mov	r2, r5
10005430:	4653      	mov	r3, sl
10005432:	4659      	mov	r1, fp
10005434:	2020      	movs	r0, #32
10005436:	3701      	adds	r7, #1
10005438:	47b0      	blx	r6
1000543a:	42bc      	cmp	r4, r7
1000543c:	f105 0501 	add.w	r5, r5, #1
10005440:	d8f5      	bhi.n	1000542e <_out_rev+0x6e>
10005442:	4628      	mov	r0, r5
10005444:	e8bd 8ff8 	ldmia.w	sp!, {r3, r4, r5, r6, r7, r8, r9, sl, fp, pc}

10005448 <_ntoa_format>:
10005448:	e92d 4ff0 	stmdb	sp!, {r4, r5, r6, r7, r8, r9, sl, fp, lr}
1000544c:	9e0f      	ldr	r6, [sp, #60]	; 0x3c
1000544e:	f8dd e024 	ldr.w	lr, [sp, #36]	; 0x24
10005452:	f016 0f02 	tst.w	r6, #2
10005456:	9c0a      	ldr	r4, [sp, #40]	; 0x28
10005458:	f89d 902c 	ldrb.w	r9, [sp, #44]	; 0x2c
1000545c:	9d0e      	ldr	r5, [sp, #56]	; 0x38
1000545e:	e9dd 870c 	ldrd	r8, r7, [sp, #48]	; 0x30
10005462:	d12c      	bne.n	100054be <_ntoa_format+0x76>
10005464:	2d00      	cmp	r5, #0
10005466:	d174      	bne.n	10005552 <_ntoa_format+0x10a>
10005468:	42bc      	cmp	r4, r7
1000546a:	f006 0b01 	and.w	fp, r6, #1
1000546e:	f080 80cb 	bcs.w	10005608 <_ntoa_format+0x1c0>
10005472:	2c1f      	cmp	r4, #31
10005474:	bf88      	it	hi
10005476:	2420      	movhi	r4, #32
10005478:	f200 80c6 	bhi.w	10005608 <_ntoa_format+0x1c0>
1000547c:	f104 3cff 	add.w	ip, r4, #4294967295
10005480:	f04f 0a30 	mov.w	sl, #48	; 0x30
10005484:	44f4      	add	ip, lr
10005486:	e001      	b.n	1000548c <_ntoa_format+0x44>
10005488:	2c20      	cmp	r4, #32
1000548a:	d004      	beq.n	10005496 <_ntoa_format+0x4e>
1000548c:	3401      	adds	r4, #1
1000548e:	42a7      	cmp	r7, r4
10005490:	f80c af01 	strb.w	sl, [ip, #1]!
10005494:	d8f8      	bhi.n	10005488 <_ntoa_format+0x40>
10005496:	f1bb 0f00 	cmp.w	fp, #0
1000549a:	d010      	beq.n	100054be <_ntoa_format+0x76>
1000549c:	42a5      	cmp	r5, r4
1000549e:	d90e      	bls.n	100054be <_ntoa_format+0x76>
100054a0:	2c20      	cmp	r4, #32
100054a2:	d02d      	beq.n	10005500 <_ntoa_format+0xb8>
100054a4:	f104 3cff 	add.w	ip, r4, #4294967295
100054a8:	f04f 0a30 	mov.w	sl, #48	; 0x30
100054ac:	44f4      	add	ip, lr
100054ae:	e001      	b.n	100054b4 <_ntoa_format+0x6c>
100054b0:	2c20      	cmp	r4, #32
100054b2:	d025      	beq.n	10005500 <_ntoa_format+0xb8>
100054b4:	3401      	adds	r4, #1
100054b6:	42ac      	cmp	r4, r5
100054b8:	f80c af01 	strb.w	sl, [ip, #1]!
100054bc:	d1f8      	bne.n	100054b0 <_ntoa_format+0x68>
100054be:	f016 0f10 	tst.w	r6, #16
100054c2:	d038      	beq.n	10005536 <_ntoa_format+0xee>
100054c4:	f416 6f80 	tst.w	r6, #1024	; 0x400
100054c8:	d126      	bne.n	10005518 <_ntoa_format+0xd0>
100054ca:	bb0c      	cbnz	r4, 10005510 <_ntoa_format+0xc8>
100054cc:	f1b8 0f10 	cmp.w	r8, #16
100054d0:	d07f      	beq.n	100055d2 <_ntoa_format+0x18a>
100054d2:	f1b8 0f02 	cmp.w	r8, #2
100054d6:	f000 8092 	beq.w	100055fe <_ntoa_format+0x1b6>
100054da:	2430      	movs	r4, #48	; 0x30
100054dc:	f88e 4000 	strb.w	r4, [lr]
100054e0:	2401      	movs	r4, #1
100054e2:	f1b9 0f00 	cmp.w	r9, #0
100054e6:	d02b      	beq.n	10005540 <_ntoa_format+0xf8>
100054e8:	272d      	movs	r7, #45	; 0x2d
100054ea:	f80e 7004 	strb.w	r7, [lr, r4]
100054ee:	3401      	adds	r4, #1
100054f0:	e9cd 560b 	strd	r5, r6, [sp, #44]	; 0x2c
100054f4:	e9cd e409 	strd	lr, r4, [sp, #36]	; 0x24
100054f8:	e8bd 4ff0 	ldmia.w	sp!, {r4, r5, r6, r7, r8, r9, sl, fp, lr}
100054fc:	f7ff bf60 	b.w	100053c0 <_out_rev>
10005500:	f016 0f10 	tst.w	r6, #16
10005504:	f04f 0420 	mov.w	r4, #32
10005508:	d0f2      	beq.n	100054f0 <_ntoa_format+0xa8>
1000550a:	f416 6f80 	tst.w	r6, #1024	; 0x400
1000550e:	d103      	bne.n	10005518 <_ntoa_format+0xd0>
10005510:	42a7      	cmp	r7, r4
10005512:	d049      	beq.n	100055a8 <_ntoa_format+0x160>
10005514:	42a5      	cmp	r5, r4
10005516:	d047      	beq.n	100055a8 <_ntoa_format+0x160>
10005518:	f1b8 0f10 	cmp.w	r8, #16
1000551c:	d04e      	beq.n	100055bc <_ntoa_format+0x174>
1000551e:	f1b8 0f02 	cmp.w	r8, #2
10005522:	d039      	beq.n	10005598 <_ntoa_format+0x150>
10005524:	2c20      	cmp	r4, #32
10005526:	d0e3      	beq.n	100054f0 <_ntoa_format+0xa8>
10005528:	f04f 0c30 	mov.w	ip, #48	; 0x30
1000552c:	eb0e 0704 	add.w	r7, lr, r4
10005530:	f887 c000 	strb.w	ip, [r7]
10005534:	3401      	adds	r4, #1
10005536:	2c20      	cmp	r4, #32
10005538:	d0da      	beq.n	100054f0 <_ntoa_format+0xa8>
1000553a:	f1b9 0f00 	cmp.w	r9, #0
1000553e:	d1d3      	bne.n	100054e8 <_ntoa_format+0xa0>
10005540:	0777      	lsls	r7, r6, #29
10005542:	d41d      	bmi.n	10005580 <_ntoa_format+0x138>
10005544:	0737      	lsls	r7, r6, #28
10005546:	d5d3      	bpl.n	100054f0 <_ntoa_format+0xa8>
10005548:	2720      	movs	r7, #32
1000554a:	f80e 7004 	strb.w	r7, [lr, r4]
1000554e:	3401      	adds	r4, #1
10005550:	e7ce      	b.n	100054f0 <_ntoa_format+0xa8>
10005552:	f016 0b01 	ands.w	fp, r6, #1
10005556:	d00d      	beq.n	10005574 <_ntoa_format+0x12c>
10005558:	f1b9 0f00 	cmp.w	r9, #0
1000555c:	d122      	bne.n	100055a4 <_ntoa_format+0x15c>
1000555e:	f016 0f0c 	tst.w	r6, #12
10005562:	d11f      	bne.n	100055a4 <_ntoa_format+0x15c>
10005564:	42bc      	cmp	r4, r7
10005566:	d299      	bcs.n	1000549c <_ntoa_format+0x54>
10005568:	2c1f      	cmp	r4, #31
1000556a:	d987      	bls.n	1000547c <_ntoa_format+0x34>
1000556c:	2d20      	cmp	r5, #32
1000556e:	d8c7      	bhi.n	10005500 <_ntoa_format+0xb8>
10005570:	2420      	movs	r4, #32
10005572:	e7a4      	b.n	100054be <_ntoa_format+0x76>
10005574:	42bc      	cmp	r4, r7
10005576:	d2a2      	bcs.n	100054be <_ntoa_format+0x76>
10005578:	2c1f      	cmp	r4, #31
1000557a:	f67f af7f 	bls.w	1000547c <_ntoa_format+0x34>
1000557e:	e7f7      	b.n	10005570 <_ntoa_format+0x128>
10005580:	272b      	movs	r7, #43	; 0x2b
10005582:	f80e 7004 	strb.w	r7, [lr, r4]
10005586:	3401      	adds	r4, #1
10005588:	e9cd 560b 	strd	r5, r6, [sp, #44]	; 0x2c
1000558c:	e9cd e409 	strd	lr, r4, [sp, #36]	; 0x24
10005590:	e8bd 4ff0 	ldmia.w	sp!, {r4, r5, r6, r7, r8, r9, sl, fp, lr}
10005594:	f7ff bf14 	b.w	100053c0 <_out_rev>
10005598:	2c20      	cmp	r4, #32
1000559a:	d0a9      	beq.n	100054f0 <_ntoa_format+0xa8>
1000559c:	eb0e 0704 	add.w	r7, lr, r4
100055a0:	3401      	adds	r4, #1
100055a2:	e040      	b.n	10005626 <_ntoa_format+0x1de>
100055a4:	3d01      	subs	r5, #1
100055a6:	e7dd      	b.n	10005564 <_ntoa_format+0x11c>
100055a8:	1e67      	subs	r7, r4, #1
100055aa:	d08f      	beq.n	100054cc <_ntoa_format+0x84>
100055ac:	f1b8 0f10 	cmp.w	r8, #16
100055b0:	d02f      	beq.n	10005612 <_ntoa_format+0x1ca>
100055b2:	f1b8 0f02 	cmp.w	r8, #2
100055b6:	d035      	beq.n	10005624 <_ntoa_format+0x1dc>
100055b8:	463c      	mov	r4, r7
100055ba:	e7b5      	b.n	10005528 <_ntoa_format+0xe0>
100055bc:	06b7      	lsls	r7, r6, #26
100055be:	d40f      	bmi.n	100055e0 <_ntoa_format+0x198>
100055c0:	2c20      	cmp	r4, #32
100055c2:	d095      	beq.n	100054f0 <_ntoa_format+0xa8>
100055c4:	eb0e 0c04 	add.w	ip, lr, r4
100055c8:	3401      	adds	r4, #1
100055ca:	2778      	movs	r7, #120	; 0x78
100055cc:	f88c 7000 	strb.w	r7, [ip]
100055d0:	e7a8      	b.n	10005524 <_ntoa_format+0xdc>
100055d2:	06b4      	lsls	r4, r6, #26
100055d4:	d40e      	bmi.n	100055f4 <_ntoa_format+0x1ac>
100055d6:	2478      	movs	r4, #120	; 0x78
100055d8:	f88e 4000 	strb.w	r4, [lr]
100055dc:	2401      	movs	r4, #1
100055de:	e7a3      	b.n	10005528 <_ntoa_format+0xe0>
100055e0:	2c20      	cmp	r4, #32
100055e2:	d085      	beq.n	100054f0 <_ntoa_format+0xa8>
100055e4:	f04f 0c58 	mov.w	ip, #88	; 0x58
100055e8:	eb0e 0704 	add.w	r7, lr, r4
100055ec:	f887 c000 	strb.w	ip, [r7]
100055f0:	3401      	adds	r4, #1
100055f2:	e797      	b.n	10005524 <_ntoa_format+0xdc>
100055f4:	2458      	movs	r4, #88	; 0x58
100055f6:	f88e 4000 	strb.w	r4, [lr]
100055fa:	2401      	movs	r4, #1
100055fc:	e794      	b.n	10005528 <_ntoa_format+0xe0>
100055fe:	2462      	movs	r4, #98	; 0x62
10005600:	f88e 4000 	strb.w	r4, [lr]
10005604:	2401      	movs	r4, #1
10005606:	e78f      	b.n	10005528 <_ntoa_format+0xe0>
10005608:	f1bb 0f00 	cmp.w	fp, #0
1000560c:	bf08      	it	eq
1000560e:	2500      	moveq	r5, #0
10005610:	e755      	b.n	100054be <_ntoa_format+0x76>
10005612:	f016 0f20 	tst.w	r6, #32
10005616:	f1a4 0402 	sub.w	r4, r4, #2
1000561a:	d1e3      	bne.n	100055e4 <_ntoa_format+0x19c>
1000561c:	eb0e 0c04 	add.w	ip, lr, r4
10005620:	463c      	mov	r4, r7
10005622:	e7d2      	b.n	100055ca <_ntoa_format+0x182>
10005624:	4477      	add	r7, lr
10005626:	f04f 0c62 	mov.w	ip, #98	; 0x62
1000562a:	f887 c000 	strb.w	ip, [r7]
1000562e:	e779      	b.n	10005524 <_ntoa_format+0xdc>

10005630 <_out_char>:
10005630:	b900      	cbnz	r0, 10005634 <_out_char+0x4>
10005632:	4770      	bx	lr
10005634:	f001 ba60 	b.w	10006af8 <__wrap_putchar>

10005638 <_out_fct>:
10005638:	b110      	cbz	r0, 10005640 <_out_fct+0x8>
1000563a:	e9d1 3100 	ldrd	r3, r1, [r1]
1000563e:	4718      	bx	r3
10005640:	4770      	bx	lr
10005642:	bf00      	nop
10005644:	0000      	movs	r0, r0
	...

10005648 <_etoa>:
10005648:	e92d 4ff0 	stmdb	sp!, {r4, r5, r6, r7, r8, r9, sl, fp, lr}
1000564c:	ed2d 8b04 	vpush	{d8-d9}
10005650:	b09b      	sub	sp, #108	; 0x6c
10005652:	9c2a      	ldr	r4, [sp, #168]	; 0xa8
10005654:	e9dd 8928 	ldrd	r8, r9, [sp, #160]	; 0xa0
10005658:	9409      	str	r4, [sp, #36]	; 0x24
1000565a:	9c2b      	ldr	r4, [sp, #172]	; 0xac
1000565c:	4683      	mov	fp, r0
1000565e:	461d      	mov	r5, r3
10005660:	940d      	str	r4, [sp, #52]	; 0x34
10005662:	920c      	str	r2, [sp, #48]	; 0x30
10005664:	460c      	mov	r4, r1
10005666:	4642      	mov	r2, r8
10005668:	464b      	mov	r3, r9
1000566a:	4640      	mov	r0, r8
1000566c:	4649      	mov	r1, r9
1000566e:	f8dd a0b0 	ldr.w	sl, [sp, #176]	; 0xb0
10005672:	f7ff fe45 	bl	10005300 <__wrap___aeabi_dcmpun>
10005676:	2800      	cmp	r0, #0
10005678:	f040 80d6 	bne.w	10005828 <_etoa+0x1e0>
1000567c:	4640      	mov	r0, r8
1000567e:	4649      	mov	r1, r9
10005680:	f04f 32ff 	mov.w	r2, #4294967295
10005684:	4b74      	ldr	r3, [pc, #464]	; (10005858 <_etoa+0x210>)
10005686:	f7ff fe89 	bl	1000539c <__wrap___aeabi_dcmpgt>
1000568a:	2800      	cmp	r0, #0
1000568c:	f040 80cc 	bne.w	10005828 <_etoa+0x1e0>
10005690:	4640      	mov	r0, r8
10005692:	4649      	mov	r1, r9
10005694:	f04f 32ff 	mov.w	r2, #4294967295
10005698:	f46f 1380 	mvn.w	r3, #1048576	; 0x100000
1000569c:	f7ff fe42 	bl	10005324 <__wrap___aeabi_dcmplt>
100056a0:	2800      	cmp	r0, #0
100056a2:	f040 80c1 	bne.w	10005828 <_etoa+0x1e0>
100056a6:	4640      	mov	r0, r8
100056a8:	4649      	mov	r1, r9
100056aa:	2200      	movs	r2, #0
100056ac:	2300      	movs	r3, #0
100056ae:	f7ff fe39 	bl	10005324 <__wrap___aeabi_dcmplt>
100056b2:	2800      	cmp	r0, #0
100056b4:	f040 81c1 	bne.w	10005a3a <_etoa+0x3f2>
100056b8:	e9cd 890a 	strd	r8, r9, [sp, #40]	; 0x28
100056bc:	e9dd 230a 	ldrd	r2, r3, [sp, #40]	; 0x28
100056c0:	461f      	mov	r7, r3
100056c2:	f41a 6380 	ands.w	r3, sl, #1024	; 0x400
100056c6:	4616      	mov	r6, r2
100056c8:	9311      	str	r3, [sp, #68]	; 0x44
100056ca:	9b09      	ldr	r3, [sp, #36]	; 0x24
100056cc:	bf08      	it	eq
100056ce:	2306      	moveq	r3, #6
100056d0:	9309      	str	r3, [sp, #36]	; 0x24
100056d2:	ea56 0307 	orrs.w	r3, r6, r7
100056d6:	f040 80c3 	bne.w	10005860 <_etoa+0x218>
100056da:	f41a 6e00 	ands.w	lr, sl, #2048	; 0x800
100056de:	f000 81a4 	beq.w	10005a2a <_etoa+0x3e2>
100056e2:	ed9f 7b5b 	vldr	d7, [pc, #364]	; 10005850 <_etoa+0x208>
100056e6:	2300      	movs	r3, #0
100056e8:	ed8d 7b0e 	vstr	d7, [sp, #56]	; 0x38
100056ec:	9310      	str	r3, [sp, #64]	; 0x40
100056ee:	9b09      	ldr	r3, [sp, #36]	; 0x24
100056f0:	9a10      	ldr	r2, [sp, #64]	; 0x40
100056f2:	2600      	movs	r6, #0
100056f4:	4293      	cmp	r3, r2
100056f6:	bfd2      	itee	le
100056f8:	2300      	movle	r3, #0
100056fa:	eba3 0e02 	subgt.w	lr, r3, r2
100056fe:	f10e 33ff 	addgt.w	r3, lr, #4294967295
10005702:	9309      	str	r3, [sp, #36]	; 0x24
10005704:	f44a 6a80 	orr.w	sl, sl, #1024	; 0x400
10005708:	9610      	str	r6, [sp, #64]	; 0x40
1000570a:	9b0d      	ldr	r3, [sp, #52]	; 0x34
1000570c:	42b3      	cmp	r3, r6
1000570e:	bf94      	ite	ls
10005710:	2700      	movls	r7, #0
10005712:	1b9f      	subhi	r7, r3, r6
10005714:	f01a 0302 	ands.w	r3, sl, #2
10005718:	9311      	str	r3, [sp, #68]	; 0x44
1000571a:	d002      	beq.n	10005722 <_etoa+0xda>
1000571c:	2e00      	cmp	r6, #0
1000571e:	bf18      	it	ne
10005720:	2700      	movne	r7, #0
10005722:	9b10      	ldr	r3, [sp, #64]	; 0x40
10005724:	b13b      	cbz	r3, 10005736 <_etoa+0xee>
10005726:	e9dd 010a 	ldrd	r0, r1, [sp, #40]	; 0x28
1000572a:	e9dd 230e 	ldrd	r2, r3, [sp, #56]	; 0x38
1000572e:	f7ff fd51 	bl	100051d4 <__wrap___aeabi_ddiv>
10005732:	e9cd 010a 	strd	r0, r1, [sp, #40]	; 0x28
10005736:	4640      	mov	r0, r8
10005738:	4649      	mov	r1, r9
1000573a:	2200      	movs	r2, #0
1000573c:	2300      	movs	r3, #0
1000573e:	f7ff fdf1 	bl	10005324 <__wrap___aeabi_dcmplt>
10005742:	b130      	cbz	r0, 10005752 <_etoa+0x10a>
10005744:	e9dd 010a 	ldrd	r0, r1, [sp, #40]	; 0x28
10005748:	4602      	mov	r2, r0
1000574a:	f101 4300 	add.w	r3, r1, #2147483648	; 0x80000000
1000574e:	e9cd 230a 	strd	r2, r3, [sp, #40]	; 0x28
10005752:	ed9d 7b0a 	vldr	d7, [sp, #40]	; 0x28
10005756:	9b09      	ldr	r3, [sp, #36]	; 0x24
10005758:	ed8d 7b00 	vstr	d7, [sp]
1000575c:	9302      	str	r3, [sp, #8]
1000575e:	f42a 6300 	bic.w	r3, sl, #2048	; 0x800
10005762:	9304      	str	r3, [sp, #16]
10005764:	4621      	mov	r1, r4
10005766:	462b      	mov	r3, r5
10005768:	4658      	mov	r0, fp
1000576a:	9a0c      	ldr	r2, [sp, #48]	; 0x30
1000576c:	9703      	str	r7, [sp, #12]
1000576e:	f000 f99b 	bl	10005aa8 <_ftoa>
10005772:	4680      	mov	r8, r0
10005774:	2e00      	cmp	r6, #0
10005776:	d051      	beq.n	1000581c <_etoa+0x1d4>
10005778:	f01a 0f20 	tst.w	sl, #32
1000577c:	4642      	mov	r2, r8
1000577e:	bf14      	ite	ne
10005780:	2045      	movne	r0, #69	; 0x45
10005782:	2065      	moveq	r0, #101	; 0x65
10005784:	462b      	mov	r3, r5
10005786:	4621      	mov	r1, r4
10005788:	47d8      	blx	fp
1000578a:	9a10      	ldr	r2, [sp, #64]	; 0x40
1000578c:	f10d 0c48 	add.w	ip, sp, #72	; 0x48
10005790:	ea82 73e2 	eor.w	r3, r2, r2, asr #31
10005794:	eba3 73e2 	sub.w	r3, r3, r2, asr #31
10005798:	ea4f 7ed2 	mov.w	lr, r2, lsr #31
1000579c:	2700      	movs	r7, #0
1000579e:	4662      	mov	r2, ip
100057a0:	4618      	mov	r0, r3
100057a2:	f8df 90b8 	ldr.w	r9, [pc, #184]	; 1000585c <_etoa+0x214>
100057a6:	f108 0801 	add.w	r8, r8, #1
100057aa:	f106 3aff 	add.w	sl, r6, #4294967295
100057ae:	e001      	b.n	100057b4 <_etoa+0x16c>
100057b0:	2f20      	cmp	r7, #32
100057b2:	d00f      	beq.n	100057d4 <_etoa+0x18c>
100057b4:	4606      	mov	r6, r0
100057b6:	fba9 3100 	umull	r3, r1, r9, r0
100057ba:	08c9      	lsrs	r1, r1, #3
100057bc:	eb01 0381 	add.w	r3, r1, r1, lsl #2
100057c0:	eba0 0343 	sub.w	r3, r0, r3, lsl #1
100057c4:	3330      	adds	r3, #48	; 0x30
100057c6:	2e09      	cmp	r6, #9
100057c8:	4608      	mov	r0, r1
100057ca:	f107 0701 	add.w	r7, r7, #1
100057ce:	f802 3b01 	strb.w	r3, [r2], #1
100057d2:	d8ed      	bhi.n	100057b0 <_etoa+0x168>
100057d4:	2305      	movs	r3, #5
100057d6:	2000      	movs	r0, #0
100057d8:	9306      	str	r3, [sp, #24]
100057da:	230a      	movs	r3, #10
100057dc:	4642      	mov	r2, r8
100057de:	e9cd 3003 	strd	r3, r0, [sp, #12]
100057e2:	4621      	mov	r1, r4
100057e4:	462b      	mov	r3, r5
100057e6:	4658      	mov	r0, fp
100057e8:	e9cd 7e01 	strd	r7, lr, [sp, #4]
100057ec:	f8cd a014 	str.w	sl, [sp, #20]
100057f0:	f8cd c000 	str.w	ip, [sp]
100057f4:	f7ff fe28 	bl	10005448 <_ntoa_format>
100057f8:	9b11      	ldr	r3, [sp, #68]	; 0x44
100057fa:	4680      	mov	r8, r0
100057fc:	b173      	cbz	r3, 1000581c <_etoa+0x1d4>
100057fe:	9b0c      	ldr	r3, [sp, #48]	; 0x30
10005800:	9f0d      	ldr	r7, [sp, #52]	; 0x34
10005802:	1ac6      	subs	r6, r0, r3
10005804:	42b7      	cmp	r7, r6
10005806:	d909      	bls.n	1000581c <_etoa+0x1d4>
10005808:	4642      	mov	r2, r8
1000580a:	462b      	mov	r3, r5
1000580c:	4621      	mov	r1, r4
1000580e:	2020      	movs	r0, #32
10005810:	3601      	adds	r6, #1
10005812:	47d8      	blx	fp
10005814:	42b7      	cmp	r7, r6
10005816:	f108 0801 	add.w	r8, r8, #1
1000581a:	d8f5      	bhi.n	10005808 <_etoa+0x1c0>
1000581c:	4640      	mov	r0, r8
1000581e:	b01b      	add	sp, #108	; 0x6c
10005820:	ecbd 8b04 	vpop	{d8-d9}
10005824:	e8bd 8ff0 	ldmia.w	sp!, {r4, r5, r6, r7, r8, r9, sl, fp, pc}
10005828:	9b0d      	ldr	r3, [sp, #52]	; 0x34
1000582a:	4621      	mov	r1, r4
1000582c:	932b      	str	r3, [sp, #172]	; 0xac
1000582e:	4658      	mov	r0, fp
10005830:	462b      	mov	r3, r5
10005832:	9c09      	ldr	r4, [sp, #36]	; 0x24
10005834:	9a0c      	ldr	r2, [sp, #48]	; 0x30
10005836:	e9cd 8928 	strd	r8, r9, [sp, #160]	; 0xa0
1000583a:	f8cd a0b0 	str.w	sl, [sp, #176]	; 0xb0
1000583e:	942a      	str	r4, [sp, #168]	; 0xa8
10005840:	b01b      	add	sp, #108	; 0x6c
10005842:	ecbd 8b04 	vpop	{d8-d9}
10005846:	e8bd 4ff0 	ldmia.w	sp!, {r4, r5, r6, r7, r8, r9, sl, fp, lr}
1000584a:	f000 b92d 	b.w	10005aa8 <_ftoa>
1000584e:	bf00      	nop
	...
10005858:	7fefffff 	.word	0x7fefffff
1000585c:	cccccccd 	.word	0xcccccccd
10005860:	f3c7 500a 	ubfx	r0, r7, #20, #11
10005864:	f2a0 30ff 	subw	r0, r0, #1023	; 0x3ff
10005868:	f7ff fd02 	bl	10005270 <__wrap___aeabi_i2d>
1000586c:	a38a      	add	r3, pc, #552	; (adr r3, 10005a98 <_etoa+0x450>)
1000586e:	e9d3 2300 	ldrd	r2, r3, [r3]
10005872:	f7ff fc89 	bl	10005188 <__wrap___aeabi_dmul>
10005876:	a38a      	add	r3, pc, #552	; (adr r3, 10005aa0 <_etoa+0x458>)
10005878:	e9d3 2300 	ldrd	r2, r3, [r3]
1000587c:	f7ff fc5c 	bl	10005138 <__wrap___aeabi_dadd>
10005880:	f3c7 0313 	ubfx	r3, r7, #0, #20
10005884:	ec41 0b18 	vmov	d8, r0, r1
10005888:	f043 517f 	orr.w	r1, r3, #1069547520	; 0x3fc00000
1000588c:	4630      	mov	r0, r6
1000588e:	2200      	movs	r2, #0
10005890:	4b7b      	ldr	r3, [pc, #492]	; (10005a80 <_etoa+0x438>)
10005892:	f441 1140 	orr.w	r1, r1, #3145728	; 0x300000
10005896:	f7ff fc63 	bl	10005160 <__wrap___aeabi_dsub>
1000589a:	a36b      	add	r3, pc, #428	; (adr r3, 10005a48 <_etoa+0x400>)
1000589c:	e9d3 2300 	ldrd	r2, r3, [r3]
100058a0:	f7ff fc72 	bl	10005188 <__wrap___aeabi_dmul>
100058a4:	4602      	mov	r2, r0
100058a6:	460b      	mov	r3, r1
100058a8:	ec51 0b18 	vmov	r0, r1, d8
100058ac:	f7ff fc44 	bl	10005138 <__wrap___aeabi_dadd>
100058b0:	f7ff fd02 	bl	100052b8 <__wrap___aeabi_d2iz>
100058b4:	9010      	str	r0, [sp, #64]	; 0x40
100058b6:	f7ff fcdb 	bl	10005270 <__wrap___aeabi_i2d>
100058ba:	a365      	add	r3, pc, #404	; (adr r3, 10005a50 <_etoa+0x408>)
100058bc:	e9d3 2300 	ldrd	r2, r3, [r3]
100058c0:	4606      	mov	r6, r0
100058c2:	460f      	mov	r7, r1
100058c4:	f7ff fc60 	bl	10005188 <__wrap___aeabi_dmul>
100058c8:	2200      	movs	r2, #0
100058ca:	4b6e      	ldr	r3, [pc, #440]	; (10005a84 <_etoa+0x43c>)
100058cc:	f7ff fc34 	bl	10005138 <__wrap___aeabi_dadd>
100058d0:	f7ff fcf2 	bl	100052b8 <__wrap___aeabi_d2iz>
100058d4:	4603      	mov	r3, r0
100058d6:	4639      	mov	r1, r7
100058d8:	4630      	mov	r0, r6
100058da:	930e      	str	r3, [sp, #56]	; 0x38
100058dc:	a35e      	add	r3, pc, #376	; (adr r3, 10005a58 <_etoa+0x410>)
100058de:	e9d3 2300 	ldrd	r2, r3, [r3]
100058e2:	f7ff fc51 	bl	10005188 <__wrap___aeabi_dmul>
100058e6:	4606      	mov	r6, r0
100058e8:	980e      	ldr	r0, [sp, #56]	; 0x38
100058ea:	460f      	mov	r7, r1
100058ec:	f7ff fcc0 	bl	10005270 <__wrap___aeabi_i2d>
100058f0:	a35b      	add	r3, pc, #364	; (adr r3, 10005a60 <_etoa+0x418>)
100058f2:	e9d3 2300 	ldrd	r2, r3, [r3]
100058f6:	f7ff fc47 	bl	10005188 <__wrap___aeabi_dmul>
100058fa:	4602      	mov	r2, r0
100058fc:	460b      	mov	r3, r1
100058fe:	4630      	mov	r0, r6
10005900:	4639      	mov	r1, r7
10005902:	f7ff fc2d 	bl	10005160 <__wrap___aeabi_dsub>
10005906:	4602      	mov	r2, r0
10005908:	460b      	mov	r3, r1
1000590a:	4606      	mov	r6, r0
1000590c:	460f      	mov	r7, r1
1000590e:	f7ff fc3b 	bl	10005188 <__wrap___aeabi_dmul>
10005912:	4632      	mov	r2, r6
10005914:	ec41 0b18 	vmov	d8, r0, r1
10005918:	463b      	mov	r3, r7
1000591a:	4630      	mov	r0, r6
1000591c:	4639      	mov	r1, r7
1000591e:	f7ff fc0b 	bl	10005138 <__wrap___aeabi_dadd>
10005922:	2200      	movs	r2, #0
10005924:	ec41 0b19 	vmov	d9, r0, r1
10005928:	4b57      	ldr	r3, [pc, #348]	; (10005a88 <_etoa+0x440>)
1000592a:	ec51 0b18 	vmov	r0, r1, d8
1000592e:	f7ff fc51 	bl	100051d4 <__wrap___aeabi_ddiv>
10005932:	2200      	movs	r2, #0
10005934:	4b55      	ldr	r3, [pc, #340]	; (10005a8c <_etoa+0x444>)
10005936:	f7ff fbff 	bl	10005138 <__wrap___aeabi_dadd>
1000593a:	4602      	mov	r2, r0
1000593c:	460b      	mov	r3, r1
1000593e:	ec51 0b18 	vmov	r0, r1, d8
10005942:	f7ff fc47 	bl	100051d4 <__wrap___aeabi_ddiv>
10005946:	2200      	movs	r2, #0
10005948:	4b51      	ldr	r3, [pc, #324]	; (10005a90 <_etoa+0x448>)
1000594a:	f7ff fbf5 	bl	10005138 <__wrap___aeabi_dadd>
1000594e:	4602      	mov	r2, r0
10005950:	460b      	mov	r3, r1
10005952:	ec51 0b18 	vmov	r0, r1, d8
10005956:	f7ff fc3d 	bl	100051d4 <__wrap___aeabi_ddiv>
1000595a:	4632      	mov	r2, r6
1000595c:	463b      	mov	r3, r7
1000595e:	4606      	mov	r6, r0
10005960:	460f      	mov	r7, r1
10005962:	2000      	movs	r0, #0
10005964:	f04f 4180 	mov.w	r1, #1073741824	; 0x40000000
10005968:	f7ff fbfa 	bl	10005160 <__wrap___aeabi_dsub>
1000596c:	4602      	mov	r2, r0
1000596e:	460b      	mov	r3, r1
10005970:	4630      	mov	r0, r6
10005972:	4639      	mov	r1, r7
10005974:	f7ff fbe0 	bl	10005138 <__wrap___aeabi_dadd>
10005978:	4602      	mov	r2, r0
1000597a:	460b      	mov	r3, r1
1000597c:	ec51 0b19 	vmov	r0, r1, d9
10005980:	f7ff fc28 	bl	100051d4 <__wrap___aeabi_ddiv>
10005984:	2200      	movs	r2, #0
10005986:	4b43      	ldr	r3, [pc, #268]	; (10005a94 <_etoa+0x44c>)
10005988:	f7ff fbd6 	bl	10005138 <__wrap___aeabi_dadd>
1000598c:	9b0e      	ldr	r3, [sp, #56]	; 0x38
1000598e:	2200      	movs	r2, #0
10005990:	f203 36ff 	addw	r6, r3, #1023	; 0x3ff
10005994:	0533      	lsls	r3, r6, #20
10005996:	f7ff fbf7 	bl	10005188 <__wrap___aeabi_dmul>
1000599a:	4606      	mov	r6, r0
1000599c:	460f      	mov	r7, r1
1000599e:	e9dd 010a 	ldrd	r0, r1, [sp, #40]	; 0x28
100059a2:	4632      	mov	r2, r6
100059a4:	463b      	mov	r3, r7
100059a6:	e9cd 670e 	strd	r6, r7, [sp, #56]	; 0x38
100059aa:	f7ff fcbb 	bl	10005324 <__wrap___aeabi_dcmplt>
100059ae:	bb60      	cbnz	r0, 10005a0a <_etoa+0x3c2>
100059b0:	4631      	mov	r1, r6
100059b2:	463a      	mov	r2, r7
100059b4:	9b10      	ldr	r3, [sp, #64]	; 0x40
100059b6:	3363      	adds	r3, #99	; 0x63
100059b8:	2bc7      	cmp	r3, #199	; 0xc7
100059ba:	bf34      	ite	cc
100059bc:	2604      	movcc	r6, #4
100059be:	2605      	movcs	r6, #5
100059c0:	f41a 6f00 	tst.w	sl, #2048	; 0x800
100059c4:	f43f aea1 	beq.w	1000570a <_etoa+0xc2>
100059c8:	ea51 0302 	orrs.w	r3, r1, r2
100059cc:	f43f ae8f 	beq.w	100056ee <_etoa+0xa6>
100059d0:	e9dd 010a 	ldrd	r0, r1, [sp, #40]	; 0x28
100059d4:	a324      	add	r3, pc, #144	; (adr r3, 10005a68 <_etoa+0x420>)
100059d6:	e9d3 2300 	ldrd	r2, r3, [r3]
100059da:	f7ff fccb 	bl	10005374 <__wrap___aeabi_dcmpge>
100059de:	b148      	cbz	r0, 100059f4 <_etoa+0x3ac>
100059e0:	e9dd 010a 	ldrd	r0, r1, [sp, #40]	; 0x28
100059e4:	a322      	add	r3, pc, #136	; (adr r3, 10005a70 <_etoa+0x428>)
100059e6:	e9d3 2300 	ldrd	r2, r3, [r3]
100059ea:	f7ff fc9b 	bl	10005324 <__wrap___aeabi_dcmplt>
100059ee:	2800      	cmp	r0, #0
100059f0:	f47f ae7d 	bne.w	100056ee <_etoa+0xa6>
100059f4:	9b09      	ldr	r3, [sp, #36]	; 0x24
100059f6:	2b00      	cmp	r3, #0
100059f8:	f43f ae87 	beq.w	1000570a <_etoa+0xc2>
100059fc:	9a11      	ldr	r2, [sp, #68]	; 0x44
100059fe:	2a00      	cmp	r2, #0
10005a00:	f43f ae83 	beq.w	1000570a <_etoa+0xc2>
10005a04:	3b01      	subs	r3, #1
10005a06:	9309      	str	r3, [sp, #36]	; 0x24
10005a08:	e67f      	b.n	1000570a <_etoa+0xc2>
10005a0a:	9b10      	ldr	r3, [sp, #64]	; 0x40
10005a0c:	2200      	movs	r2, #0
10005a0e:	3b01      	subs	r3, #1
10005a10:	9310      	str	r3, [sp, #64]	; 0x40
10005a12:	4630      	mov	r0, r6
10005a14:	4b1d      	ldr	r3, [pc, #116]	; (10005a8c <_etoa+0x444>)
10005a16:	4639      	mov	r1, r7
10005a18:	f7ff fbdc 	bl	100051d4 <__wrap___aeabi_ddiv>
10005a1c:	460b      	mov	r3, r1
10005a1e:	4602      	mov	r2, r0
10005a20:	4601      	mov	r1, r0
10005a22:	e9cd 230e 	strd	r2, r3, [sp, #56]	; 0x38
10005a26:	461a      	mov	r2, r3
10005a28:	e7c4      	b.n	100059b4 <_etoa+0x36c>
10005a2a:	ed9f 7b13 	vldr	d7, [pc, #76]	; 10005a78 <_etoa+0x430>
10005a2e:	2604      	movs	r6, #4
10005a30:	ed8d 7b0e 	vstr	d7, [sp, #56]	; 0x38
10005a34:	f8cd e040 	str.w	lr, [sp, #64]	; 0x40
10005a38:	e667      	b.n	1000570a <_etoa+0xc2>
10005a3a:	f109 4300 	add.w	r3, r9, #2147483648	; 0x80000000
10005a3e:	f8cd 8028 	str.w	r8, [sp, #40]	; 0x28
10005a42:	930b      	str	r3, [sp, #44]	; 0x2c
10005a44:	e63a      	b.n	100056bc <_etoa+0x74>
10005a46:	bf00      	nop
10005a48:	636f4361 	.word	0x636f4361
10005a4c:	3fd287a7 	.word	0x3fd287a7
10005a50:	0979a371 	.word	0x0979a371
10005a54:	400a934f 	.word	0x400a934f
10005a58:	bbb55516 	.word	0xbbb55516
10005a5c:	40026bb1 	.word	0x40026bb1
10005a60:	fefa39ef 	.word	0xfefa39ef
10005a64:	3fe62e42 	.word	0x3fe62e42
10005a68:	eb1c432d 	.word	0xeb1c432d
10005a6c:	3f1a36e2 	.word	0x3f1a36e2
10005a70:	00000000 	.word	0x00000000
10005a74:	412e8480 	.word	0x412e8480
	...
10005a80:	3ff80000 	.word	0x3ff80000
10005a84:	3fe00000 	.word	0x3fe00000
10005a88:	402c0000 	.word	0x402c0000
10005a8c:	40240000 	.word	0x40240000
10005a90:	40180000 	.word	0x40180000
10005a94:	3ff00000 	.word	0x3ff00000
10005a98:	509f79fb 	.word	0x509f79fb
10005a9c:	3fd34413 	.word	0x3fd34413
10005aa0:	8b60c8b3 	.word	0x8b60c8b3
10005aa4:	3fc68a28 	.word	0x3fc68a28

10005aa8 <_ftoa>:
10005aa8:	e92d 4ff0 	stmdb	sp!, {r4, r5, r6, r7, r8, r9, sl, fp, lr}
10005aac:	ed2d 8b02 	vpush	{d8}
10005ab0:	b095      	sub	sp, #84	; 0x54
10005ab2:	e9dd 4522 	ldrd	r4, r5, [sp, #136]	; 0x88
10005ab6:	9506      	str	r5, [sp, #24]
10005ab8:	9d24      	ldr	r5, [sp, #144]	; 0x90
10005aba:	e9dd 6720 	ldrd	r6, r7, [sp, #128]	; 0x80
10005abe:	e9cd 0107 	strd	r0, r1, [sp, #28]
10005ac2:	e9cd 2309 	strd	r2, r3, [sp, #36]	; 0x24
10005ac6:	4630      	mov	r0, r6
10005ac8:	4632      	mov	r2, r6
10005aca:	463b      	mov	r3, r7
10005acc:	4639      	mov	r1, r7
10005ace:	9505      	str	r5, [sp, #20]
10005ad0:	f7ff fc16 	bl	10005300 <__wrap___aeabi_dcmpun>
10005ad4:	2800      	cmp	r0, #0
10005ad6:	f040 81c4 	bne.w	10005e62 <_ftoa+0x3ba>
10005ada:	4630      	mov	r0, r6
10005adc:	4639      	mov	r1, r7
10005ade:	f04f 32ff 	mov.w	r2, #4294967295
10005ae2:	f46f 1380 	mvn.w	r3, #1048576	; 0x100000
10005ae6:	f7ff fc1d 	bl	10005324 <__wrap___aeabi_dcmplt>
10005aea:	2800      	cmp	r0, #0
10005aec:	f040 810d 	bne.w	10005d0a <_ftoa+0x262>
10005af0:	4630      	mov	r0, r6
10005af2:	4639      	mov	r1, r7
10005af4:	f04f 32ff 	mov.w	r2, #4294967295
10005af8:	4bbf      	ldr	r3, [pc, #764]	; (10005df8 <_ftoa+0x350>)
10005afa:	f7ff fc4f 	bl	1000539c <__wrap___aeabi_dcmpgt>
10005afe:	2800      	cmp	r0, #0
10005b00:	f040 80dd 	bne.w	10005cbe <_ftoa+0x216>
10005b04:	a3b8      	add	r3, pc, #736	; (adr r3, 10005de8 <_ftoa+0x340>)
10005b06:	e9d3 2300 	ldrd	r2, r3, [r3]
10005b0a:	4630      	mov	r0, r6
10005b0c:	4639      	mov	r1, r7
10005b0e:	f7ff fc45 	bl	1000539c <__wrap___aeabi_dcmpgt>
10005b12:	2800      	cmp	r0, #0
10005b14:	f040 80c1 	bne.w	10005c9a <_ftoa+0x1f2>
10005b18:	a3b5      	add	r3, pc, #724	; (adr r3, 10005df0 <_ftoa+0x348>)
10005b1a:	e9d3 2300 	ldrd	r2, r3, [r3]
10005b1e:	4630      	mov	r0, r6
10005b20:	4639      	mov	r1, r7
10005b22:	f7ff fbff 	bl	10005324 <__wrap___aeabi_dcmplt>
10005b26:	2800      	cmp	r0, #0
10005b28:	f040 80b7 	bne.w	10005c9a <_ftoa+0x1f2>
10005b2c:	4630      	mov	r0, r6
10005b2e:	4639      	mov	r1, r7
10005b30:	2200      	movs	r2, #0
10005b32:	2300      	movs	r3, #0
10005b34:	f7ff fbf6 	bl	10005324 <__wrap___aeabi_dcmplt>
10005b38:	2800      	cmp	r0, #0
10005b3a:	f040 80da 	bne.w	10005cf2 <_ftoa+0x24a>
10005b3e:	462b      	mov	r3, r5
10005b40:	900b      	str	r0, [sp, #44]	; 0x2c
10005b42:	f413 6f80 	tst.w	r3, #1024	; 0x400
10005b46:	bf08      	it	eq
10005b48:	2406      	moveq	r4, #6
10005b4a:	2130      	movs	r1, #48	; 0x30
10005b4c:	46a2      	mov	sl, r4
10005b4e:	ab0c      	add	r3, sp, #48	; 0x30
10005b50:	f1a4 0220 	sub.w	r2, r4, #32
10005b54:	e006      	b.n	10005b64 <_ftoa+0xbc>
10005b56:	f10a 3aff 	add.w	sl, sl, #4294967295
10005b5a:	4552      	cmp	r2, sl
10005b5c:	f803 1b01 	strb.w	r1, [r3], #1
10005b60:	f000 8131 	beq.w	10005dc6 <_ftoa+0x31e>
10005b64:	f1ba 0f09 	cmp.w	sl, #9
10005b68:	eba4 050a 	sub.w	r5, r4, sl
10005b6c:	d8f3      	bhi.n	10005b56 <_ftoa+0xae>
10005b6e:	4639      	mov	r1, r7
10005b70:	4630      	mov	r0, r6
10005b72:	f7ff fba1 	bl	100052b8 <__wrap___aeabi_d2iz>
10005b76:	4ba1      	ldr	r3, [pc, #644]	; (10005dfc <_ftoa+0x354>)
10005b78:	4604      	mov	r4, r0
10005b7a:	eb03 03ca 	add.w	r3, r3, sl, lsl #3
10005b7e:	ed93 8b00 	vldr	d8, [r3]
10005b82:	f7ff fb75 	bl	10005270 <__wrap___aeabi_i2d>
10005b86:	4602      	mov	r2, r0
10005b88:	460b      	mov	r3, r1
10005b8a:	4630      	mov	r0, r6
10005b8c:	4639      	mov	r1, r7
10005b8e:	f7ff fae7 	bl	10005160 <__wrap___aeabi_dsub>
10005b92:	ec53 2b18 	vmov	r2, r3, d8
10005b96:	f7ff faf7 	bl	10005188 <__wrap___aeabi_dmul>
10005b9a:	4689      	mov	r9, r1
10005b9c:	4680      	mov	r8, r0
10005b9e:	f7ff fb9d 	bl	100052dc <__wrap___aeabi_d2uiz>
10005ba2:	4683      	mov	fp, r0
10005ba4:	f7ff fb76 	bl	10005294 <__wrap___aeabi_ui2d>
10005ba8:	4602      	mov	r2, r0
10005baa:	460b      	mov	r3, r1
10005bac:	4640      	mov	r0, r8
10005bae:	4649      	mov	r1, r9
10005bb0:	f7ff fad6 	bl	10005160 <__wrap___aeabi_dsub>
10005bb4:	2200      	movs	r2, #0
10005bb6:	4b92      	ldr	r3, [pc, #584]	; (10005e00 <_ftoa+0x358>)
10005bb8:	4680      	mov	r8, r0
10005bba:	4689      	mov	r9, r1
10005bbc:	f7ff fbee 	bl	1000539c <__wrap___aeabi_dcmpgt>
10005bc0:	2800      	cmp	r0, #0
10005bc2:	f000 80f1 	beq.w	10005da8 <_ftoa+0x300>
10005bc6:	f10b 0b01 	add.w	fp, fp, #1
10005bca:	4658      	mov	r0, fp
10005bcc:	f7ff fb62 	bl	10005294 <__wrap___aeabi_ui2d>
10005bd0:	4602      	mov	r2, r0
10005bd2:	460b      	mov	r3, r1
10005bd4:	ec51 0b18 	vmov	r0, r1, d8
10005bd8:	f7ff fbb8 	bl	1000534c <__wrap___aeabi_dcmple>
10005bdc:	b110      	cbz	r0, 10005be4 <_ftoa+0x13c>
10005bde:	f04f 0b00 	mov.w	fp, #0
10005be2:	3401      	adds	r4, #1
10005be4:	f1ba 0f00 	cmp.w	sl, #0
10005be8:	f040 809a 	bne.w	10005d20 <_ftoa+0x278>
10005bec:	4620      	mov	r0, r4
10005bee:	f7ff fb3f 	bl	10005270 <__wrap___aeabi_i2d>
10005bf2:	4602      	mov	r2, r0
10005bf4:	460b      	mov	r3, r1
10005bf6:	4630      	mov	r0, r6
10005bf8:	4639      	mov	r1, r7
10005bfa:	f7ff fab1 	bl	10005160 <__wrap___aeabi_dsub>
10005bfe:	2200      	movs	r2, #0
10005c00:	4b7f      	ldr	r3, [pc, #508]	; (10005e00 <_ftoa+0x358>)
10005c02:	4606      	mov	r6, r0
10005c04:	460f      	mov	r7, r1
10005c06:	f7ff fb8d 	bl	10005324 <__wrap___aeabi_dcmplt>
10005c0a:	b940      	cbnz	r0, 10005c1e <_ftoa+0x176>
10005c0c:	4630      	mov	r0, r6
10005c0e:	4639      	mov	r1, r7
10005c10:	2200      	movs	r2, #0
10005c12:	4b7b      	ldr	r3, [pc, #492]	; (10005e00 <_ftoa+0x358>)
10005c14:	f7ff fbc2 	bl	1000539c <__wrap___aeabi_dcmpgt>
10005c18:	2800      	cmp	r0, #0
10005c1a:	f000 8116 	beq.w	10005e4a <_ftoa+0x3a2>
10005c1e:	1e6a      	subs	r2, r5, #1
10005c20:	ab0c      	add	r3, sp, #48	; 0x30
10005c22:	4978      	ldr	r1, [pc, #480]	; (10005e04 <_ftoa+0x35c>)
10005c24:	441a      	add	r2, r3
10005c26:	2d20      	cmp	r5, #32
10005c28:	ea4f 73e4 	mov.w	r3, r4, asr #31
10005c2c:	f000 8093 	beq.w	10005d56 <_ftoa+0x2ae>
10005c30:	fb81 6004 	smull	r6, r0, r1, r4
10005c34:	ebc3 03a0 	rsb	r3, r3, r0, asr #2
10005c38:	eb03 0083 	add.w	r0, r3, r3, lsl #2
10005c3c:	eba4 0440 	sub.w	r4, r4, r0, lsl #1
10005c40:	f104 0030 	add.w	r0, r4, #48	; 0x30
10005c44:	3501      	adds	r5, #1
10005c46:	461c      	mov	r4, r3
10005c48:	f802 0f01 	strb.w	r0, [r2, #1]!
10005c4c:	2b00      	cmp	r3, #0
10005c4e:	d1ea      	bne.n	10005c26 <_ftoa+0x17e>
10005c50:	9b05      	ldr	r3, [sp, #20]
10005c52:	f003 0303 	and.w	r3, r3, #3
10005c56:	2b01      	cmp	r3, #1
10005c58:	f000 8083 	beq.w	10005d62 <_ftoa+0x2ba>
10005c5c:	2d20      	cmp	r5, #32
10005c5e:	d00a      	beq.n	10005c76 <_ftoa+0x1ce>
10005c60:	9b0b      	ldr	r3, [sp, #44]	; 0x2c
10005c62:	2b00      	cmp	r3, #0
10005c64:	f000 80b1 	beq.w	10005dca <_ftoa+0x322>
10005c68:	222d      	movs	r2, #45	; 0x2d
10005c6a:	f105 0350 	add.w	r3, r5, #80	; 0x50
10005c6e:	446b      	add	r3, sp
10005c70:	f803 2c20 	strb.w	r2, [r3, #-32]
10005c74:	3501      	adds	r5, #1
10005c76:	9b05      	ldr	r3, [sp, #20]
10005c78:	ac0c      	add	r4, sp, #48	; 0x30
10005c7a:	9303      	str	r3, [sp, #12]
10005c7c:	9b06      	ldr	r3, [sp, #24]
10005c7e:	9400      	str	r4, [sp, #0]
10005c80:	e9cd 5301 	strd	r5, r3, [sp, #4]
10005c84:	e9dd 0107 	ldrd	r0, r1, [sp, #28]
10005c88:	e9dd 2309 	ldrd	r2, r3, [sp, #36]	; 0x24
10005c8c:	f7ff fb98 	bl	100053c0 <_out_rev>
10005c90:	b015      	add	sp, #84	; 0x54
10005c92:	ecbd 8b02 	vpop	{d8}
10005c96:	e8bd 8ff0 	ldmia.w	sp!, {r4, r5, r6, r7, r8, r9, sl, fp, pc}
10005c9a:	9b05      	ldr	r3, [sp, #20]
10005c9c:	e9cd 6720 	strd	r6, r7, [sp, #128]	; 0x80
10005ca0:	e9dd 0107 	ldrd	r0, r1, [sp, #28]
10005ca4:	9324      	str	r3, [sp, #144]	; 0x90
10005ca6:	9b06      	ldr	r3, [sp, #24]
10005ca8:	9422      	str	r4, [sp, #136]	; 0x88
10005caa:	9323      	str	r3, [sp, #140]	; 0x8c
10005cac:	e9dd 2309 	ldrd	r2, r3, [sp, #36]	; 0x24
10005cb0:	b015      	add	sp, #84	; 0x54
10005cb2:	ecbd 8b02 	vpop	{d8}
10005cb6:	e8bd 4ff0 	ldmia.w	sp!, {r4, r5, r6, r7, r8, r9, sl, fp, lr}
10005cba:	f7ff bcc5 	b.w	10005648 <_etoa>
10005cbe:	f005 0404 	and.w	r4, r5, #4
10005cc2:	9523      	str	r5, [sp, #140]	; 0x8c
10005cc4:	4d50      	ldr	r5, [pc, #320]	; (10005e08 <_ftoa+0x360>)
10005cc6:	2c00      	cmp	r4, #0
10005cc8:	4c50      	ldr	r4, [pc, #320]	; (10005e0c <_ftoa+0x364>)
10005cca:	bf18      	it	ne
10005ccc:	462c      	movne	r4, r5
10005cce:	e9dd 0107 	ldrd	r0, r1, [sp, #28]
10005cd2:	9420      	str	r4, [sp, #128]	; 0x80
10005cd4:	bf0c      	ite	eq
10005cd6:	2403      	moveq	r4, #3
10005cd8:	2404      	movne	r4, #4
10005cda:	9b06      	ldr	r3, [sp, #24]
10005cdc:	9322      	str	r3, [sp, #136]	; 0x88
10005cde:	e9dd 2309 	ldrd	r2, r3, [sp, #36]	; 0x24
10005ce2:	9421      	str	r4, [sp, #132]	; 0x84
10005ce4:	b015      	add	sp, #84	; 0x54
10005ce6:	ecbd 8b02 	vpop	{d8}
10005cea:	e8bd 4ff0 	ldmia.w	sp!, {r4, r5, r6, r7, r8, r9, sl, fp, lr}
10005cee:	f7ff bb67 	b.w	100053c0 <_out_rev>
10005cf2:	2101      	movs	r1, #1
10005cf4:	463b      	mov	r3, r7
10005cf6:	4632      	mov	r2, r6
10005cf8:	910b      	str	r1, [sp, #44]	; 0x2c
10005cfa:	2000      	movs	r0, #0
10005cfc:	2100      	movs	r1, #0
10005cfe:	f7ff fa2f 	bl	10005160 <__wrap___aeabi_dsub>
10005d02:	462b      	mov	r3, r5
10005d04:	4606      	mov	r6, r0
10005d06:	460f      	mov	r7, r1
10005d08:	e71b      	b.n	10005b42 <_ftoa+0x9a>
10005d0a:	9c06      	ldr	r4, [sp, #24]
10005d0c:	9523      	str	r5, [sp, #140]	; 0x8c
10005d0e:	9422      	str	r4, [sp, #136]	; 0x88
10005d10:	2404      	movs	r4, #4
10005d12:	e9dd 2309 	ldrd	r2, r3, [sp, #36]	; 0x24
10005d16:	e9dd 0107 	ldrd	r0, r1, [sp, #28]
10005d1a:	4d3d      	ldr	r5, [pc, #244]	; (10005e10 <_ftoa+0x368>)
10005d1c:	9520      	str	r5, [sp, #128]	; 0x80
10005d1e:	e7e0      	b.n	10005ce2 <_ftoa+0x23a>
10005d20:	1e68      	subs	r0, r5, #1
10005d22:	ab0c      	add	r3, sp, #48	; 0x30
10005d24:	4f3b      	ldr	r7, [pc, #236]	; (10005e14 <_ftoa+0x36c>)
10005d26:	4418      	add	r0, r3
10005d28:	e00f      	b.n	10005d4a <_ftoa+0x2a2>
10005d2a:	fba7 320b 	umull	r3, r2, r7, fp
10005d2e:	08d2      	lsrs	r2, r2, #3
10005d30:	eb02 0382 	add.w	r3, r2, r2, lsl #2
10005d34:	ebab 0343 	sub.w	r3, fp, r3, lsl #1
10005d38:	3330      	adds	r3, #48	; 0x30
10005d3a:	f1bb 0f09 	cmp.w	fp, #9
10005d3e:	f800 3f01 	strb.w	r3, [r0, #1]!
10005d42:	d969      	bls.n	10005e18 <_ftoa+0x370>
10005d44:	46b2      	mov	sl, r6
10005d46:	4693      	mov	fp, r2
10005d48:	460d      	mov	r5, r1
10005d4a:	2d20      	cmp	r5, #32
10005d4c:	f10a 36ff 	add.w	r6, sl, #4294967295
10005d50:	f105 0101 	add.w	r1, r5, #1
10005d54:	d1e9      	bne.n	10005d2a <_ftoa+0x282>
10005d56:	9b05      	ldr	r3, [sp, #20]
10005d58:	2520      	movs	r5, #32
10005d5a:	f003 0303 	and.w	r3, r3, #3
10005d5e:	2b01      	cmp	r3, #1
10005d60:	d189      	bne.n	10005c76 <_ftoa+0x1ce>
10005d62:	9b06      	ldr	r3, [sp, #24]
10005d64:	2b00      	cmp	r3, #0
10005d66:	f43f af79 	beq.w	10005c5c <_ftoa+0x1b4>
10005d6a:	9b0b      	ldr	r3, [sp, #44]	; 0x2c
10005d6c:	b91b      	cbnz	r3, 10005d76 <_ftoa+0x2ce>
10005d6e:	9b05      	ldr	r3, [sp, #20]
10005d70:	f013 0f0c 	tst.w	r3, #12
10005d74:	d002      	beq.n	10005d7c <_ftoa+0x2d4>
10005d76:	9b06      	ldr	r3, [sp, #24]
10005d78:	3b01      	subs	r3, #1
10005d7a:	9306      	str	r3, [sp, #24]
10005d7c:	9b06      	ldr	r3, [sp, #24]
10005d7e:	42ab      	cmp	r3, r5
10005d80:	f67f af6c 	bls.w	10005c5c <_ftoa+0x1b4>
10005d84:	2d20      	cmp	r5, #32
10005d86:	d00d      	beq.n	10005da4 <_ftoa+0x2fc>
10005d88:	2230      	movs	r2, #48	; 0x30
10005d8a:	1e6b      	subs	r3, r5, #1
10005d8c:	eb0d 0102 	add.w	r1, sp, r2
10005d90:	440b      	add	r3, r1
10005d92:	9906      	ldr	r1, [sp, #24]
10005d94:	3501      	adds	r5, #1
10005d96:	428d      	cmp	r5, r1
10005d98:	f803 2f01 	strb.w	r2, [r3, #1]!
10005d9c:	f43f af5e 	beq.w	10005c5c <_ftoa+0x1b4>
10005da0:	2d20      	cmp	r5, #32
10005da2:	d1f7      	bne.n	10005d94 <_ftoa+0x2ec>
10005da4:	2520      	movs	r5, #32
10005da6:	e766      	b.n	10005c76 <_ftoa+0x1ce>
10005da8:	4640      	mov	r0, r8
10005daa:	4649      	mov	r1, r9
10005dac:	2200      	movs	r2, #0
10005dae:	4b14      	ldr	r3, [pc, #80]	; (10005e00 <_ftoa+0x358>)
10005db0:	f7ff fab8 	bl	10005324 <__wrap___aeabi_dcmplt>
10005db4:	2800      	cmp	r0, #0
10005db6:	f47f af15 	bne.w	10005be4 <_ftoa+0x13c>
10005dba:	f1bb 0f00 	cmp.w	fp, #0
10005dbe:	d14b      	bne.n	10005e58 <_ftoa+0x3b0>
10005dc0:	f10b 0b01 	add.w	fp, fp, #1
10005dc4:	e70e      	b.n	10005be4 <_ftoa+0x13c>
10005dc6:	2520      	movs	r5, #32
10005dc8:	e6d1      	b.n	10005b6e <_ftoa+0xc6>
10005dca:	9b05      	ldr	r3, [sp, #20]
10005dcc:	075a      	lsls	r2, r3, #29
10005dce:	d441      	bmi.n	10005e54 <_ftoa+0x3ac>
10005dd0:	071b      	lsls	r3, r3, #28
10005dd2:	f57f af50 	bpl.w	10005c76 <_ftoa+0x1ce>
10005dd6:	2220      	movs	r2, #32
10005dd8:	f105 0330 	add.w	r3, r5, #48	; 0x30
10005ddc:	4413      	add	r3, r2
10005dde:	446b      	add	r3, sp
10005de0:	f803 2c20 	strb.w	r2, [r3, #-32]
10005de4:	3501      	adds	r5, #1
10005de6:	e746      	b.n	10005c76 <_ftoa+0x1ce>
10005de8:	00000000 	.word	0x00000000
10005dec:	41cdcd65 	.word	0x41cdcd65
10005df0:	00000000 	.word	0x00000000
10005df4:	c1cdcd65 	.word	0xc1cdcd65
10005df8:	7fefffff 	.word	0x7fefffff
10005dfc:	10009ab0 	.word	0x10009ab0
10005e00:	3fe00000 	.word	0x3fe00000
10005e04:	66666667 	.word	0x66666667
10005e08:	10009a98 	.word	0x10009a98
10005e0c:	10009a94 	.word	0x10009a94
10005e10:	10009aa4 	.word	0x10009aa4
10005e14:	cccccccd 	.word	0xcccccccd
10005e18:	2920      	cmp	r1, #32
10005e1a:	d09c      	beq.n	10005d56 <_ftoa+0x2ae>
10005e1c:	b35e      	cbz	r6, 10005e76 <_ftoa+0x3ce>
10005e1e:	ab0c      	add	r3, sp, #48	; 0x30
10005e20:	195a      	adds	r2, r3, r5
10005e22:	2030      	movs	r0, #48	; 0x30
10005e24:	460d      	mov	r5, r1
10005e26:	3501      	adds	r5, #1
10005e28:	2d20      	cmp	r5, #32
10005e2a:	f802 0f01 	strb.w	r0, [r2, #1]!
10005e2e:	d092      	beq.n	10005d56 <_ftoa+0x2ae>
10005e30:	43eb      	mvns	r3, r5
10005e32:	440b      	add	r3, r1
10005e34:	eb13 0f0a 	cmn.w	r3, sl
10005e38:	d1f5      	bne.n	10005e26 <_ftoa+0x37e>
10005e3a:	222e      	movs	r2, #46	; 0x2e
10005e3c:	f105 0350 	add.w	r3, r5, #80	; 0x50
10005e40:	446b      	add	r3, sp
10005e42:	f803 2c20 	strb.w	r2, [r3, #-32]
10005e46:	3501      	adds	r5, #1
10005e48:	e6e9      	b.n	10005c1e <_ftoa+0x176>
10005e4a:	07e1      	lsls	r1, r4, #31
10005e4c:	f57f aee7 	bpl.w	10005c1e <_ftoa+0x176>
10005e50:	3401      	adds	r4, #1
10005e52:	e6e4      	b.n	10005c1e <_ftoa+0x176>
10005e54:	222b      	movs	r2, #43	; 0x2b
10005e56:	e708      	b.n	10005c6a <_ftoa+0x1c2>
10005e58:	f01b 0f01 	tst.w	fp, #1
10005e5c:	f43f aec2 	beq.w	10005be4 <_ftoa+0x13c>
10005e60:	e7ae      	b.n	10005dc0 <_ftoa+0x318>
10005e62:	9c06      	ldr	r4, [sp, #24]
10005e64:	9523      	str	r5, [sp, #140]	; 0x8c
10005e66:	9422      	str	r4, [sp, #136]	; 0x88
10005e68:	4d04      	ldr	r5, [pc, #16]	; (10005e7c <_ftoa+0x3d4>)
10005e6a:	2403      	movs	r4, #3
10005e6c:	e9dd 2309 	ldrd	r2, r3, [sp, #36]	; 0x24
10005e70:	e9dd 0107 	ldrd	r0, r1, [sp, #28]
10005e74:	e752      	b.n	10005d1c <_ftoa+0x274>
10005e76:	460d      	mov	r5, r1
10005e78:	e7df      	b.n	10005e3a <_ftoa+0x392>
10005e7a:	bf00      	nop
10005e7c:	10009aa0 	.word	0x10009aa0

10005e80 <_vsnprintf>:
10005e80:	e92d 4ff0 	stmdb	sp!, {r4, r5, r6, r7, r8, r9, sl, fp, lr}
10005e84:	b09b      	sub	sp, #108	; 0x6c
10005e86:	9c24      	ldr	r4, [sp, #144]	; 0x90
10005e88:	4d84      	ldr	r5, [pc, #528]	; (1000609c <_vsnprintf+0x21c>)
10005e8a:	9409      	str	r4, [sp, #36]	; 0x24
10005e8c:	4c84      	ldr	r4, [pc, #528]	; (100060a0 <_vsnprintf+0x220>)
10005e8e:	1e0f      	subs	r7, r1, #0
10005e90:	bf18      	it	ne
10005e92:	4683      	movne	fp, r0
10005e94:	6025      	str	r5, [r4, #0]
10005e96:	7818      	ldrb	r0, [r3, #0]
10005e98:	4d82      	ldr	r5, [pc, #520]	; (100060a4 <_vsnprintf+0x224>)
10005e9a:	4690      	mov	r8, r2
10005e9c:	bf08      	it	eq
10005e9e:	46ab      	moveq	fp, r5
10005ea0:	2800      	cmp	r0, #0
10005ea2:	f000 82c4 	beq.w	1000642e <_vsnprintf+0x5ae>
10005ea6:	461c      	mov	r4, r3
10005ea8:	f04f 0a00 	mov.w	sl, #0
10005eac:	e00a      	b.n	10005ec4 <_vsnprintf+0x44>
10005eae:	4652      	mov	r2, sl
10005eb0:	4643      	mov	r3, r8
10005eb2:	4639      	mov	r1, r7
10005eb4:	47d8      	blx	fp
10005eb6:	f10a 0a01 	add.w	sl, sl, #1
10005eba:	3401      	adds	r4, #1
10005ebc:	7820      	ldrb	r0, [r4, #0]
10005ebe:	2800      	cmp	r0, #0
10005ec0:	f000 80c9 	beq.w	10006056 <_vsnprintf+0x1d6>
10005ec4:	2825      	cmp	r0, #37	; 0x25
10005ec6:	d1f2      	bne.n	10005eae <_vsnprintf+0x2e>
10005ec8:	2100      	movs	r1, #0
10005eca:	1c63      	adds	r3, r4, #1
10005ecc:	461c      	mov	r4, r3
10005ece:	f813 0b01 	ldrb.w	r0, [r3], #1
10005ed2:	f1a0 0220 	sub.w	r2, r0, #32
10005ed6:	2a10      	cmp	r2, #16
10005ed8:	d80a      	bhi.n	10005ef0 <_vsnprintf+0x70>
10005eda:	e8df f002 	tbb	[pc, r2]
10005ede:	093c      	.short	0x093c
10005ee0:	09093909 	.word	0x09093909
10005ee4:	09090909 	.word	0x09090909
10005ee8:	33093609 	.word	0x33093609
10005eec:	0909      	.short	0x0909
10005eee:	30          	.byte	0x30
10005eef:	00          	.byte	0x00
10005ef0:	f1a0 0330 	sub.w	r3, r0, #48	; 0x30
10005ef4:	2b09      	cmp	r3, #9
10005ef6:	f240 8090 	bls.w	1000601a <_vsnprintf+0x19a>
10005efa:	282a      	cmp	r0, #42	; 0x2a
10005efc:	f000 80b9 	beq.w	10006072 <_vsnprintf+0x1f2>
10005f00:	2500      	movs	r5, #0
10005f02:	282e      	cmp	r0, #46	; 0x2e
10005f04:	f000 8098 	beq.w	10006038 <_vsnprintf+0x1b8>
10005f08:	2300      	movs	r3, #0
10005f0a:	930a      	str	r3, [sp, #40]	; 0x28
10005f0c:	f1a0 0368 	sub.w	r3, r0, #104	; 0x68
10005f10:	2b12      	cmp	r3, #18
10005f12:	d827      	bhi.n	10005f64 <_vsnprintf+0xe4>
10005f14:	e8df f013 	tbh	[pc, r3, lsl #1]
10005f18:	0026011f 	.word	0x0026011f
10005f1c:	0026011a 	.word	0x0026011a
10005f20:	00260127 	.word	0x00260127
10005f24:	00260026 	.word	0x00260026
10005f28:	00260026 	.word	0x00260026
10005f2c:	00260026 	.word	0x00260026
10005f30:	00260022 	.word	0x00260022
10005f34:	00260026 	.word	0x00260026
10005f38:	00260026 	.word	0x00260026
10005f3c:	0022      	.short	0x0022
10005f3e:	f041 0101 	orr.w	r1, r1, #1
10005f42:	e7c3      	b.n	10005ecc <_vsnprintf+0x4c>
10005f44:	f041 0102 	orr.w	r1, r1, #2
10005f48:	e7c0      	b.n	10005ecc <_vsnprintf+0x4c>
10005f4a:	f041 0104 	orr.w	r1, r1, #4
10005f4e:	e7bd      	b.n	10005ecc <_vsnprintf+0x4c>
10005f50:	f041 0110 	orr.w	r1, r1, #16
10005f54:	e7ba      	b.n	10005ecc <_vsnprintf+0x4c>
10005f56:	f041 0108 	orr.w	r1, r1, #8
10005f5a:	e7b7      	b.n	10005ecc <_vsnprintf+0x4c>
10005f5c:	7860      	ldrb	r0, [r4, #1]
10005f5e:	f441 7180 	orr.w	r1, r1, #256	; 0x100
10005f62:	3401      	adds	r4, #1
10005f64:	f1a0 0325 	sub.w	r3, r0, #37	; 0x25
10005f68:	2b53      	cmp	r3, #83	; 0x53
10005f6a:	f200 808e 	bhi.w	1000608a <_vsnprintf+0x20a>
10005f6e:	e8df f013 	tbh	[pc, r3, lsl #1]
10005f72:	011c      	.short	0x011c
10005f74:	008c008c 	.word	0x008c008c
10005f78:	008c008c 	.word	0x008c008c
10005f7c:	008c008c 	.word	0x008c008c
10005f80:	008c008c 	.word	0x008c008c
10005f84:	008c008c 	.word	0x008c008c
10005f88:	008c008c 	.word	0x008c008c
10005f8c:	008c008c 	.word	0x008c008c
10005f90:	008c008c 	.word	0x008c008c
10005f94:	008c008c 	.word	0x008c008c
10005f98:	008c008c 	.word	0x008c008c
10005f9c:	008c008c 	.word	0x008c008c
10005fa0:	008c008c 	.word	0x008c008c
10005fa4:	008c008c 	.word	0x008c008c
10005fa8:	008c008c 	.word	0x008c008c
10005fac:	008c008c 	.word	0x008c008c
10005fb0:	01c5008c 	.word	0x01c5008c
10005fb4:	01c50102 	.word	0x01c50102
10005fb8:	008c008c 	.word	0x008c008c
10005fbc:	008c008c 	.word	0x008c008c
10005fc0:	008c008c 	.word	0x008c008c
10005fc4:	008c008c 	.word	0x008c008c
10005fc8:	008c008c 	.word	0x008c008c
10005fcc:	008c008c 	.word	0x008c008c
10005fd0:	008c008c 	.word	0x008c008c
10005fd4:	008c008c 	.word	0x008c008c
10005fd8:	008c009b 	.word	0x008c009b
10005fdc:	008c008c 	.word	0x008c008c
10005fe0:	008c008c 	.word	0x008c008c
10005fe4:	008c008c 	.word	0x008c008c
10005fe8:	008c008c 	.word	0x008c008c
10005fec:	018e009b 	.word	0x018e009b
10005ff0:	01c5009b 	.word	0x01c5009b
10005ff4:	01c50102 	.word	0x01c50102
10005ff8:	009b008c 	.word	0x009b008c
10005ffc:	008c008c 	.word	0x008c008c
10006000:	008c008c 	.word	0x008c008c
10006004:	009b008c 	.word	0x009b008c
10006008:	008c016e 	.word	0x008c016e
1000600c:	0126008c 	.word	0x0126008c
10006010:	009b008c 	.word	0x009b008c
10006014:	008c008c 	.word	0x008c008c
10006018:	009b      	.short	0x009b
1000601a:	2500      	movs	r5, #0
1000601c:	eb05 0585 	add.w	r5, r5, r5, lsl #2
10006020:	eb00 0545 	add.w	r5, r0, r5, lsl #1
10006024:	f814 0f01 	ldrb.w	r0, [r4, #1]!
10006028:	3d30      	subs	r5, #48	; 0x30
1000602a:	f1a0 0330 	sub.w	r3, r0, #48	; 0x30
1000602e:	2b09      	cmp	r3, #9
10006030:	d9f4      	bls.n	1000601c <_vsnprintf+0x19c>
10006032:	282e      	cmp	r0, #46	; 0x2e
10006034:	f47f af68 	bne.w	10005f08 <_vsnprintf+0x88>
10006038:	7860      	ldrb	r0, [r4, #1]
1000603a:	f441 6180 	orr.w	r1, r1, #1024	; 0x400
1000603e:	f1a0 0330 	sub.w	r3, r0, #48	; 0x30
10006042:	2b09      	cmp	r3, #9
10006044:	f104 0201 	add.w	r2, r4, #1
10006048:	f240 813f 	bls.w	100062ca <_vsnprintf+0x44a>
1000604c:	282a      	cmp	r0, #42	; 0x2a
1000604e:	f000 814b 	beq.w	100062e8 <_vsnprintf+0x468>
10006052:	4614      	mov	r4, r2
10006054:	e758      	b.n	10005f08 <_vsnprintf+0x88>
10006056:	4654      	mov	r4, sl
10006058:	45d0      	cmp	r8, sl
1000605a:	d801      	bhi.n	10006060 <_vsnprintf+0x1e0>
1000605c:	f108 3aff 	add.w	sl, r8, #4294967295
10006060:	4643      	mov	r3, r8
10006062:	4652      	mov	r2, sl
10006064:	4639      	mov	r1, r7
10006066:	2000      	movs	r0, #0
10006068:	47d8      	blx	fp
1000606a:	4620      	mov	r0, r4
1000606c:	b01b      	add	sp, #108	; 0x6c
1000606e:	e8bd 8ff0 	ldmia.w	sp!, {r4, r5, r6, r7, r8, r9, sl, fp, pc}
10006072:	9b09      	ldr	r3, [sp, #36]	; 0x24
10006074:	7860      	ldrb	r0, [r4, #1]
10006076:	f853 5b04 	ldr.w	r5, [r3], #4
1000607a:	3401      	adds	r4, #1
1000607c:	2d00      	cmp	r5, #0
1000607e:	bfbc      	itt	lt
10006080:	f041 0102 	orrlt.w	r1, r1, #2
10006084:	426d      	neglt	r5, r5
10006086:	9309      	str	r3, [sp, #36]	; 0x24
10006088:	e73b      	b.n	10005f02 <_vsnprintf+0x82>
1000608a:	4652      	mov	r2, sl
1000608c:	4643      	mov	r3, r8
1000608e:	4639      	mov	r1, r7
10006090:	3401      	adds	r4, #1
10006092:	f10a 0a01 	add.w	sl, sl, #1
10006096:	47d8      	blx	fp
10006098:	e710      	b.n	10005ebc <_vsnprintf+0x3c>
1000609a:	bf00      	nop
1000609c:	10005e81 	.word	0x10005e81
100060a0:	20001eec 	.word	0x20001eec
100060a4:	100053bd 	.word	0x100053bd
100060a8:	2878      	cmp	r0, #120	; 0x78
100060aa:	f000 817a 	beq.w	100063a2 <_vsnprintf+0x522>
100060ae:	2858      	cmp	r0, #88	; 0x58
100060b0:	f000 81c0 	beq.w	10006434 <_vsnprintf+0x5b4>
100060b4:	286f      	cmp	r0, #111	; 0x6f
100060b6:	f000 820e 	beq.w	100064d6 <_vsnprintf+0x656>
100060ba:	2862      	cmp	r0, #98	; 0x62
100060bc:	f000 836a 	beq.w	10006794 <_vsnprintf+0x914>
100060c0:	f021 0310 	bic.w	r3, r1, #16
100060c4:	2869      	cmp	r0, #105	; 0x69
100060c6:	f04f 090a 	mov.w	r9, #10
100060ca:	930b      	str	r3, [sp, #44]	; 0x2c
100060cc:	f040 8206 	bne.w	100064dc <_vsnprintf+0x65c>
100060d0:	0549      	lsls	r1, r1, #21
100060d2:	f100 816d 	bmi.w	100063b0 <_vsnprintf+0x530>
100060d6:	9b0b      	ldr	r3, [sp, #44]	; 0x2c
100060d8:	f413 7000 	ands.w	r0, r3, #512	; 0x200
100060dc:	f040 8208 	bne.w	100064f0 <_vsnprintf+0x670>
100060e0:	f413 7180 	ands.w	r1, r3, #256	; 0x100
100060e4:	f040 82e3 	bne.w	100066ae <_vsnprintf+0x82e>
100060e8:	065e      	lsls	r6, r3, #25
100060ea:	9a09      	ldr	r2, [sp, #36]	; 0x24
100060ec:	f100 8249 	bmi.w	10006582 <_vsnprintf+0x702>
100060f0:	f013 0f80 	tst.w	r3, #128	; 0x80
100060f4:	f852 3b04 	ldr.w	r3, [r2], #4
100060f8:	f000 8397 	beq.w	1000682a <_vsnprintf+0x9aa>
100060fc:	b21b      	sxth	r3, r3
100060fe:	9209      	str	r2, [sp, #36]	; 0x24
10006100:	ea83 72e3 	eor.w	r2, r3, r3, asr #31
10006104:	eba2 72e3 	sub.w	r2, r2, r3, asr #31
10006108:	b292      	uxth	r2, r2
1000610a:	0fd8      	lsrs	r0, r3, #31
1000610c:	900d      	str	r0, [sp, #52]	; 0x34
1000610e:	2b00      	cmp	r3, #0
10006110:	f040 8265 	bne.w	100065de <_vsnprintf+0x75e>
10006114:	980b      	ldr	r0, [sp, #44]	; 0x2c
10006116:	f020 0310 	bic.w	r3, r0, #16
1000611a:	0540      	lsls	r0, r0, #21
1000611c:	930b      	str	r3, [sp, #44]	; 0x2c
1000611e:	f140 825e 	bpl.w	100065de <_vsnprintf+0x75e>
10006122:	ab12      	add	r3, sp, #72	; 0x48
10006124:	930c      	str	r3, [sp, #48]	; 0x30
10006126:	4652      	mov	r2, sl
10006128:	9b0b      	ldr	r3, [sp, #44]	; 0x2c
1000612a:	e9cd 5305 	strd	r5, r3, [sp, #20]
1000612e:	9b0a      	ldr	r3, [sp, #40]	; 0x28
10006130:	e9cd 9303 	strd	r9, r3, [sp, #12]
10006134:	9b0d      	ldr	r3, [sp, #52]	; 0x34
10006136:	e9cd 1301 	strd	r1, r3, [sp, #4]
1000613a:	9b0c      	ldr	r3, [sp, #48]	; 0x30
1000613c:	9300      	str	r3, [sp, #0]
1000613e:	4643      	mov	r3, r8
10006140:	4639      	mov	r1, r7
10006142:	4658      	mov	r0, fp
10006144:	f7ff f980 	bl	10005448 <_ntoa_format>
10006148:	4682      	mov	sl, r0
1000614a:	e07e      	b.n	1000624a <_vsnprintf+0x3ca>
1000614c:	7860      	ldrb	r0, [r4, #1]
1000614e:	f441 7100 	orr.w	r1, r1, #512	; 0x200
10006152:	3401      	adds	r4, #1
10006154:	e706      	b.n	10005f64 <_vsnprintf+0xe4>
10006156:	7860      	ldrb	r0, [r4, #1]
10006158:	2868      	cmp	r0, #104	; 0x68
1000615a:	f000 8163 	beq.w	10006424 <_vsnprintf+0x5a4>
1000615e:	f041 0180 	orr.w	r1, r1, #128	; 0x80
10006162:	3401      	adds	r4, #1
10006164:	e6fe      	b.n	10005f64 <_vsnprintf+0xe4>
10006166:	7860      	ldrb	r0, [r4, #1]
10006168:	286c      	cmp	r0, #108	; 0x6c
1000616a:	f000 8156 	beq.w	1000641a <_vsnprintf+0x59a>
1000616e:	f441 7180 	orr.w	r1, r1, #256	; 0x100
10006172:	3401      	adds	r4, #1
10006174:	e6f6      	b.n	10005f64 <_vsnprintf+0xe4>
10006176:	9b0a      	ldr	r3, [sp, #40]	; 0x28
10006178:	2846      	cmp	r0, #70	; 0x46
1000617a:	bf08      	it	eq
1000617c:	f041 0120 	orreq.w	r1, r1, #32
10006180:	9302      	str	r3, [sp, #8]
10006182:	9b09      	ldr	r3, [sp, #36]	; 0x24
10006184:	e9cd 5103 	strd	r5, r1, [sp, #12]
10006188:	3307      	adds	r3, #7
1000618a:	f023 0507 	bic.w	r5, r3, #7
1000618e:	ecb5 7b02 	vldmia	r5!, {d7}
10006192:	4652      	mov	r2, sl
10006194:	4643      	mov	r3, r8
10006196:	4639      	mov	r1, r7
10006198:	4658      	mov	r0, fp
1000619a:	ed8d 7b00 	vstr	d7, [sp]
1000619e:	9509      	str	r5, [sp, #36]	; 0x24
100061a0:	f7ff fc82 	bl	10005aa8 <_ftoa>
100061a4:	3401      	adds	r4, #1
100061a6:	4682      	mov	sl, r0
100061a8:	e688      	b.n	10005ebc <_vsnprintf+0x3c>
100061aa:	f10a 0001 	add.w	r0, sl, #1
100061ae:	4652      	mov	r2, sl
100061b0:	4643      	mov	r3, r8
100061b2:	4682      	mov	sl, r0
100061b4:	4639      	mov	r1, r7
100061b6:	2025      	movs	r0, #37	; 0x25
100061b8:	3401      	adds	r4, #1
100061ba:	47d8      	blx	fp
100061bc:	e67e      	b.n	10005ebc <_vsnprintf+0x3c>
100061be:	9b09      	ldr	r3, [sp, #36]	; 0x24
100061c0:	f853 6b04 	ldr.w	r6, [r3], #4
100061c4:	930d      	str	r3, [sp, #52]	; 0x34
100061c6:	9b0a      	ldr	r3, [sp, #40]	; 0x28
100061c8:	7830      	ldrb	r0, [r6, #0]
100061ca:	2b00      	cmp	r3, #0
100061cc:	f000 80d8 	beq.w	10006380 <_vsnprintf+0x500>
100061d0:	2800      	cmp	r0, #0
100061d2:	f000 8332 	beq.w	1000683a <_vsnprintf+0x9ba>
100061d6:	1e5a      	subs	r2, r3, #1
100061d8:	3201      	adds	r2, #1
100061da:	46b1      	mov	r9, r6
100061dc:	4432      	add	r2, r6
100061de:	e001      	b.n	100061e4 <_vsnprintf+0x364>
100061e0:	4591      	cmp	r9, r2
100061e2:	d003      	beq.n	100061ec <_vsnprintf+0x36c>
100061e4:	f819 3f01 	ldrb.w	r3, [r9, #1]!
100061e8:	2b00      	cmp	r3, #0
100061ea:	d1f9      	bne.n	100061e0 <_vsnprintf+0x360>
100061ec:	eba9 0306 	sub.w	r3, r9, r6
100061f0:	9309      	str	r3, [sp, #36]	; 0x24
100061f2:	f411 6380 	ands.w	r3, r1, #1024	; 0x400
100061f6:	930b      	str	r3, [sp, #44]	; 0x2c
100061f8:	d005      	beq.n	10006206 <_vsnprintf+0x386>
100061fa:	e9dd 3209 	ldrd	r3, r2, [sp, #36]	; 0x24
100061fe:	4293      	cmp	r3, r2
10006200:	bf28      	it	cs
10006202:	4613      	movcs	r3, r2
10006204:	9309      	str	r3, [sp, #36]	; 0x24
10006206:	f011 0302 	ands.w	r3, r1, #2
1000620a:	930c      	str	r3, [sp, #48]	; 0x30
1000620c:	f000 8149 	beq.w	100064a2 <_vsnprintf+0x622>
10006210:	2800      	cmp	r0, #0
10006212:	f000 8134 	beq.w	1000647e <_vsnprintf+0x5fe>
10006216:	9b0b      	ldr	r3, [sp, #44]	; 0x2c
10006218:	2b00      	cmp	r3, #0
1000621a:	f000 80b7 	beq.w	1000638c <_vsnprintf+0x50c>
1000621e:	9b0a      	ldr	r3, [sp, #40]	; 0x28
10006220:	4652      	mov	r2, sl
10006222:	4453      	add	r3, sl
10006224:	4699      	mov	r9, r3
10006226:	e008      	b.n	1000623a <_vsnprintf+0x3ba>
10006228:	4643      	mov	r3, r8
1000622a:	4639      	mov	r1, r7
1000622c:	47d8      	blx	fp
1000622e:	f816 0f01 	ldrb.w	r0, [r6, #1]!
10006232:	f10a 0a01 	add.w	sl, sl, #1
10006236:	b110      	cbz	r0, 1000623e <_vsnprintf+0x3be>
10006238:	4652      	mov	r2, sl
1000623a:	45d1      	cmp	r9, sl
1000623c:	d1f4      	bne.n	10006228 <_vsnprintf+0x3a8>
1000623e:	9b0c      	ldr	r3, [sp, #48]	; 0x30
10006240:	2b00      	cmp	r3, #0
10006242:	f040 811c 	bne.w	1000647e <_vsnprintf+0x5fe>
10006246:	9b0d      	ldr	r3, [sp, #52]	; 0x34
10006248:	9309      	str	r3, [sp, #36]	; 0x24
1000624a:	3401      	adds	r4, #1
1000624c:	e636      	b.n	10005ebc <_vsnprintf+0x3c>
1000624e:	9809      	ldr	r0, [sp, #36]	; 0x24
10006250:	f850 3b04 	ldr.w	r3, [r0], #4
10006254:	2b00      	cmp	r3, #0
10006256:	d074      	beq.n	10006342 <_vsnprintf+0x4c2>
10006258:	f041 0521 	orr.w	r5, r1, #33	; 0x21
1000625c:	aa12      	add	r2, sp, #72	; 0x48
1000625e:	4616      	mov	r6, r2
10006260:	2100      	movs	r1, #0
10006262:	920c      	str	r2, [sp, #48]	; 0x30
10006264:	e002      	b.n	1000626c <_vsnprintf+0x3ec>
10006266:	2920      	cmp	r1, #32
10006268:	d074      	beq.n	10006354 <_vsnprintf+0x4d4>
1000626a:	4613      	mov	r3, r2
1000626c:	f003 0c0f 	and.w	ip, r3, #15
10006270:	4662      	mov	r2, ip
10006272:	f1bc 0f09 	cmp.w	ip, #9
10006276:	bf94      	ite	ls
10006278:	3230      	addls	r2, #48	; 0x30
1000627a:	3237      	addhi	r2, #55	; 0x37
1000627c:	2b0f      	cmp	r3, #15
1000627e:	f806 2b01 	strb.w	r2, [r6], #1
10006282:	f101 0101 	add.w	r1, r1, #1
10006286:	ea4f 1213 	mov.w	r2, r3, lsr #4
1000628a:	d8ec      	bhi.n	10006266 <_vsnprintf+0x3e6>
1000628c:	e062      	b.n	10006354 <_vsnprintf+0x4d4>
1000628e:	078b      	lsls	r3, r1, #30
10006290:	f140 80da 	bpl.w	10006448 <_vsnprintf+0x5c8>
10006294:	f8dd 9024 	ldr.w	r9, [sp, #36]	; 0x24
10006298:	4652      	mov	r2, sl
1000629a:	f859 0b04 	ldr.w	r0, [r9], #4
1000629e:	4643      	mov	r3, r8
100062a0:	4639      	mov	r1, r7
100062a2:	b2c0      	uxtb	r0, r0
100062a4:	47d8      	blx	fp
100062a6:	2d01      	cmp	r5, #1
100062a8:	f10a 0601 	add.w	r6, sl, #1
100062ac:	bf88      	it	hi
100062ae:	44aa      	addhi	sl, r5
100062b0:	f240 8191 	bls.w	100065d6 <_vsnprintf+0x756>
100062b4:	4632      	mov	r2, r6
100062b6:	4643      	mov	r3, r8
100062b8:	4639      	mov	r1, r7
100062ba:	2020      	movs	r0, #32
100062bc:	3601      	adds	r6, #1
100062be:	47d8      	blx	fp
100062c0:	4556      	cmp	r6, sl
100062c2:	d1f7      	bne.n	100062b4 <_vsnprintf+0x434>
100062c4:	f8cd 9024 	str.w	r9, [sp, #36]	; 0x24
100062c8:	e7bf      	b.n	1000624a <_vsnprintf+0x3ca>
100062ca:	2300      	movs	r3, #0
100062cc:	eb03 0383 	add.w	r3, r3, r3, lsl #2
100062d0:	eb00 0343 	add.w	r3, r0, r3, lsl #1
100062d4:	f812 0f01 	ldrb.w	r0, [r2, #1]!
100062d8:	3b30      	subs	r3, #48	; 0x30
100062da:	f1a0 0430 	sub.w	r4, r0, #48	; 0x30
100062de:	2c09      	cmp	r4, #9
100062e0:	d9f4      	bls.n	100062cc <_vsnprintf+0x44c>
100062e2:	4614      	mov	r4, r2
100062e4:	930a      	str	r3, [sp, #40]	; 0x28
100062e6:	e611      	b.n	10005f0c <_vsnprintf+0x8c>
100062e8:	9b09      	ldr	r3, [sp, #36]	; 0x24
100062ea:	78a0      	ldrb	r0, [r4, #2]
100062ec:	f853 2b04 	ldr.w	r2, [r3], #4
100062f0:	3402      	adds	r4, #2
100062f2:	9309      	str	r3, [sp, #36]	; 0x24
100062f4:	ea22 73e2 	bic.w	r3, r2, r2, asr #31
100062f8:	930a      	str	r3, [sp, #40]	; 0x28
100062fa:	e607      	b.n	10005f0c <_vsnprintf+0x8c>
100062fc:	f000 03df 	and.w	r3, r0, #223	; 0xdf
10006300:	2b47      	cmp	r3, #71	; 0x47
10006302:	bf08      	it	eq
10006304:	f000 00fd 	andeq.w	r0, r0, #253	; 0xfd
10006308:	9b0a      	ldr	r3, [sp, #40]	; 0x28
1000630a:	bf08      	it	eq
1000630c:	f441 6100 	orreq.w	r1, r1, #2048	; 0x800
10006310:	2845      	cmp	r0, #69	; 0x45
10006312:	bf08      	it	eq
10006314:	f041 0120 	orreq.w	r1, r1, #32
10006318:	9302      	str	r3, [sp, #8]
1000631a:	9b09      	ldr	r3, [sp, #36]	; 0x24
1000631c:	e9cd 5103 	strd	r5, r1, [sp, #12]
10006320:	3307      	adds	r3, #7
10006322:	f023 0507 	bic.w	r5, r3, #7
10006326:	ecb5 7b02 	vldmia	r5!, {d7}
1000632a:	4652      	mov	r2, sl
1000632c:	4643      	mov	r3, r8
1000632e:	4639      	mov	r1, r7
10006330:	4658      	mov	r0, fp
10006332:	ed8d 7b00 	vstr	d7, [sp]
10006336:	9509      	str	r5, [sp, #36]	; 0x24
10006338:	f7ff f986 	bl	10005648 <_etoa>
1000633c:	3401      	adds	r4, #1
1000633e:	4682      	mov	sl, r0
10006340:	e5bc      	b.n	10005ebc <_vsnprintf+0x3c>
10006342:	f021 0510 	bic.w	r5, r1, #16
10006346:	054e      	lsls	r6, r1, #21
10006348:	f045 0521 	orr.w	r5, r5, #33	; 0x21
1000634c:	d586      	bpl.n	1000625c <_vsnprintf+0x3dc>
1000634e:	4619      	mov	r1, r3
10006350:	ab12      	add	r3, sp, #72	; 0x48
10006352:	930c      	str	r3, [sp, #48]	; 0x30
10006354:	9b0a      	ldr	r3, [sp, #40]	; 0x28
10006356:	4652      	mov	r2, sl
10006358:	9304      	str	r3, [sp, #16]
1000635a:	9b0c      	ldr	r3, [sp, #48]	; 0x30
1000635c:	9101      	str	r1, [sp, #4]
1000635e:	9300      	str	r3, [sp, #0]
10006360:	2308      	movs	r3, #8
10006362:	9305      	str	r3, [sp, #20]
10006364:	2310      	movs	r3, #16
10006366:	9303      	str	r3, [sp, #12]
10006368:	2300      	movs	r3, #0
1000636a:	9009      	str	r0, [sp, #36]	; 0x24
1000636c:	9302      	str	r3, [sp, #8]
1000636e:	4639      	mov	r1, r7
10006370:	4643      	mov	r3, r8
10006372:	4658      	mov	r0, fp
10006374:	9506      	str	r5, [sp, #24]
10006376:	f7ff f867 	bl	10005448 <_ntoa_format>
1000637a:	3401      	adds	r4, #1
1000637c:	4682      	mov	sl, r0
1000637e:	e59d      	b.n	10005ebc <_vsnprintf+0x3c>
10006380:	f06f 0201 	mvn.w	r2, #1
10006384:	2800      	cmp	r0, #0
10006386:	f47f af27 	bne.w	100061d8 <_vsnprintf+0x358>
1000638a:	e731      	b.n	100061f0 <_vsnprintf+0x370>
1000638c:	4652      	mov	r2, sl
1000638e:	4643      	mov	r3, r8
10006390:	4639      	mov	r1, r7
10006392:	47d8      	blx	fp
10006394:	f816 0f01 	ldrb.w	r0, [r6, #1]!
10006398:	f10a 0a01 	add.w	sl, sl, #1
1000639c:	2800      	cmp	r0, #0
1000639e:	d1f5      	bne.n	1000638c <_vsnprintf+0x50c>
100063a0:	e74d      	b.n	1000623e <_vsnprintf+0x3be>
100063a2:	f04f 0910 	mov.w	r9, #16
100063a6:	f021 030c 	bic.w	r3, r1, #12
100063aa:	0549      	lsls	r1, r1, #21
100063ac:	930b      	str	r3, [sp, #44]	; 0x2c
100063ae:	d503      	bpl.n	100063b8 <_vsnprintf+0x538>
100063b0:	9b0b      	ldr	r3, [sp, #44]	; 0x2c
100063b2:	f023 0301 	bic.w	r3, r3, #1
100063b6:	930b      	str	r3, [sp, #44]	; 0x2c
100063b8:	2869      	cmp	r0, #105	; 0x69
100063ba:	f43f ae8c 	beq.w	100060d6 <_vsnprintf+0x256>
100063be:	2864      	cmp	r0, #100	; 0x64
100063c0:	f43f ae89 	beq.w	100060d6 <_vsnprintf+0x256>
100063c4:	9b0b      	ldr	r3, [sp, #44]	; 0x2c
100063c6:	f413 7000 	ands.w	r0, r3, #512	; 0x200
100063ca:	f040 8152 	bne.w	10006672 <_vsnprintf+0x7f2>
100063ce:	f413 7180 	ands.w	r1, r3, #256	; 0x100
100063d2:	f040 81c6 	bne.w	10006762 <_vsnprintf+0x8e2>
100063d6:	065e      	lsls	r6, r3, #25
100063d8:	f140 80f0 	bpl.w	100065bc <_vsnprintf+0x73c>
100063dc:	9b09      	ldr	r3, [sp, #36]	; 0x24
100063de:	f853 2b04 	ldr.w	r2, [r3], #4
100063e2:	9309      	str	r3, [sp, #36]	; 0x24
100063e4:	b2d2      	uxtb	r2, r2
100063e6:	2a00      	cmp	r2, #0
100063e8:	f040 811e 	bne.w	10006628 <_vsnprintf+0x7a8>
100063ec:	980b      	ldr	r0, [sp, #44]	; 0x2c
100063ee:	f020 0310 	bic.w	r3, r0, #16
100063f2:	0540      	lsls	r0, r0, #21
100063f4:	930b      	str	r3, [sp, #44]	; 0x2c
100063f6:	f140 8117 	bpl.w	10006628 <_vsnprintf+0x7a8>
100063fa:	4611      	mov	r1, r2
100063fc:	ab12      	add	r3, sp, #72	; 0x48
100063fe:	930c      	str	r3, [sp, #48]	; 0x30
10006400:	9b0b      	ldr	r3, [sp, #44]	; 0x2c
10006402:	9101      	str	r1, [sp, #4]
10006404:	e9cd 5305 	strd	r5, r3, [sp, #20]
10006408:	9b0a      	ldr	r3, [sp, #40]	; 0x28
1000640a:	e9cd 9303 	strd	r9, r3, [sp, #12]
1000640e:	4652      	mov	r2, sl
10006410:	9b0c      	ldr	r3, [sp, #48]	; 0x30
10006412:	9300      	str	r3, [sp, #0]
10006414:	2300      	movs	r3, #0
10006416:	9302      	str	r3, [sp, #8]
10006418:	e691      	b.n	1000613e <_vsnprintf+0x2be>
1000641a:	78a0      	ldrb	r0, [r4, #2]
1000641c:	f441 7140 	orr.w	r1, r1, #768	; 0x300
10006420:	3402      	adds	r4, #2
10006422:	e59f      	b.n	10005f64 <_vsnprintf+0xe4>
10006424:	78a0      	ldrb	r0, [r4, #2]
10006426:	f041 01c0 	orr.w	r1, r1, #192	; 0xc0
1000642a:	3402      	adds	r4, #2
1000642c:	e59a      	b.n	10005f64 <_vsnprintf+0xe4>
1000642e:	4604      	mov	r4, r0
10006430:	4682      	mov	sl, r0
10006432:	e611      	b.n	10006058 <_vsnprintf+0x1d8>
10006434:	f021 030c 	bic.w	r3, r1, #12
10006438:	f043 0320 	orr.w	r3, r3, #32
1000643c:	930b      	str	r3, [sp, #44]	; 0x2c
1000643e:	054b      	lsls	r3, r1, #21
10006440:	f04f 0910 	mov.w	r9, #16
10006444:	d4b4      	bmi.n	100063b0 <_vsnprintf+0x530>
10006446:	e7bd      	b.n	100063c4 <_vsnprintf+0x544>
10006448:	2d01      	cmp	r5, #1
1000644a:	f240 81f4 	bls.w	10006836 <_vsnprintf+0x9b6>
1000644e:	f10a 33ff 	add.w	r3, sl, #4294967295
10006452:	441d      	add	r5, r3
10006454:	4652      	mov	r2, sl
10006456:	4643      	mov	r3, r8
10006458:	4639      	mov	r1, r7
1000645a:	2020      	movs	r0, #32
1000645c:	f10a 0a01 	add.w	sl, sl, #1
10006460:	47d8      	blx	fp
10006462:	45aa      	cmp	sl, r5
10006464:	d1f6      	bne.n	10006454 <_vsnprintf+0x5d4>
10006466:	9e09      	ldr	r6, [sp, #36]	; 0x24
10006468:	4643      	mov	r3, r8
1000646a:	f856 0b04 	ldr.w	r0, [r6], #4
1000646e:	462a      	mov	r2, r5
10006470:	4639      	mov	r1, r7
10006472:	b2c0      	uxtb	r0, r0
10006474:	47d8      	blx	fp
10006476:	f105 0a01 	add.w	sl, r5, #1
1000647a:	9609      	str	r6, [sp, #36]	; 0x24
1000647c:	e6e5      	b.n	1000624a <_vsnprintf+0x3ca>
1000647e:	9b09      	ldr	r3, [sp, #36]	; 0x24
10006480:	4656      	mov	r6, sl
10006482:	429d      	cmp	r5, r3
10006484:	f67f aedf 	bls.w	10006246 <_vsnprintf+0x3c6>
10006488:	eb05 000a 	add.w	r0, r5, sl
1000648c:	eba0 0a03 	sub.w	sl, r0, r3
10006490:	4632      	mov	r2, r6
10006492:	4643      	mov	r3, r8
10006494:	4639      	mov	r1, r7
10006496:	2020      	movs	r0, #32
10006498:	3601      	adds	r6, #1
1000649a:	47d8      	blx	fp
1000649c:	4556      	cmp	r6, sl
1000649e:	d1f7      	bne.n	10006490 <_vsnprintf+0x610>
100064a0:	e6d1      	b.n	10006246 <_vsnprintf+0x3c6>
100064a2:	9a09      	ldr	r2, [sp, #36]	; 0x24
100064a4:	4295      	cmp	r5, r2
100064a6:	f102 0301 	add.w	r3, r2, #1
100064aa:	f240 81c8 	bls.w	1000683e <_vsnprintf+0x9be>
100064ae:	eb05 090a 	add.w	r9, r5, sl
100064b2:	eba9 0902 	sub.w	r9, r9, r2
100064b6:	4652      	mov	r2, sl
100064b8:	4643      	mov	r3, r8
100064ba:	4639      	mov	r1, r7
100064bc:	2020      	movs	r0, #32
100064be:	f10a 0a01 	add.w	sl, sl, #1
100064c2:	47d8      	blx	fp
100064c4:	45ca      	cmp	sl, r9
100064c6:	d1f6      	bne.n	100064b6 <_vsnprintf+0x636>
100064c8:	7830      	ldrb	r0, [r6, #0]
100064ca:	1c6b      	adds	r3, r5, #1
100064cc:	9309      	str	r3, [sp, #36]	; 0x24
100064ce:	2800      	cmp	r0, #0
100064d0:	f47f aea1 	bne.w	10006216 <_vsnprintf+0x396>
100064d4:	e6b7      	b.n	10006246 <_vsnprintf+0x3c6>
100064d6:	f04f 0908 	mov.w	r9, #8
100064da:	910b      	str	r1, [sp, #44]	; 0x2c
100064dc:	2864      	cmp	r0, #100	; 0x64
100064de:	bf18      	it	ne
100064e0:	990b      	ldrne	r1, [sp, #44]	; 0x2c
100064e2:	f47f af60 	bne.w	100063a6 <_vsnprintf+0x526>
100064e6:	9b0b      	ldr	r3, [sp, #44]	; 0x2c
100064e8:	055a      	lsls	r2, r3, #21
100064ea:	f53f af61 	bmi.w	100063b0 <_vsnprintf+0x530>
100064ee:	e5f2      	b.n	100060d6 <_vsnprintf+0x256>
100064f0:	9b09      	ldr	r3, [sp, #36]	; 0x24
100064f2:	3307      	adds	r3, #7
100064f4:	f023 0307 	bic.w	r3, r3, #7
100064f8:	461a      	mov	r2, r3
100064fa:	4610      	mov	r0, r2
100064fc:	685b      	ldr	r3, [r3, #4]
100064fe:	f850 2b08 	ldr.w	r2, [r0], #8
10006502:	2b00      	cmp	r3, #0
10006504:	4619      	mov	r1, r3
10006506:	4616      	mov	r6, r2
10006508:	9009      	str	r0, [sp, #36]	; 0x24
1000650a:	db60      	blt.n	100065ce <_vsnprintf+0x74e>
1000650c:	4608      	mov	r0, r1
1000650e:	0fd9      	lsrs	r1, r3, #31
10006510:	4313      	orrs	r3, r2
10006512:	910d      	str	r1, [sp, #52]	; 0x34
10006514:	d03b      	beq.n	1000658e <_vsnprintf+0x70e>
10006516:	9b0b      	ldr	r3, [sp, #44]	; 0x2c
10006518:	2100      	movs	r1, #0
1000651a:	f013 0f20 	tst.w	r3, #32
1000651e:	bf14      	ite	ne
10006520:	2341      	movne	r3, #65	; 0x41
10006522:	2361      	moveq	r3, #97	; 0x61
10006524:	aa12      	add	r2, sp, #72	; 0x48
10006526:	3b0a      	subs	r3, #10
10006528:	e9cd a50e 	strd	sl, r5, [sp, #56]	; 0x38
1000652c:	9410      	str	r4, [sp, #64]	; 0x40
1000652e:	f8cd b044 	str.w	fp, [sp, #68]	; 0x44
10006532:	460d      	mov	r5, r1
10006534:	4614      	mov	r4, r2
10006536:	4682      	mov	sl, r0
10006538:	469b      	mov	fp, r3
1000653a:	920c      	str	r2, [sp, #48]	; 0x30
1000653c:	e003      	b.n	10006546 <_vsnprintf+0x6c6>
1000653e:	2d20      	cmp	r5, #32
10006540:	d017      	beq.n	10006572 <_vsnprintf+0x6f2>
10006542:	4606      	mov	r6, r0
10006544:	468a      	mov	sl, r1
10006546:	4630      	mov	r0, r6
10006548:	464a      	mov	r2, r9
1000654a:	4651      	mov	r1, sl
1000654c:	2300      	movs	r3, #0
1000654e:	f003 f853 	bl	100095f8 <____aeabi_uldivmod_veneer>
10006552:	b2d2      	uxtb	r2, r2
10006554:	2a09      	cmp	r2, #9
10006556:	f102 0330 	add.w	r3, r2, #48	; 0x30
1000655a:	bf88      	it	hi
1000655c:	eb02 030b 	addhi.w	r3, r2, fp
10006560:	b2db      	uxtb	r3, r3
10006562:	454e      	cmp	r6, r9
10006564:	f804 3b01 	strb.w	r3, [r4], #1
10006568:	f17a 0300 	sbcs.w	r3, sl, #0
1000656c:	f105 0501 	add.w	r5, r5, #1
10006570:	d2e5      	bcs.n	1000653e <_vsnprintf+0x6be>
10006572:	462a      	mov	r2, r5
10006574:	f8dd a038 	ldr.w	sl, [sp, #56]	; 0x38
10006578:	9c10      	ldr	r4, [sp, #64]	; 0x40
1000657a:	9d0f      	ldr	r5, [sp, #60]	; 0x3c
1000657c:	f8dd b044 	ldr.w	fp, [sp, #68]	; 0x44
10006580:	e00f      	b.n	100065a2 <_vsnprintf+0x722>
10006582:	f852 3b04 	ldr.w	r3, [r2], #4
10006586:	b2db      	uxtb	r3, r3
10006588:	9209      	str	r2, [sp, #36]	; 0x24
1000658a:	461a      	mov	r2, r3
1000658c:	e5bd      	b.n	1000610a <_vsnprintf+0x28a>
1000658e:	9a0b      	ldr	r2, [sp, #44]	; 0x2c
10006590:	f022 0310 	bic.w	r3, r2, #16
10006594:	0552      	lsls	r2, r2, #21
10006596:	930b      	str	r3, [sp, #44]	; 0x2c
10006598:	d5bd      	bpl.n	10006516 <_vsnprintf+0x696>
1000659a:	2300      	movs	r3, #0
1000659c:	461a      	mov	r2, r3
1000659e:	ab12      	add	r3, sp, #72	; 0x48
100065a0:	930c      	str	r3, [sp, #48]	; 0x30
100065a2:	9b0b      	ldr	r3, [sp, #44]	; 0x2c
100065a4:	9201      	str	r2, [sp, #4]
100065a6:	e9cd 5305 	strd	r5, r3, [sp, #20]
100065aa:	9b0a      	ldr	r3, [sp, #40]	; 0x28
100065ac:	4652      	mov	r2, sl
100065ae:	e9cd 9303 	strd	r9, r3, [sp, #12]
100065b2:	9b0d      	ldr	r3, [sp, #52]	; 0x34
100065b4:	9302      	str	r3, [sp, #8]
100065b6:	9b0c      	ldr	r3, [sp, #48]	; 0x30
100065b8:	9300      	str	r3, [sp, #0]
100065ba:	e5c0      	b.n	1000613e <_vsnprintf+0x2be>
100065bc:	f013 0f80 	tst.w	r3, #128	; 0x80
100065c0:	9b09      	ldr	r3, [sp, #36]	; 0x24
100065c2:	f853 2b04 	ldr.w	r2, [r3], #4
100065c6:	9309      	str	r3, [sp, #36]	; 0x24
100065c8:	bf18      	it	ne
100065ca:	b292      	uxthne	r2, r2
100065cc:	e70b      	b.n	100063e6 <_vsnprintf+0x566>
100065ce:	4256      	negs	r6, r2
100065d0:	eb63 0143 	sbc.w	r1, r3, r3, lsl #1
100065d4:	e79a      	b.n	1000650c <_vsnprintf+0x68c>
100065d6:	46b2      	mov	sl, r6
100065d8:	f8cd 9024 	str.w	r9, [sp, #36]	; 0x24
100065dc:	e635      	b.n	1000624a <_vsnprintf+0x3ca>
100065de:	9b0b      	ldr	r3, [sp, #44]	; 0x2c
100065e0:	f013 0f20 	tst.w	r3, #32
100065e4:	bf14      	ite	ne
100065e6:	f04f 0e41 	movne.w	lr, #65	; 0x41
100065ea:	f04f 0e61 	moveq.w	lr, #97	; 0x61
100065ee:	ab12      	add	r3, sp, #72	; 0x48
100065f0:	469c      	mov	ip, r3
100065f2:	930c      	str	r3, [sp, #48]	; 0x30
100065f4:	f1ae 0e0a 	sub.w	lr, lr, #10
100065f8:	e003      	b.n	10006602 <_vsnprintf+0x782>
100065fa:	2920      	cmp	r1, #32
100065fc:	f43f ad93 	beq.w	10006126 <_vsnprintf+0x2a6>
10006600:	4632      	mov	r2, r6
10006602:	fbb2 f6f9 	udiv	r6, r2, r9
10006606:	fb09 2016 	mls	r0, r9, r6, r2
1000660a:	b2c3      	uxtb	r3, r0
1000660c:	2809      	cmp	r0, #9
1000660e:	f103 0030 	add.w	r0, r3, #48	; 0x30
10006612:	bf8a      	itet	hi
10006614:	4473      	addhi	r3, lr
10006616:	b2c3      	uxtbls	r3, r0
10006618:	b2db      	uxtbhi	r3, r3
1000661a:	454a      	cmp	r2, r9
1000661c:	f80c 3b01 	strb.w	r3, [ip], #1
10006620:	f101 0101 	add.w	r1, r1, #1
10006624:	d2e9      	bcs.n	100065fa <_vsnprintf+0x77a>
10006626:	e57e      	b.n	10006126 <_vsnprintf+0x2a6>
10006628:	9b0b      	ldr	r3, [sp, #44]	; 0x2c
1000662a:	f013 0f20 	tst.w	r3, #32
1000662e:	bf14      	ite	ne
10006630:	f04f 0e41 	movne.w	lr, #65	; 0x41
10006634:	f04f 0e61 	moveq.w	lr, #97	; 0x61
10006638:	ab12      	add	r3, sp, #72	; 0x48
1000663a:	469c      	mov	ip, r3
1000663c:	930c      	str	r3, [sp, #48]	; 0x30
1000663e:	f1ae 0e0a 	sub.w	lr, lr, #10
10006642:	e003      	b.n	1000664c <_vsnprintf+0x7cc>
10006644:	2920      	cmp	r1, #32
10006646:	f43f aedb 	beq.w	10006400 <_vsnprintf+0x580>
1000664a:	4632      	mov	r2, r6
1000664c:	fbb2 f6f9 	udiv	r6, r2, r9
10006650:	fb09 2016 	mls	r0, r9, r6, r2
10006654:	b2c3      	uxtb	r3, r0
10006656:	2809      	cmp	r0, #9
10006658:	f103 0030 	add.w	r0, r3, #48	; 0x30
1000665c:	bf8a      	itet	hi
1000665e:	4473      	addhi	r3, lr
10006660:	b2c3      	uxtbls	r3, r0
10006662:	b2db      	uxtbhi	r3, r3
10006664:	454a      	cmp	r2, r9
10006666:	f80c 3b01 	strb.w	r3, [ip], #1
1000666a:	f101 0101 	add.w	r1, r1, #1
1000666e:	d2e9      	bcs.n	10006644 <_vsnprintf+0x7c4>
10006670:	e6c6      	b.n	10006400 <_vsnprintf+0x580>
10006672:	9b09      	ldr	r3, [sp, #36]	; 0x24
10006674:	3307      	adds	r3, #7
10006676:	f023 0307 	bic.w	r3, r3, #7
1000667a:	685a      	ldr	r2, [r3, #4]
1000667c:	f853 6b08 	ldr.w	r6, [r3], #8
10006680:	4610      	mov	r0, r2
10006682:	9309      	str	r3, [sp, #36]	; 0x24
10006684:	ea56 0302 	orrs.w	r3, r6, r2
10006688:	d135      	bne.n	100066f6 <_vsnprintf+0x876>
1000668a:	9a0b      	ldr	r2, [sp, #44]	; 0x2c
1000668c:	f022 0310 	bic.w	r3, r2, #16
10006690:	0552      	lsls	r2, r2, #21
10006692:	930b      	str	r3, [sp, #44]	; 0x2c
10006694:	d52f      	bpl.n	100066f6 <_vsnprintf+0x876>
10006696:	2300      	movs	r3, #0
10006698:	461a      	mov	r2, r3
1000669a:	ab12      	add	r3, sp, #72	; 0x48
1000669c:	930c      	str	r3, [sp, #48]	; 0x30
1000669e:	9b0b      	ldr	r3, [sp, #44]	; 0x2c
100066a0:	9201      	str	r2, [sp, #4]
100066a2:	e9cd 5305 	strd	r5, r3, [sp, #20]
100066a6:	9b0a      	ldr	r3, [sp, #40]	; 0x28
100066a8:	e9cd 9303 	strd	r9, r3, [sp, #12]
100066ac:	e6af      	b.n	1000640e <_vsnprintf+0x58e>
100066ae:	9b09      	ldr	r3, [sp, #36]	; 0x24
100066b0:	461a      	mov	r2, r3
100066b2:	f852 3b04 	ldr.w	r3, [r2], #4
100066b6:	920d      	str	r2, [sp, #52]	; 0x34
100066b8:	0fd9      	lsrs	r1, r3, #31
100066ba:	ea83 72e3 	eor.w	r2, r3, r3, asr #31
100066be:	eba2 72e3 	sub.w	r2, r2, r3, asr #31
100066c2:	9109      	str	r1, [sp, #36]	; 0x24
100066c4:	2b00      	cmp	r3, #0
100066c6:	d168      	bne.n	1000679a <_vsnprintf+0x91a>
100066c8:	990b      	ldr	r1, [sp, #44]	; 0x2c
100066ca:	f021 0310 	bic.w	r3, r1, #16
100066ce:	930b      	str	r3, [sp, #44]	; 0x2c
100066d0:	054b      	lsls	r3, r1, #21
100066d2:	d562      	bpl.n	1000679a <_vsnprintf+0x91a>
100066d4:	ab12      	add	r3, sp, #72	; 0x48
100066d6:	930c      	str	r3, [sp, #48]	; 0x30
100066d8:	9b0b      	ldr	r3, [sp, #44]	; 0x2c
100066da:	4652      	mov	r2, sl
100066dc:	e9cd 5305 	strd	r5, r3, [sp, #20]
100066e0:	9b0a      	ldr	r3, [sp, #40]	; 0x28
100066e2:	e9cd 9303 	strd	r9, r3, [sp, #12]
100066e6:	9b09      	ldr	r3, [sp, #36]	; 0x24
100066e8:	e9cd 0301 	strd	r0, r3, [sp, #4]
100066ec:	9b0c      	ldr	r3, [sp, #48]	; 0x30
100066ee:	9300      	str	r3, [sp, #0]
100066f0:	9b0d      	ldr	r3, [sp, #52]	; 0x34
100066f2:	9309      	str	r3, [sp, #36]	; 0x24
100066f4:	e523      	b.n	1000613e <_vsnprintf+0x2be>
100066f6:	9b0b      	ldr	r3, [sp, #44]	; 0x2c
100066f8:	2100      	movs	r1, #0
100066fa:	f013 0f20 	tst.w	r3, #32
100066fe:	bf14      	ite	ne
10006700:	2341      	movne	r3, #65	; 0x41
10006702:	2361      	moveq	r3, #97	; 0x61
10006704:	aa12      	add	r2, sp, #72	; 0x48
10006706:	3b0a      	subs	r3, #10
10006708:	e9cd a50d 	strd	sl, r5, [sp, #52]	; 0x34
1000670c:	940f      	str	r4, [sp, #60]	; 0x3c
1000670e:	f8cd b040 	str.w	fp, [sp, #64]	; 0x40
10006712:	460d      	mov	r5, r1
10006714:	4614      	mov	r4, r2
10006716:	4682      	mov	sl, r0
10006718:	469b      	mov	fp, r3
1000671a:	920c      	str	r2, [sp, #48]	; 0x30
1000671c:	e003      	b.n	10006726 <_vsnprintf+0x8a6>
1000671e:	2d20      	cmp	r5, #32
10006720:	d017      	beq.n	10006752 <_vsnprintf+0x8d2>
10006722:	4606      	mov	r6, r0
10006724:	468a      	mov	sl, r1
10006726:	4630      	mov	r0, r6
10006728:	464a      	mov	r2, r9
1000672a:	4651      	mov	r1, sl
1000672c:	2300      	movs	r3, #0
1000672e:	f002 ff63 	bl	100095f8 <____aeabi_uldivmod_veneer>
10006732:	b2d2      	uxtb	r2, r2
10006734:	2a09      	cmp	r2, #9
10006736:	f102 0330 	add.w	r3, r2, #48	; 0x30
1000673a:	bf88      	it	hi
1000673c:	eb02 030b 	addhi.w	r3, r2, fp
10006740:	b2db      	uxtb	r3, r3
10006742:	454e      	cmp	r6, r9
10006744:	f804 3b01 	strb.w	r3, [r4], #1
10006748:	f17a 0300 	sbcs.w	r3, sl, #0
1000674c:	f105 0501 	add.w	r5, r5, #1
10006750:	d2e5      	bcs.n	1000671e <_vsnprintf+0x89e>
10006752:	462a      	mov	r2, r5
10006754:	f8dd a034 	ldr.w	sl, [sp, #52]	; 0x34
10006758:	9c0f      	ldr	r4, [sp, #60]	; 0x3c
1000675a:	9d0e      	ldr	r5, [sp, #56]	; 0x38
1000675c:	f8dd b040 	ldr.w	fp, [sp, #64]	; 0x40
10006760:	e79d      	b.n	1000669e <_vsnprintf+0x81e>
10006762:	9b09      	ldr	r3, [sp, #36]	; 0x24
10006764:	f853 2b04 	ldr.w	r2, [r3], #4
10006768:	9309      	str	r3, [sp, #36]	; 0x24
1000676a:	2a00      	cmp	r2, #0
1000676c:	d139      	bne.n	100067e2 <_vsnprintf+0x962>
1000676e:	990b      	ldr	r1, [sp, #44]	; 0x2c
10006770:	f021 0310 	bic.w	r3, r1, #16
10006774:	930b      	str	r3, [sp, #44]	; 0x2c
10006776:	054b      	lsls	r3, r1, #21
10006778:	d533      	bpl.n	100067e2 <_vsnprintf+0x962>
1000677a:	ab12      	add	r3, sp, #72	; 0x48
1000677c:	930c      	str	r3, [sp, #48]	; 0x30
1000677e:	9b0b      	ldr	r3, [sp, #44]	; 0x2c
10006780:	4652      	mov	r2, sl
10006782:	e9cd 5305 	strd	r5, r3, [sp, #20]
10006786:	9b0a      	ldr	r3, [sp, #40]	; 0x28
10006788:	9001      	str	r0, [sp, #4]
1000678a:	e9cd 9303 	strd	r9, r3, [sp, #12]
1000678e:	9b0c      	ldr	r3, [sp, #48]	; 0x30
10006790:	9300      	str	r3, [sp, #0]
10006792:	e63f      	b.n	10006414 <_vsnprintf+0x594>
10006794:	f04f 0902 	mov.w	r9, #2
10006798:	e69f      	b.n	100064da <_vsnprintf+0x65a>
1000679a:	9b0b      	ldr	r3, [sp, #44]	; 0x2c
1000679c:	f013 0f20 	tst.w	r3, #32
100067a0:	bf14      	ite	ne
100067a2:	f04f 0e41 	movne.w	lr, #65	; 0x41
100067a6:	f04f 0e61 	moveq.w	lr, #97	; 0x61
100067aa:	ab12      	add	r3, sp, #72	; 0x48
100067ac:	469c      	mov	ip, r3
100067ae:	930c      	str	r3, [sp, #48]	; 0x30
100067b0:	f1ae 0e0a 	sub.w	lr, lr, #10
100067b4:	e002      	b.n	100067bc <_vsnprintf+0x93c>
100067b6:	2820      	cmp	r0, #32
100067b8:	d08e      	beq.n	100066d8 <_vsnprintf+0x858>
100067ba:	4632      	mov	r2, r6
100067bc:	fbb2 f6f9 	udiv	r6, r2, r9
100067c0:	fb09 2116 	mls	r1, r9, r6, r2
100067c4:	b2cb      	uxtb	r3, r1
100067c6:	2909      	cmp	r1, #9
100067c8:	f103 0130 	add.w	r1, r3, #48	; 0x30
100067cc:	bf8a      	itet	hi
100067ce:	4473      	addhi	r3, lr
100067d0:	b2cb      	uxtbls	r3, r1
100067d2:	b2db      	uxtbhi	r3, r3
100067d4:	454a      	cmp	r2, r9
100067d6:	f80c 3b01 	strb.w	r3, [ip], #1
100067da:	f100 0001 	add.w	r0, r0, #1
100067de:	d2ea      	bcs.n	100067b6 <_vsnprintf+0x936>
100067e0:	e77a      	b.n	100066d8 <_vsnprintf+0x858>
100067e2:	9b0b      	ldr	r3, [sp, #44]	; 0x2c
100067e4:	f013 0f20 	tst.w	r3, #32
100067e8:	bf14      	ite	ne
100067ea:	f04f 0e41 	movne.w	lr, #65	; 0x41
100067ee:	f04f 0e61 	moveq.w	lr, #97	; 0x61
100067f2:	ab12      	add	r3, sp, #72	; 0x48
100067f4:	469c      	mov	ip, r3
100067f6:	930c      	str	r3, [sp, #48]	; 0x30
100067f8:	f1ae 0e0a 	sub.w	lr, lr, #10
100067fc:	e002      	b.n	10006804 <_vsnprintf+0x984>
100067fe:	2820      	cmp	r0, #32
10006800:	d0bd      	beq.n	1000677e <_vsnprintf+0x8fe>
10006802:	4632      	mov	r2, r6
10006804:	fbb2 f6f9 	udiv	r6, r2, r9
10006808:	fb09 2116 	mls	r1, r9, r6, r2
1000680c:	b2cb      	uxtb	r3, r1
1000680e:	2909      	cmp	r1, #9
10006810:	f103 0130 	add.w	r1, r3, #48	; 0x30
10006814:	bf8a      	itet	hi
10006816:	4473      	addhi	r3, lr
10006818:	b2cb      	uxtbls	r3, r1
1000681a:	b2db      	uxtbhi	r3, r3
1000681c:	454a      	cmp	r2, r9
1000681e:	f80c 3b01 	strb.w	r3, [ip], #1
10006822:	f100 0001 	add.w	r0, r0, #1
10006826:	d2ea      	bcs.n	100067fe <_vsnprintf+0x97e>
10006828:	e7a9      	b.n	1000677e <_vsnprintf+0x8fe>
1000682a:	9209      	str	r2, [sp, #36]	; 0x24
1000682c:	ea83 72e3 	eor.w	r2, r3, r3, asr #31
10006830:	eba2 72e3 	sub.w	r2, r2, r3, asr #31
10006834:	e469      	b.n	1000610a <_vsnprintf+0x28a>
10006836:	4655      	mov	r5, sl
10006838:	e615      	b.n	10006466 <_vsnprintf+0x5e6>
1000683a:	9009      	str	r0, [sp, #36]	; 0x24
1000683c:	e4d9      	b.n	100061f2 <_vsnprintf+0x372>
1000683e:	9309      	str	r3, [sp, #36]	; 0x24
10006840:	2800      	cmp	r0, #0
10006842:	f47f ace8 	bne.w	10006216 <_vsnprintf+0x396>
10006846:	e4fe      	b.n	10006246 <_vsnprintf+0x3c6>

10006848 <vfctprintf>:
10006848:	b570      	push	{r4, r5, r6, lr}
1000684a:	4694      	mov	ip, r2
1000684c:	461e      	mov	r6, r3
1000684e:	4605      	mov	r5, r0
10006850:	460c      	mov	r4, r1
10006852:	b084      	sub	sp, #16
10006854:	f04f 32ff 	mov.w	r2, #4294967295
10006858:	4663      	mov	r3, ip
1000685a:	a902      	add	r1, sp, #8
1000685c:	9600      	str	r6, [sp, #0]
1000685e:	4803      	ldr	r0, [pc, #12]	; (1000686c <vfctprintf+0x24>)
10006860:	e9cd 5402 	strd	r5, r4, [sp, #8]
10006864:	f7ff fb0c 	bl	10005e80 <_vsnprintf>
10006868:	b004      	add	sp, #16
1000686a:	bd70      	pop	{r4, r5, r6, pc}
1000686c:	10005639 	.word	0x10005639

10006870 <weak_raw_vprintf>:
10006870:	b510      	push	{r4, lr}
10006872:	4b09      	ldr	r3, [pc, #36]	; (10006898 <weak_raw_vprintf+0x28>)
10006874:	b084      	sub	sp, #16
10006876:	681c      	ldr	r4, [r3, #0]
10006878:	b14c      	cbz	r4, 1000688e <weak_raw_vprintf+0x1e>
1000687a:	4603      	mov	r3, r0
1000687c:	9100      	str	r1, [sp, #0]
1000687e:	f04f 32ff 	mov.w	r2, #4294967295
10006882:	a903      	add	r1, sp, #12
10006884:	4805      	ldr	r0, [pc, #20]	; (1000689c <weak_raw_vprintf+0x2c>)
10006886:	47a0      	blx	r4
10006888:	2001      	movs	r0, #1
1000688a:	b004      	add	sp, #16
1000688c:	bd10      	pop	{r4, pc}
1000688e:	f000 f971 	bl	10006b74 <__wrap_puts>
10006892:	4620      	mov	r0, r4
10006894:	b004      	add	sp, #16
10006896:	bd10      	pop	{r4, pc}
10006898:	20001eec 	.word	0x20001eec
1000689c:	10005631 	.word	0x10005631

100068a0 <_exit>:
100068a0:	be00      	bkpt	0x0000
100068a2:	e7fd      	b.n	100068a0 <_exit>

100068a4 <exit>:
100068a4:	b508      	push	{r3, lr}
100068a6:	f7ff fffb 	bl	100068a0 <_exit>
100068aa:	bf00      	nop

100068ac <runtime_init>:
100068ac:	b538      	push	{r3, r4, r5, lr}
100068ae:	4d06      	ldr	r5, [pc, #24]	; (100068c8 <runtime_init+0x1c>)
100068b0:	4c06      	ldr	r4, [pc, #24]	; (100068cc <runtime_init+0x20>)
100068b2:	f7fe facd 	bl	10004e50 <runtime_run_initializers>
100068b6:	42ac      	cmp	r4, r5
100068b8:	d204      	bcs.n	100068c4 <runtime_init+0x18>
100068ba:	f854 3b04 	ldr.w	r3, [r4], #4
100068be:	4798      	blx	r3
100068c0:	42ac      	cmp	r4, r5
100068c2:	d3fa      	bcc.n	100068ba <runtime_init+0xe>
100068c4:	bd38      	pop	{r3, r4, r5, pc}
100068c6:	bf00      	nop
100068c8:	10009704 	.word	0x10009704
100068cc:	100096f8 	.word	0x100096f8

100068d0 <stdio_out_chars_no_crlf>:
100068d0:	6803      	ldr	r3, [r0, #0]
100068d2:	4608      	mov	r0, r1
100068d4:	4611      	mov	r1, r2
100068d6:	4718      	bx	r3

100068d8 <stdio_out_chars_crlf>:
100068d8:	7d43      	ldrb	r3, [r0, #21]
100068da:	e92d 47f0 	stmdb	sp!, {r4, r5, r6, r7, r8, r9, sl, lr}
100068de:	4682      	mov	sl, r0
100068e0:	460f      	mov	r7, r1
100068e2:	4691      	mov	r9, r2
100068e4:	2b00      	cmp	r3, #0
100068e6:	d044      	beq.n	10006972 <stdio_out_chars_crlf+0x9a>
100068e8:	2a00      	cmp	r2, #0
100068ea:	dd2a      	ble.n	10006942 <stdio_out_chars_crlf+0x6a>
100068ec:	2400      	movs	r4, #0
100068ee:	2501      	movs	r5, #1
100068f0:	4620      	mov	r0, r4
100068f2:	f8df 808c 	ldr.w	r8, [pc, #140]	; 10006980 <stdio_out_chars_crlf+0xa8>
100068f6:	1e4e      	subs	r6, r1, #1
100068f8:	b32c      	cbz	r4, 10006946 <stdio_out_chars_crlf+0x6e>
100068fa:	7833      	ldrb	r3, [r6, #0]
100068fc:	f816 2f01 	ldrb.w	r2, [r6, #1]!
10006900:	f1a3 030d 	sub.w	r3, r3, #13
10006904:	fab3 f383 	clz	r3, r3
10006908:	2a0a      	cmp	r2, #10
1000690a:	ea4f 1353 	mov.w	r3, r3, lsr #5
1000690e:	d020      	beq.n	10006952 <stdio_out_chars_crlf+0x7a>
10006910:	462b      	mov	r3, r5
10006912:	4599      	cmp	r9, r3
10006914:	f104 0401 	add.w	r4, r4, #1
10006918:	f105 0501 	add.w	r5, r5, #1
1000691c:	dcec      	bgt.n	100068f8 <stdio_out_chars_crlf+0x20>
1000691e:	4581      	cmp	r9, r0
10006920:	dd05      	ble.n	1000692e <stdio_out_chars_crlf+0x56>
10006922:	eba9 0100 	sub.w	r1, r9, r0
10006926:	f8da 3000 	ldr.w	r3, [sl]
1000692a:	4438      	add	r0, r7
1000692c:	4798      	blx	r3
1000692e:	444f      	add	r7, r9
10006930:	f817 3c01 	ldrb.w	r3, [r7, #-1]
10006934:	f1a3 030d 	sub.w	r3, r3, #13
10006938:	fab3 f383 	clz	r3, r3
1000693c:	095b      	lsrs	r3, r3, #5
1000693e:	f88a 3014 	strb.w	r3, [sl, #20]
10006942:	e8bd 87f0 	ldmia.w	sp!, {r4, r5, r6, r7, r8, r9, sl, pc}
10006946:	f816 2f01 	ldrb.w	r2, [r6, #1]!
1000694a:	f89a 3014 	ldrb.w	r3, [sl, #20]
1000694e:	2a0a      	cmp	r2, #10
10006950:	d1de      	bne.n	10006910 <stdio_out_chars_crlf+0x38>
10006952:	2b00      	cmp	r3, #0
10006954:	d1dc      	bne.n	10006910 <stdio_out_chars_crlf+0x38>
10006956:	42a0      	cmp	r0, r4
10006958:	da04      	bge.n	10006964 <stdio_out_chars_crlf+0x8c>
1000695a:	1a21      	subs	r1, r4, r0
1000695c:	f8da 3000 	ldr.w	r3, [sl]
10006960:	4438      	add	r0, r7
10006962:	4798      	blx	r3
10006964:	4640      	mov	r0, r8
10006966:	2102      	movs	r1, #2
10006968:	f8da 3000 	ldr.w	r3, [sl]
1000696c:	4798      	blx	r3
1000696e:	4628      	mov	r0, r5
10006970:	e7ce      	b.n	10006910 <stdio_out_chars_crlf+0x38>
10006972:	4638      	mov	r0, r7
10006974:	f8da 3000 	ldr.w	r3, [sl]
10006978:	4611      	mov	r1, r2
1000697a:	e8bd 47f0 	ldmia.w	sp!, {r4, r5, r6, r7, r8, r9, sl, lr}
1000697e:	4718      	bx	r3
10006980:	10009b00 	.word	0x10009b00

10006984 <stdio_buffered_printer>:
10006984:	680b      	ldr	r3, [r1, #0]
10006986:	e92d 41f0 	stmdb	sp!, {r4, r5, r6, r7, r8, lr}
1000698a:	2b80      	cmp	r3, #128	; 0x80
1000698c:	460d      	mov	r5, r1
1000698e:	4606      	mov	r6, r0
10006990:	d005      	beq.n	1000699e <stdio_buffered_printer+0x1a>
10006992:	1c5a      	adds	r2, r3, #1
10006994:	442b      	add	r3, r5
10006996:	602a      	str	r2, [r5, #0]
10006998:	711e      	strb	r6, [r3, #4]
1000699a:	e8bd 81f0 	ldmia.w	sp!, {r4, r5, r6, r7, r8, pc}
1000699e:	4b0f      	ldr	r3, [pc, #60]	; (100069dc <stdio_buffered_printer+0x58>)
100069a0:	681c      	ldr	r4, [r3, #0]
100069a2:	b1a4      	cbz	r4, 100069ce <stdio_buffered_printer+0x4a>
100069a4:	4f0e      	ldr	r7, [pc, #56]	; (100069e0 <stdio_buffered_printer+0x5c>)
100069a6:	f101 0804 	add.w	r8, r1, #4
100069aa:	e001      	b.n	100069b0 <stdio_buffered_printer+0x2c>
100069ac:	6924      	ldr	r4, [r4, #16]
100069ae:	b174      	cbz	r4, 100069ce <stdio_buffered_printer+0x4a>
100069b0:	6823      	ldr	r3, [r4, #0]
100069b2:	2b00      	cmp	r3, #0
100069b4:	d0fa      	beq.n	100069ac <stdio_buffered_printer+0x28>
100069b6:	683b      	ldr	r3, [r7, #0]
100069b8:	b10b      	cbz	r3, 100069be <stdio_buffered_printer+0x3a>
100069ba:	42a3      	cmp	r3, r4
100069bc:	d1f6      	bne.n	100069ac <stdio_buffered_printer+0x28>
100069be:	4620      	mov	r0, r4
100069c0:	4641      	mov	r1, r8
100069c2:	682a      	ldr	r2, [r5, #0]
100069c4:	f7ff ff88 	bl	100068d8 <stdio_out_chars_crlf>
100069c8:	6924      	ldr	r4, [r4, #16]
100069ca:	2c00      	cmp	r4, #0
100069cc:	d1f0      	bne.n	100069b0 <stdio_buffered_printer+0x2c>
100069ce:	2300      	movs	r3, #0
100069d0:	2201      	movs	r2, #1
100069d2:	442b      	add	r3, r5
100069d4:	602a      	str	r2, [r5, #0]
100069d6:	711e      	strb	r6, [r3, #4]
100069d8:	e8bd 81f0 	ldmia.w	sp!, {r4, r5, r6, r7, r8, pc}
100069dc:	20001ae0 	.word	0x20001ae0
100069e0:	20001ae8 	.word	0x20001ae8

100069e4 <stdio_put_string>:
100069e4:	e92d 47f0 	stmdb	sp!, {r4, r5, r6, r7, r8, r9, sl, lr}
100069e8:	b082      	sub	sp, #8
100069ea:	460d      	mov	r5, r1
100069ec:	4692      	mov	sl, r2
100069ee:	4699      	mov	r9, r3
100069f0:	4607      	mov	r7, r0
100069f2:	f7fa fe1b 	bl	1000162c <time_us_64>
100069f6:	4a2f      	ldr	r2, [pc, #188]	; (10006ab4 <stdio_put_string+0xd0>)
100069f8:	1882      	adds	r2, r0, r2
100069fa:	f141 0300 	adc.w	r3, r1, #0
100069fe:	2b00      	cmp	r3, #0
10006a00:	bfbc      	itt	lt
10006a02:	f04f 32ff 	movlt.w	r2, #4294967295
10006a06:	f06f 4300 	mvnlt.w	r3, #2147483648	; 0x80000000
10006a0a:	482b      	ldr	r0, [pc, #172]	; (10006ab8 <stdio_put_string+0xd4>)
10006a0c:	f002 fe24 	bl	10009658 <__mutex_try_enter_block_until_veneer>
10006a10:	1c6b      	adds	r3, r5, #1
10006a12:	4680      	mov	r8, r0
10006a14:	d103      	bne.n	10006a1e <stdio_put_string+0x3a>
10006a16:	4638      	mov	r0, r7
10006a18:	f002 fdbe 	bl	10009598 <strlen>
10006a1c:	4605      	mov	r5, r0
10006a1e:	4b27      	ldr	r3, [pc, #156]	; (10006abc <stdio_put_string+0xd8>)
10006a20:	4e27      	ldr	r6, [pc, #156]	; (10006ac0 <stdio_put_string+0xdc>)
10006a22:	681c      	ldr	r4, [r3, #0]
10006a24:	4b27      	ldr	r3, [pc, #156]	; (10006ac4 <stdio_put_string+0xe0>)
10006a26:	f1b9 0f00 	cmp.w	r9, #0
10006a2a:	bf08      	it	eq
10006a2c:	461e      	moveq	r6, r3
10006a2e:	b1b4      	cbz	r4, 10006a5e <stdio_put_string+0x7a>
10006a30:	f1ba 0f00 	cmp.w	sl, #0
10006a34:	d11a      	bne.n	10006a6c <stdio_put_string+0x88>
10006a36:	f8df 9090 	ldr.w	r9, [pc, #144]	; 10006ac8 <stdio_put_string+0xe4>
10006a3a:	e001      	b.n	10006a40 <stdio_put_string+0x5c>
10006a3c:	6924      	ldr	r4, [r4, #16]
10006a3e:	b174      	cbz	r4, 10006a5e <stdio_put_string+0x7a>
10006a40:	6823      	ldr	r3, [r4, #0]
10006a42:	2b00      	cmp	r3, #0
10006a44:	d0fa      	beq.n	10006a3c <stdio_put_string+0x58>
10006a46:	f8d9 3000 	ldr.w	r3, [r9]
10006a4a:	b10b      	cbz	r3, 10006a50 <stdio_put_string+0x6c>
10006a4c:	42a3      	cmp	r3, r4
10006a4e:	d1f5      	bne.n	10006a3c <stdio_put_string+0x58>
10006a50:	4620      	mov	r0, r4
10006a52:	462a      	mov	r2, r5
10006a54:	4639      	mov	r1, r7
10006a56:	47b0      	blx	r6
10006a58:	6924      	ldr	r4, [r4, #16]
10006a5a:	2c00      	cmp	r4, #0
10006a5c:	d1f0      	bne.n	10006a40 <stdio_put_string+0x5c>
10006a5e:	f1b8 0f00 	cmp.w	r8, #0
10006a62:	d11f      	bne.n	10006aa4 <stdio_put_string+0xc0>
10006a64:	4628      	mov	r0, r5
10006a66:	b002      	add	sp, #8
10006a68:	e8bd 87f0 	ldmia.w	sp!, {r4, r5, r6, r7, r8, r9, sl, pc}
10006a6c:	f04f 0a0a 	mov.w	sl, #10
10006a70:	f8df 9054 	ldr.w	r9, [pc, #84]	; 10006ac8 <stdio_put_string+0xe4>
10006a74:	e002      	b.n	10006a7c <stdio_put_string+0x98>
10006a76:	6924      	ldr	r4, [r4, #16]
10006a78:	2c00      	cmp	r4, #0
10006a7a:	d0f0      	beq.n	10006a5e <stdio_put_string+0x7a>
10006a7c:	6823      	ldr	r3, [r4, #0]
10006a7e:	2b00      	cmp	r3, #0
10006a80:	d0f9      	beq.n	10006a76 <stdio_put_string+0x92>
10006a82:	f8d9 3000 	ldr.w	r3, [r9]
10006a86:	b10b      	cbz	r3, 10006a8c <stdio_put_string+0xa8>
10006a88:	42a3      	cmp	r3, r4
10006a8a:	d1f4      	bne.n	10006a76 <stdio_put_string+0x92>
10006a8c:	4620      	mov	r0, r4
10006a8e:	462a      	mov	r2, r5
10006a90:	4639      	mov	r1, r7
10006a92:	47b0      	blx	r6
10006a94:	4620      	mov	r0, r4
10006a96:	2201      	movs	r2, #1
10006a98:	f10d 0107 	add.w	r1, sp, #7
10006a9c:	f88d a007 	strb.w	sl, [sp, #7]
10006aa0:	47b0      	blx	r6
10006aa2:	e7e8      	b.n	10006a76 <stdio_put_string+0x92>
10006aa4:	4804      	ldr	r0, [pc, #16]	; (10006ab8 <stdio_put_string+0xd4>)
10006aa6:	f002 fdaf 	bl	10009608 <__mutex_exit_veneer>
10006aaa:	4628      	mov	r0, r5
10006aac:	b002      	add	sp, #8
10006aae:	e8bd 87f0 	ldmia.w	sp!, {r4, r5, r6, r7, r8, r9, sl, pc}
10006ab2:	bf00      	nop
10006ab4:	000f4240 	.word	0x000f4240
10006ab8:	200012b4 	.word	0x200012b4
10006abc:	20001ae0 	.word	0x20001ae0
10006ac0:	100068d9 	.word	0x100068d9
10006ac4:	100068d1 	.word	0x100068d1
10006ac8:	20001ae8 	.word	0x20001ae8

10006acc <stdio_set_driver_enabled>:
10006acc:	4a08      	ldr	r2, [pc, #32]	; (10006af0 <stdio_set_driver_enabled+0x24>)
10006ace:	6813      	ldr	r3, [r2, #0]
10006ad0:	b923      	cbnz	r3, 10006adc <stdio_set_driver_enabled+0x10>
10006ad2:	e00a      	b.n	10006aea <stdio_set_driver_enabled+0x1e>
10006ad4:	f103 0210 	add.w	r2, r3, #16
10006ad8:	691b      	ldr	r3, [r3, #16]
10006ada:	b133      	cbz	r3, 10006aea <stdio_set_driver_enabled+0x1e>
10006adc:	4298      	cmp	r0, r3
10006ade:	d1f9      	bne.n	10006ad4 <stdio_set_driver_enabled+0x8>
10006ae0:	b929      	cbnz	r1, 10006aee <stdio_set_driver_enabled+0x22>
10006ae2:	6903      	ldr	r3, [r0, #16]
10006ae4:	6013      	str	r3, [r2, #0]
10006ae6:	6101      	str	r1, [r0, #16]
10006ae8:	4770      	bx	lr
10006aea:	b101      	cbz	r1, 10006aee <stdio_set_driver_enabled+0x22>
10006aec:	6010      	str	r0, [r2, #0]
10006aee:	4770      	bx	lr
10006af0:	20001ae0 	.word	0x20001ae0

10006af4 <stdio_init_all>:
10006af4:	f000 baca 	b.w	1000708c <stdio_usb_init>

10006af8 <__wrap_putchar>:
10006af8:	b5f0      	push	{r4, r5, r6, r7, lr}
10006afa:	b083      	sub	sp, #12
10006afc:	4606      	mov	r6, r0
10006afe:	f88d 0007 	strb.w	r0, [sp, #7]
10006b02:	f7fa fd93 	bl	1000162c <time_us_64>
10006b06:	4a17      	ldr	r2, [pc, #92]	; (10006b64 <__wrap_putchar+0x6c>)
10006b08:	1882      	adds	r2, r0, r2
10006b0a:	f141 0300 	adc.w	r3, r1, #0
10006b0e:	2b00      	cmp	r3, #0
10006b10:	bfbc      	itt	lt
10006b12:	f06f 4300 	mvnlt.w	r3, #2147483648	; 0x80000000
10006b16:	f04f 32ff 	movlt.w	r2, #4294967295
10006b1a:	4813      	ldr	r0, [pc, #76]	; (10006b68 <__wrap_putchar+0x70>)
10006b1c:	f002 fd9c 	bl	10009658 <__mutex_try_enter_block_until_veneer>
10006b20:	4b12      	ldr	r3, [pc, #72]	; (10006b6c <__wrap_putchar+0x74>)
10006b22:	4607      	mov	r7, r0
10006b24:	681c      	ldr	r4, [r3, #0]
10006b26:	b19c      	cbz	r4, 10006b50 <__wrap_putchar+0x58>
10006b28:	4d11      	ldr	r5, [pc, #68]	; (10006b70 <__wrap_putchar+0x78>)
10006b2a:	e001      	b.n	10006b30 <__wrap_putchar+0x38>
10006b2c:	6924      	ldr	r4, [r4, #16]
10006b2e:	b17c      	cbz	r4, 10006b50 <__wrap_putchar+0x58>
10006b30:	6823      	ldr	r3, [r4, #0]
10006b32:	2b00      	cmp	r3, #0
10006b34:	d0fa      	beq.n	10006b2c <__wrap_putchar+0x34>
10006b36:	682b      	ldr	r3, [r5, #0]
10006b38:	b10b      	cbz	r3, 10006b3e <__wrap_putchar+0x46>
10006b3a:	42a3      	cmp	r3, r4
10006b3c:	d1f6      	bne.n	10006b2c <__wrap_putchar+0x34>
10006b3e:	4620      	mov	r0, r4
10006b40:	2201      	movs	r2, #1
10006b42:	f10d 0107 	add.w	r1, sp, #7
10006b46:	f7ff fec7 	bl	100068d8 <stdio_out_chars_crlf>
10006b4a:	6924      	ldr	r4, [r4, #16]
10006b4c:	2c00      	cmp	r4, #0
10006b4e:	d1ef      	bne.n	10006b30 <__wrap_putchar+0x38>
10006b50:	b917      	cbnz	r7, 10006b58 <__wrap_putchar+0x60>
10006b52:	4630      	mov	r0, r6
10006b54:	b003      	add	sp, #12
10006b56:	bdf0      	pop	{r4, r5, r6, r7, pc}
10006b58:	4803      	ldr	r0, [pc, #12]	; (10006b68 <__wrap_putchar+0x70>)
10006b5a:	f002 fd55 	bl	10009608 <__mutex_exit_veneer>
10006b5e:	4630      	mov	r0, r6
10006b60:	b003      	add	sp, #12
10006b62:	bdf0      	pop	{r4, r5, r6, r7, pc}
10006b64:	000f4240 	.word	0x000f4240
10006b68:	200012b4 	.word	0x200012b4
10006b6c:	20001ae0 	.word	0x20001ae0
10006b70:	20001ae8 	.word	0x20001ae8

10006b74 <__wrap_puts>:
10006b74:	b538      	push	{r3, r4, r5, lr}
10006b76:	4604      	mov	r4, r0
10006b78:	f002 fd0e 	bl	10009598 <strlen>
10006b7c:	2301      	movs	r3, #1
10006b7e:	4605      	mov	r5, r0
10006b80:	461a      	mov	r2, r3
10006b82:	4620      	mov	r0, r4
10006b84:	4629      	mov	r1, r5
10006b86:	f7ff ff2d 	bl	100069e4 <stdio_put_string>
10006b8a:	4b08      	ldr	r3, [pc, #32]	; (10006bac <__wrap_puts+0x38>)
10006b8c:	681c      	ldr	r4, [r3, #0]
10006b8e:	b12c      	cbz	r4, 10006b9c <__wrap_puts+0x28>
10006b90:	6863      	ldr	r3, [r4, #4]
10006b92:	b12b      	cbz	r3, 10006ba0 <__wrap_puts+0x2c>
10006b94:	4798      	blx	r3
10006b96:	6924      	ldr	r4, [r4, #16]
10006b98:	2c00      	cmp	r4, #0
10006b9a:	d1f9      	bne.n	10006b90 <__wrap_puts+0x1c>
10006b9c:	4628      	mov	r0, r5
10006b9e:	bd38      	pop	{r3, r4, r5, pc}
10006ba0:	6924      	ldr	r4, [r4, #16]
10006ba2:	2c00      	cmp	r4, #0
10006ba4:	d1f4      	bne.n	10006b90 <__wrap_puts+0x1c>
10006ba6:	4628      	mov	r0, r5
10006ba8:	bd38      	pop	{r3, r4, r5, pc}
10006baa:	bf00      	nop
10006bac:	20001ae0 	.word	0x20001ae0

10006bb0 <__wrap_vprintf>:
10006bb0:	e92d 41f0 	stmdb	sp!, {r4, r5, r6, r7, r8, lr}
10006bb4:	b0a2      	sub	sp, #136	; 0x88
10006bb6:	4604      	mov	r4, r0
10006bb8:	460d      	mov	r5, r1
10006bba:	f7fa fd37 	bl	1000162c <time_us_64>
10006bbe:	4a27      	ldr	r2, [pc, #156]	; (10006c5c <__wrap_vprintf+0xac>)
10006bc0:	2600      	movs	r6, #0
10006bc2:	1882      	adds	r2, r0, r2
10006bc4:	f141 0300 	adc.w	r3, r1, #0
10006bc8:	2b00      	cmp	r3, #0
10006bca:	bfbc      	itt	lt
10006bcc:	f04f 32ff 	movlt.w	r2, #4294967295
10006bd0:	f06f 4300 	mvnlt.w	r3, #2147483648	; 0x80000000
10006bd4:	4822      	ldr	r0, [pc, #136]	; (10006c60 <__wrap_vprintf+0xb0>)
10006bd6:	f002 fd3f 	bl	10009658 <__mutex_try_enter_block_until_veneer>
10006bda:	462b      	mov	r3, r5
10006bdc:	4607      	mov	r7, r0
10006bde:	4622      	mov	r2, r4
10006be0:	4820      	ldr	r0, [pc, #128]	; (10006c64 <__wrap_vprintf+0xb4>)
10006be2:	a901      	add	r1, sp, #4
10006be4:	9601      	str	r6, [sp, #4]
10006be6:	f7ff fe2f 	bl	10006848 <vfctprintf>
10006bea:	9b01      	ldr	r3, [sp, #4]
10006bec:	4606      	mov	r6, r0
10006bee:	b97b      	cbnz	r3, 10006c10 <__wrap_vprintf+0x60>
10006bf0:	4b1d      	ldr	r3, [pc, #116]	; (10006c68 <__wrap_vprintf+0xb8>)
10006bf2:	681c      	ldr	r4, [r3, #0]
10006bf4:	b12c      	cbz	r4, 10006c02 <__wrap_vprintf+0x52>
10006bf6:	6863      	ldr	r3, [r4, #4]
10006bf8:	b143      	cbz	r3, 10006c0c <__wrap_vprintf+0x5c>
10006bfa:	4798      	blx	r3
10006bfc:	6924      	ldr	r4, [r4, #16]
10006bfe:	2c00      	cmp	r4, #0
10006c00:	d1f9      	bne.n	10006bf6 <__wrap_vprintf+0x46>
10006c02:	bb0f      	cbnz	r7, 10006c48 <__wrap_vprintf+0x98>
10006c04:	4630      	mov	r0, r6
10006c06:	b022      	add	sp, #136	; 0x88
10006c08:	e8bd 81f0 	ldmia.w	sp!, {r4, r5, r6, r7, r8, pc}
10006c0c:	6924      	ldr	r4, [r4, #16]
10006c0e:	e7f1      	b.n	10006bf4 <__wrap_vprintf+0x44>
10006c10:	f8df 8054 	ldr.w	r8, [pc, #84]	; 10006c68 <__wrap_vprintf+0xb8>
10006c14:	f8d8 5000 	ldr.w	r5, [r8]
10006c18:	b1ed      	cbz	r5, 10006c56 <__wrap_vprintf+0xa6>
10006c1a:	4c14      	ldr	r4, [pc, #80]	; (10006c6c <__wrap_vprintf+0xbc>)
10006c1c:	e001      	b.n	10006c22 <__wrap_vprintf+0x72>
10006c1e:	692d      	ldr	r5, [r5, #16]
10006c20:	b175      	cbz	r5, 10006c40 <__wrap_vprintf+0x90>
10006c22:	682b      	ldr	r3, [r5, #0]
10006c24:	2b00      	cmp	r3, #0
10006c26:	d0fa      	beq.n	10006c1e <__wrap_vprintf+0x6e>
10006c28:	6823      	ldr	r3, [r4, #0]
10006c2a:	b10b      	cbz	r3, 10006c30 <__wrap_vprintf+0x80>
10006c2c:	429d      	cmp	r5, r3
10006c2e:	d1f6      	bne.n	10006c1e <__wrap_vprintf+0x6e>
10006c30:	4628      	mov	r0, r5
10006c32:	9a01      	ldr	r2, [sp, #4]
10006c34:	a902      	add	r1, sp, #8
10006c36:	f7ff fe4f 	bl	100068d8 <stdio_out_chars_crlf>
10006c3a:	692d      	ldr	r5, [r5, #16]
10006c3c:	2d00      	cmp	r5, #0
10006c3e:	d1f0      	bne.n	10006c22 <__wrap_vprintf+0x72>
10006c40:	f8d8 4000 	ldr.w	r4, [r8]
10006c44:	9501      	str	r5, [sp, #4]
10006c46:	e7d5      	b.n	10006bf4 <__wrap_vprintf+0x44>
10006c48:	4805      	ldr	r0, [pc, #20]	; (10006c60 <__wrap_vprintf+0xb0>)
10006c4a:	f002 fcdd 	bl	10009608 <__mutex_exit_veneer>
10006c4e:	4630      	mov	r0, r6
10006c50:	b022      	add	sp, #136	; 0x88
10006c52:	e8bd 81f0 	ldmia.w	sp!, {r4, r5, r6, r7, r8, pc}
10006c56:	9501      	str	r5, [sp, #4]
10006c58:	e7d3      	b.n	10006c02 <__wrap_vprintf+0x52>
10006c5a:	bf00      	nop
10006c5c:	000f4240 	.word	0x000f4240
10006c60:	200012b4 	.word	0x200012b4
10006c64:	10006985 	.word	0x10006985
10006c68:	20001ae0 	.word	0x20001ae0
10006c6c:	20001ae8 	.word	0x20001ae8

10006c70 <__wrap_printf>:
10006c70:	b40f      	push	{r0, r1, r2, r3}
10006c72:	b500      	push	{lr}
10006c74:	b083      	sub	sp, #12
10006c76:	a904      	add	r1, sp, #16
10006c78:	f851 0b04 	ldr.w	r0, [r1], #4
10006c7c:	9101      	str	r1, [sp, #4]
10006c7e:	f7ff ff97 	bl	10006bb0 <__wrap_vprintf>
10006c82:	b003      	add	sp, #12
10006c84:	f85d eb04 	ldr.w	lr, [sp], #4
10006c88:	b004      	add	sp, #16
10006c8a:	4770      	bx	lr

10006c8c <resetd_init>:
10006c8c:	4770      	bx	lr
10006c8e:	bf00      	nop

10006c90 <resetd_reset>:
10006c90:	2200      	movs	r2, #0
10006c92:	4b01      	ldr	r3, [pc, #4]	; (10006c98 <resetd_reset+0x8>)
10006c94:	701a      	strb	r2, [r3, #0]
10006c96:	4770      	bx	lr
10006c98:	200422e8 	.word	0x200422e8

10006c9c <resetd_open>:
10006c9c:	794b      	ldrb	r3, [r1, #5]
10006c9e:	2bff      	cmp	r3, #255	; 0xff
10006ca0:	d10b      	bne.n	10006cba <resetd_open+0x1e>
10006ca2:	7988      	ldrb	r0, [r1, #6]
10006ca4:	b948      	cbnz	r0, 10006cba <resetd_open+0x1e>
10006ca6:	79cb      	ldrb	r3, [r1, #7]
10006ca8:	2b01      	cmp	r3, #1
10006caa:	d107      	bne.n	10006cbc <resetd_open+0x20>
10006cac:	2a08      	cmp	r2, #8
10006cae:	d905      	bls.n	10006cbc <resetd_open+0x20>
10006cb0:	4b03      	ldr	r3, [pc, #12]	; (10006cc0 <resetd_open+0x24>)
10006cb2:	788a      	ldrb	r2, [r1, #2]
10006cb4:	2009      	movs	r0, #9
10006cb6:	701a      	strb	r2, [r3, #0]
10006cb8:	4770      	bx	lr
10006cba:	2000      	movs	r0, #0
10006cbc:	4770      	bx	lr
10006cbe:	bf00      	nop
10006cc0:	200422e8 	.word	0x200422e8

10006cc4 <resetd_xfer_cb>:
10006cc4:	2001      	movs	r0, #1
10006cc6:	4770      	bx	lr

10006cc8 <resetd_control_xfer_cb>:
10006cc8:	2901      	cmp	r1, #1
10006cca:	d108      	bne.n	10006cde <resetd_control_xfer_cb+0x16>
10006ccc:	b510      	push	{r4, lr}
10006cce:	4b12      	ldr	r3, [pc, #72]	; (10006d18 <resetd_control_xfer_cb+0x50>)
10006cd0:	460c      	mov	r4, r1
10006cd2:	781b      	ldrb	r3, [r3, #0]
10006cd4:	8891      	ldrh	r1, [r2, #4]
10006cd6:	4299      	cmp	r1, r3
10006cd8:	d003      	beq.n	10006ce2 <resetd_control_xfer_cb+0x1a>
10006cda:	2000      	movs	r0, #0
10006cdc:	bd10      	pop	{r4, pc}
10006cde:	2001      	movs	r0, #1
10006ce0:	4770      	bx	lr
10006ce2:	7853      	ldrb	r3, [r2, #1]
10006ce4:	2b01      	cmp	r3, #1
10006ce6:	d008      	beq.n	10006cfa <resetd_control_xfer_cb+0x32>
10006ce8:	2b02      	cmp	r3, #2
10006cea:	d1f6      	bne.n	10006cda <resetd_control_xfer_cb+0x12>
10006cec:	2100      	movs	r1, #0
10006cee:	2264      	movs	r2, #100	; 0x64
10006cf0:	4608      	mov	r0, r1
10006cf2:	f7fa fe95 	bl	10001a20 <watchdog_reboot>
10006cf6:	4620      	mov	r0, r4
10006cf8:	bd10      	pop	{r4, pc}
10006cfa:	8851      	ldrh	r1, [r2, #2]
10006cfc:	05cb      	lsls	r3, r1, #23
10006cfe:	bf4b      	itete	mi
10006d00:	0a4a      	lsrmi	r2, r1, #9
10006d02:	0a4a      	lsrpl	r2, r1, #9
10006d04:	4610      	movmi	r0, r2
10006d06:	f04f 30ff 	movpl.w	r0, #4294967295
10006d0a:	f002 0201 	and.w	r2, r2, #1
10006d0e:	f001 017f 	and.w	r1, r1, #127	; 0x7f
10006d12:	f7fa ff07 	bl	10001b24 <rom_reset_usb_boot_extra>
10006d16:	bf00      	nop
10006d18:	200422e8 	.word	0x200422e8

10006d1c <tud_descriptor_bos_cb>:
10006d1c:	4800      	ldr	r0, [pc, #0]	; (10006d20 <tud_descriptor_bos_cb+0x4>)
10006d1e:	4770      	bx	lr
10006d20:	10009b24 	.word	0x10009b24

10006d24 <tud_vendor_control_xfer_cb>:
10006d24:	2901      	cmp	r1, #1
10006d26:	d107      	bne.n	10006d38 <tud_vendor_control_xfer_cb+0x14>
10006d28:	7853      	ldrb	r3, [r2, #1]
10006d2a:	2b01      	cmp	r3, #1
10006d2c:	d102      	bne.n	10006d34 <tud_vendor_control_xfer_cb+0x10>
10006d2e:	8893      	ldrh	r3, [r2, #4]
10006d30:	2b07      	cmp	r3, #7
10006d32:	d003      	beq.n	10006d3c <tud_vendor_control_xfer_cb+0x18>
10006d34:	2000      	movs	r0, #0
10006d36:	4770      	bx	lr
10006d38:	2001      	movs	r0, #1
10006d3a:	4770      	bx	lr
10006d3c:	4611      	mov	r1, r2
10006d3e:	23a6      	movs	r3, #166	; 0xa6
10006d40:	4a01      	ldr	r2, [pc, #4]	; (10006d48 <tud_vendor_control_xfer_cb+0x24>)
10006d42:	f001 ba57 	b.w	100081f4 <tud_control_xfer>
10006d46:	bf00      	nop
10006d48:	10009b48 	.word	0x10009b48

10006d4c <usbd_app_driver_get_cb>:
10006d4c:	4603      	mov	r3, r0
10006d4e:	2201      	movs	r2, #1
10006d50:	4801      	ldr	r0, [pc, #4]	; (10006d58 <usbd_app_driver_get_cb+0xc>)
10006d52:	701a      	strb	r2, [r3, #0]
10006d54:	4770      	bx	lr
10006d56:	bf00      	nop
10006d58:	10009b04 	.word	0x10009b04

10006d5c <tud_cdc_line_coding_cb>:
10006d5c:	b508      	push	{r3, lr}
10006d5e:	680b      	ldr	r3, [r1, #0]
10006d60:	f5b3 6f96 	cmp.w	r3, #1200	; 0x4b0
10006d64:	d000      	beq.n	10006d68 <tud_cdc_line_coding_cb+0xc>
10006d66:	bd08      	pop	{r3, pc}
10006d68:	2200      	movs	r2, #0
10006d6a:	f04f 30ff 	mov.w	r0, #4294967295
10006d6e:	4611      	mov	r1, r2
10006d70:	f7fa fed8 	bl	10001b24 <rom_reset_usb_boot_extra>

10006d74 <stdio_usb_set_chars_available_callback>:
10006d74:	4a02      	ldr	r2, [pc, #8]	; (10006d80 <stdio_usb_set_chars_available_callback+0xc>)
10006d76:	4b03      	ldr	r3, [pc, #12]	; (10006d84 <stdio_usb_set_chars_available_callback+0x10>)
10006d78:	6010      	str	r0, [r2, #0]
10006d7a:	6019      	str	r1, [r3, #0]
10006d7c:	4770      	bx	lr
10006d7e:	bf00      	nop
10006d80:	20001a7c 	.word	0x20001a7c
10006d84:	20001a80 	.word	0x20001a80

10006d88 <timer_task>:
10006d88:	4b18      	ldr	r3, [pc, #96]	; (10006dec <timer_task+0x64>)
10006d8a:	b570      	push	{r4, r5, r6, lr}
10006d8c:	681a      	ldr	r2, [r3, #0]
10006d8e:	2a00      	cmp	r2, #0
10006d90:	d028      	beq.n	10006de4 <timer_task+0x5c>
10006d92:	f3ef 8110 	mrs	r1, PRIMASK
10006d96:	b672      	cpsid	i
10006d98:	e8d2 4fcf 	ldaexb	r4, [r2]
10006d9c:	2001      	movs	r0, #1
10006d9e:	2c00      	cmp	r4, #0
10006da0:	d1fa      	bne.n	10006d98 <timer_task+0x10>
10006da2:	e8c2 0f44 	strexb	r4, r0, [r2]
10006da6:	2c00      	cmp	r4, #0
10006da8:	d1f6      	bne.n	10006d98 <timer_task+0x10>
10006daa:	f3bf 8f5f 	dmb	sy
10006dae:	2200      	movs	r2, #0
10006db0:	4c0f      	ldr	r4, [pc, #60]	; (10006df0 <timer_task+0x68>)
10006db2:	6818      	ldr	r0, [r3, #0]
10006db4:	6059      	str	r1, [r3, #4]
10006db6:	7022      	strb	r2, [r4, #0]
10006db8:	e8c0 2f8f 	stlb	r2, [r0]
10006dbc:	f381 8810 	msr	PRIMASK, r1
10006dc0:	2400      	movs	r4, #0
10006dc2:	2500      	movs	r5, #0
10006dc4:	4e0b      	ldr	r6, [pc, #44]	; (10006df4 <timer_task+0x6c>)
10006dc6:	7830      	ldrb	r0, [r6, #0]
10006dc8:	f7f9 fdd6 	bl	10000978 <irq_is_enabled>
10006dcc:	b920      	cbnz	r0, 10006dd8 <timer_task+0x50>
10006dce:	2400      	movs	r4, #0
10006dd0:	2500      	movs	r5, #0
10006dd2:	4620      	mov	r0, r4
10006dd4:	4629      	mov	r1, r5
10006dd6:	bd70      	pop	{r4, r5, r6, pc}
10006dd8:	7830      	ldrb	r0, [r6, #0]
10006dda:	f7f9 fddd 	bl	10000998 <irq_set_pending>
10006dde:	4620      	mov	r0, r4
10006de0:	4629      	mov	r1, r5
10006de2:	bd70      	pop	{r4, r5, r6, pc}
10006de4:	f44f 747a 	mov.w	r4, #1000	; 0x3e8
10006de8:	2500      	movs	r5, #0
10006dea:	e7eb      	b.n	10006dc4 <timer_task+0x3c>
10006dec:	20001ef8 	.word	0x20001ef8
10006df0:	200422ea 	.word	0x200422ea
10006df4:	200422e9 	.word	0x200422e9

10006df8 <usb_irq>:
10006df8:	4b01      	ldr	r3, [pc, #4]	; (10006e00 <usb_irq+0x8>)
10006dfa:	7818      	ldrb	r0, [r3, #0]
10006dfc:	f7f9 bdcc 	b.w	10000998 <irq_set_pending>
10006e00:	200422e9 	.word	0x200422e9

10006e04 <stdio_usb_in_chars>:
10006e04:	b538      	push	{r3, r4, r5, lr}
10006e06:	4604      	mov	r4, r0
10006e08:	2000      	movs	r0, #0
10006e0a:	460d      	mov	r5, r1
10006e0c:	f001 fb3a 	bl	10008484 <tud_cdc_n_connected>
10006e10:	b390      	cbz	r0, 10006e78 <stdio_usb_in_chars+0x74>
10006e12:	2000      	movs	r0, #0
10006e14:	f001 fb4c 	bl	100084b0 <tud_cdc_n_available>
10006e18:	b370      	cbz	r0, 10006e78 <stdio_usb_in_chars+0x74>
10006e1a:	f7fa fc07 	bl	1000162c <time_us_64>
10006e1e:	4a18      	ldr	r2, [pc, #96]	; (10006e80 <stdio_usb_in_chars+0x7c>)
10006e20:	1882      	adds	r2, r0, r2
10006e22:	f141 0300 	adc.w	r3, r1, #0
10006e26:	2b00      	cmp	r3, #0
10006e28:	bfbc      	itt	lt
10006e2a:	f04f 32ff 	movlt.w	r2, #4294967295
10006e2e:	f06f 4300 	mvnlt.w	r3, #2147483648	; 0x80000000
10006e32:	4814      	ldr	r0, [pc, #80]	; (10006e84 <stdio_usb_in_chars+0x80>)
10006e34:	f002 fc10 	bl	10009658 <__mutex_try_enter_block_until_veneer>
10006e38:	b1f0      	cbz	r0, 10006e78 <stdio_usb_in_chars+0x74>
10006e3a:	2000      	movs	r0, #0
10006e3c:	f001 fb22 	bl	10008484 <tud_cdc_n_connected>
10006e40:	b958      	cbnz	r0, 10006e5a <stdio_usb_in_chars+0x56>
10006e42:	2100      	movs	r1, #0
10006e44:	f04f 30ff 	mov.w	r0, #4294967295
10006e48:	f000 fd1c 	bl	10007884 <tud_task_ext>
10006e4c:	f06f 0402 	mvn.w	r4, #2
10006e50:	480c      	ldr	r0, [pc, #48]	; (10006e84 <stdio_usb_in_chars+0x80>)
10006e52:	f002 fbd9 	bl	10009608 <__mutex_exit_veneer>
10006e56:	4620      	mov	r0, r4
10006e58:	bd38      	pop	{r3, r4, r5, pc}
10006e5a:	2000      	movs	r0, #0
10006e5c:	f001 fb28 	bl	100084b0 <tud_cdc_n_available>
10006e60:	2800      	cmp	r0, #0
10006e62:	d0ee      	beq.n	10006e42 <stdio_usb_in_chars+0x3e>
10006e64:	4621      	mov	r1, r4
10006e66:	462a      	mov	r2, r5
10006e68:	2000      	movs	r0, #0
10006e6a:	f001 fb2d 	bl	100084c8 <tud_cdc_n_read>
10006e6e:	1e04      	subs	r4, r0, #0
10006e70:	bf08      	it	eq
10006e72:	f06f 0402 	mvneq.w	r4, #2
10006e76:	e7eb      	b.n	10006e50 <stdio_usb_in_chars+0x4c>
10006e78:	f06f 0402 	mvn.w	r4, #2
10006e7c:	e7eb      	b.n	10006e56 <stdio_usb_in_chars+0x52>
10006e7e:	bf00      	nop
10006e80:	000f4240 	.word	0x000f4240
10006e84:	200021c8 	.word	0x200021c8

10006e88 <stdio_usb_out_flush>:
10006e88:	b508      	push	{r3, lr}
10006e8a:	f7fa fbcf 	bl	1000162c <time_us_64>
10006e8e:	4a0f      	ldr	r2, [pc, #60]	; (10006ecc <stdio_usb_out_flush+0x44>)
10006e90:	1882      	adds	r2, r0, r2
10006e92:	f141 0300 	adc.w	r3, r1, #0
10006e96:	2b00      	cmp	r3, #0
10006e98:	bfbc      	itt	lt
10006e9a:	f04f 32ff 	movlt.w	r2, #4294967295
10006e9e:	f06f 4300 	mvnlt.w	r3, #2147483648	; 0x80000000
10006ea2:	480b      	ldr	r0, [pc, #44]	; (10006ed0 <stdio_usb_out_flush+0x48>)
10006ea4:	f002 fbd8 	bl	10009658 <__mutex_try_enter_block_until_veneer>
10006ea8:	b170      	cbz	r0, 10006ec8 <stdio_usb_out_flush+0x40>
10006eaa:	f04f 30ff 	mov.w	r0, #4294967295
10006eae:	2100      	movs	r1, #0
10006eb0:	f000 fce8 	bl	10007884 <tud_task_ext>
10006eb4:	2000      	movs	r0, #0
10006eb6:	f001 fb4f 	bl	10008558 <tud_cdc_n_write_flush>
10006eba:	2800      	cmp	r0, #0
10006ebc:	d1f5      	bne.n	10006eaa <stdio_usb_out_flush+0x22>
10006ebe:	e8bd 4008 	ldmia.w	sp!, {r3, lr}
10006ec2:	4803      	ldr	r0, [pc, #12]	; (10006ed0 <stdio_usb_out_flush+0x48>)
10006ec4:	f002 bba0 	b.w	10009608 <__mutex_exit_veneer>
10006ec8:	bd08      	pop	{r3, pc}
10006eca:	bf00      	nop
10006ecc:	000f4240 	.word	0x000f4240
10006ed0:	200021c8 	.word	0x200021c8

10006ed4 <stdio_usb_out_chars>:
10006ed4:	e92d 43f8 	stmdb	sp!, {r3, r4, r5, r6, r7, r8, r9, lr}
10006ed8:	4607      	mov	r7, r0
10006eda:	460e      	mov	r6, r1
10006edc:	f7fa fba6 	bl	1000162c <time_us_64>
10006ee0:	4a34      	ldr	r2, [pc, #208]	; (10006fb4 <stdio_usb_out_chars+0xe0>)
10006ee2:	1882      	adds	r2, r0, r2
10006ee4:	f141 0300 	adc.w	r3, r1, #0
10006ee8:	2b00      	cmp	r3, #0
10006eea:	bfbc      	itt	lt
10006eec:	f04f 32ff 	movlt.w	r2, #4294967295
10006ef0:	f06f 4300 	mvnlt.w	r3, #2147483648	; 0x80000000
10006ef4:	4830      	ldr	r0, [pc, #192]	; (10006fb8 <stdio_usb_out_chars+0xe4>)
10006ef6:	f002 fbaf 	bl	10009658 <__mutex_try_enter_block_until_veneer>
10006efa:	b908      	cbnz	r0, 10006f00 <stdio_usb_out_chars+0x2c>
10006efc:	e8bd 83f8 	ldmia.w	sp!, {r3, r4, r5, r6, r7, r8, r9, pc}
10006f00:	2000      	movs	r0, #0
10006f02:	f001 fabf 	bl	10008484 <tud_cdc_n_connected>
10006f06:	2800      	cmp	r0, #0
10006f08:	d049      	beq.n	10006f9e <stdio_usb_out_chars+0xca>
10006f0a:	2e00      	cmp	r6, #0
10006f0c:	dd42      	ble.n	10006f94 <stdio_usb_out_chars+0xc0>
10006f0e:	2500      	movs	r5, #0
10006f10:	f8df 80a8 	ldr.w	r8, [pc, #168]	; 10006fbc <stdio_usb_out_chars+0xe8>
10006f14:	f8df 90a8 	ldr.w	r9, [pc, #168]	; 10006fc0 <stdio_usb_out_chars+0xec>
10006f18:	e013      	b.n	10006f42 <stdio_usb_out_chars+0x6e>
10006f1a:	4622      	mov	r2, r4
10006f1c:	2000      	movs	r0, #0
10006f1e:	f001 fb5f 	bl	100085e0 <tud_cdc_n_write>
10006f22:	2100      	movs	r1, #0
10006f24:	4604      	mov	r4, r0
10006f26:	f04f 30ff 	mov.w	r0, #4294967295
10006f2a:	f000 fcab 	bl	10007884 <tud_task_ext>
10006f2e:	2000      	movs	r0, #0
10006f30:	f001 fb12 	bl	10008558 <tud_cdc_n_write_flush>
10006f34:	f7fa fb7a 	bl	1000162c <time_us_64>
10006f38:	e9c8 0100 	strd	r0, r1, [r8]
10006f3c:	4425      	add	r5, r4
10006f3e:	42ae      	cmp	r6, r5
10006f40:	dd28      	ble.n	10006f94 <stdio_usb_out_chars+0xc0>
10006f42:	2000      	movs	r0, #0
10006f44:	f001 fb70 	bl	10008628 <tud_cdc_n_write_available>
10006f48:	1b74      	subs	r4, r6, r5
10006f4a:	4284      	cmp	r4, r0
10006f4c:	bfa8      	it	ge
10006f4e:	4604      	movge	r4, r0
10006f50:	1979      	adds	r1, r7, r5
10006f52:	2c00      	cmp	r4, #0
10006f54:	d1e1      	bne.n	10006f1a <stdio_usb_out_chars+0x46>
10006f56:	4621      	mov	r1, r4
10006f58:	f04f 30ff 	mov.w	r0, #4294967295
10006f5c:	f000 fc92 	bl	10007884 <tud_task_ext>
10006f60:	4620      	mov	r0, r4
10006f62:	f001 faf9 	bl	10008558 <tud_cdc_n_write_flush>
10006f66:	4620      	mov	r0, r4
10006f68:	f001 fa8c 	bl	10008484 <tud_cdc_n_connected>
10006f6c:	b190      	cbz	r0, 10006f94 <stdio_usb_out_chars+0xc0>
10006f6e:	4620      	mov	r0, r4
10006f70:	f001 fb5a 	bl	10008628 <tud_cdc_n_write_available>
10006f74:	2800      	cmp	r0, #0
10006f76:	d1e2      	bne.n	10006f3e <stdio_usb_out_chars+0x6a>
10006f78:	f7fa fb58 	bl	1000162c <time_us_64>
10006f7c:	f8d8 3000 	ldr.w	r3, [r8]
10006f80:	f8d8 2004 	ldr.w	r2, [r8, #4]
10006f84:	eb13 0309 	adds.w	r3, r3, r9
10006f88:	f142 0200 	adc.w	r2, r2, #0
10006f8c:	4283      	cmp	r3, r0
10006f8e:	eb72 0301 	sbcs.w	r3, r2, r1
10006f92:	d2d4      	bcs.n	10006f3e <stdio_usb_out_chars+0x6a>
10006f94:	4808      	ldr	r0, [pc, #32]	; (10006fb8 <stdio_usb_out_chars+0xe4>)
10006f96:	e8bd 43f8 	ldmia.w	sp!, {r3, r4, r5, r6, r7, r8, r9, lr}
10006f9a:	f002 bb35 	b.w	10009608 <__mutex_exit_veneer>
10006f9e:	2000      	movs	r0, #0
10006fa0:	2100      	movs	r1, #0
10006fa2:	4b06      	ldr	r3, [pc, #24]	; (10006fbc <stdio_usb_out_chars+0xe8>)
10006fa4:	e9c3 0100 	strd	r0, r1, [r3]
10006fa8:	e8bd 43f8 	ldmia.w	sp!, {r3, r4, r5, r6, r7, r8, r9, lr}
10006fac:	4802      	ldr	r0, [pc, #8]	; (10006fb8 <stdio_usb_out_chars+0xe4>)
10006fae:	f002 bb2b 	b.w	10009608 <__mutex_exit_veneer>
10006fb2:	bf00      	nop
10006fb4:	000f4240 	.word	0x000f4240
10006fb8:	200021c8 	.word	0x200021c8
10006fbc:	20001440 	.word	0x20001440
10006fc0:	0007a120 	.word	0x0007a120

10006fc4 <low_priority_worker_irq>:
10006fc4:	b530      	push	{r4, r5, lr}
10006fc6:	2100      	movs	r1, #0
10006fc8:	b085      	sub	sp, #20
10006fca:	482a      	ldr	r0, [pc, #168]	; (10007074 <low_priority_worker_irq+0xb0>)
10006fcc:	f002 fb2c 	bl	10009628 <__mutex_try_enter_veneer>
10006fd0:	b9f0      	cbnz	r0, 10007010 <low_priority_worker_irq+0x4c>
10006fd2:	4b29      	ldr	r3, [pc, #164]	; (10007078 <low_priority_worker_irq+0xb4>)
10006fd4:	681a      	ldr	r2, [r3, #0]
10006fd6:	b1ca      	cbz	r2, 1000700c <low_priority_worker_irq+0x48>
10006fd8:	f3ef 8110 	mrs	r1, PRIMASK
10006fdc:	b672      	cpsid	i
10006fde:	e8d2 5fcf 	ldaexb	r5, [r2]
10006fe2:	2401      	movs	r4, #1
10006fe4:	2d00      	cmp	r5, #0
10006fe6:	d1fa      	bne.n	10006fde <low_priority_worker_irq+0x1a>
10006fe8:	e8c2 4f45 	strexb	r5, r4, [r2]
10006fec:	2d00      	cmp	r5, #0
10006fee:	d1f6      	bne.n	10006fde <low_priority_worker_irq+0x1a>
10006ff0:	f3bf 8f5f 	dmb	sy
10006ff4:	4c21      	ldr	r4, [pc, #132]	; (1000707c <low_priority_worker_irq+0xb8>)
10006ff6:	681d      	ldr	r5, [r3, #0]
10006ff8:	7822      	ldrb	r2, [r4, #0]
10006ffa:	6059      	str	r1, [r3, #4]
10006ffc:	b2d3      	uxtb	r3, r2
10006ffe:	2201      	movs	r2, #1
10007000:	7022      	strb	r2, [r4, #0]
10007002:	e8c5 0f8f 	stlb	r0, [r5]
10007006:	f381 8810 	msr	PRIMASK, r1
1000700a:	b1cb      	cbz	r3, 10007040 <low_priority_worker_irq+0x7c>
1000700c:	b005      	add	sp, #20
1000700e:	bd30      	pop	{r4, r5, pc}
10007010:	2100      	movs	r1, #0
10007012:	f04f 30ff 	mov.w	r0, #4294967295
10007016:	f000 fc35 	bl	10007884 <tud_task_ext>
1000701a:	2000      	movs	r0, #0
1000701c:	f001 fa48 	bl	100084b0 <tud_cdc_n_available>
10007020:	4604      	mov	r4, r0
10007022:	4814      	ldr	r0, [pc, #80]	; (10007074 <low_priority_worker_irq+0xb0>)
10007024:	f002 faf0 	bl	10009608 <__mutex_exit_veneer>
10007028:	2c00      	cmp	r4, #0
1000702a:	d0ef      	beq.n	1000700c <low_priority_worker_irq+0x48>
1000702c:	4b14      	ldr	r3, [pc, #80]	; (10007080 <low_priority_worker_irq+0xbc>)
1000702e:	681b      	ldr	r3, [r3, #0]
10007030:	2b00      	cmp	r3, #0
10007032:	d0eb      	beq.n	1000700c <low_priority_worker_irq+0x48>
10007034:	4a13      	ldr	r2, [pc, #76]	; (10007084 <low_priority_worker_irq+0xc0>)
10007036:	6810      	ldr	r0, [r2, #0]
10007038:	b005      	add	sp, #20
1000703a:	e8bd 4030 	ldmia.w	sp!, {r4, r5, lr}
1000703e:	4718      	bx	r3
10007040:	f7fa f8e8 	bl	10001214 <alarm_pool_get_default>
10007044:	4604      	mov	r4, r0
10007046:	f7fa faf1 	bl	1000162c <time_us_64>
1000704a:	f510 727a 	adds.w	r2, r0, #1000	; 0x3e8
1000704e:	f141 0300 	adc.w	r3, r1, #0
10007052:	2501      	movs	r5, #1
10007054:	2100      	movs	r1, #0
10007056:	4620      	mov	r0, r4
10007058:	4c0b      	ldr	r4, [pc, #44]	; (10007088 <low_priority_worker_irq+0xc4>)
1000705a:	2b00      	cmp	r3, #0
1000705c:	bfbc      	itt	lt
1000705e:	f04f 32ff 	movlt.w	r2, #4294967295
10007062:	f06f 4300 	mvnlt.w	r3, #2147483648	; 0x80000000
10007066:	e9cd 1501 	strd	r1, r5, [sp, #4]
1000706a:	9400      	str	r4, [sp, #0]
1000706c:	f7fa f8d6 	bl	1000121c <alarm_pool_add_alarm_at>
10007070:	b005      	add	sp, #20
10007072:	bd30      	pop	{r4, r5, pc}
10007074:	200021c8 	.word	0x200021c8
10007078:	20001ef8 	.word	0x20001ef8
1000707c:	200422ea 	.word	0x200422ea
10007080:	20001a7c 	.word	0x20001a7c
10007084:	20001a80 	.word	0x20001a80
10007088:	10006d89 	.word	0x10006d89

1000708c <stdio_usb_init>:
1000708c:	f04f 4350 	mov.w	r3, #3489660928	; 0xd0000000
10007090:	b530      	push	{r4, r5, lr}
10007092:	b085      	sub	sp, #20
10007094:	681c      	ldr	r4, [r3, #0]
10007096:	f7fa f8bd 	bl	10001214 <alarm_pool_get_default>
1000709a:	f7fa f9cf 	bl	1000143c <alarm_pool_core_num>
1000709e:	42a0      	cmp	r0, r4
100070a0:	d002      	beq.n	100070a8 <stdio_usb_init+0x1c>
100070a2:	2000      	movs	r0, #0
100070a4:	b005      	add	sp, #20
100070a6:	bd30      	pop	{r4, r5, pc}
100070a8:	2100      	movs	r1, #0
100070aa:	4b27      	ldr	r3, [pc, #156]	; (10007148 <stdio_usb_init+0xbc>)
100070ac:	4608      	mov	r0, r1
100070ae:	781b      	ldrb	r3, [r3, #0]
100070b0:	f001 fd88 	bl	10008bc4 <tusb_rhport_init>
100070b4:	4825      	ldr	r0, [pc, #148]	; (1000714c <stdio_usb_init+0xc0>)
100070b6:	6803      	ldr	r3, [r0, #0]
100070b8:	2b00      	cmp	r3, #0
100070ba:	d042      	beq.n	10007142 <stdio_usb_init+0xb6>
100070bc:	2001      	movs	r0, #1
100070be:	f7f9 fe1f 	bl	10000d00 <user_irq_claim_unused>
100070c2:	4603      	mov	r3, r0
100070c4:	4c22      	ldr	r4, [pc, #136]	; (10007150 <stdio_usb_init+0xc4>)
100070c6:	4923      	ldr	r1, [pc, #140]	; (10007154 <stdio_usb_init+0xc8>)
100070c8:	b2c0      	uxtb	r0, r0
100070ca:	7023      	strb	r3, [r4, #0]
100070cc:	f7f9 fc82 	bl	100009d4 <irq_set_exclusive_handler>
100070d0:	7820      	ldrb	r0, [r4, #0]
100070d2:	2101      	movs	r1, #1
100070d4:	f7f9 fc3a 	bl	1000094c <irq_set_enabled>
100070d8:	200e      	movs	r0, #14
100070da:	f7f9 fc6b 	bl	100009b4 <irq_has_shared_handler>
100070de:	bb18      	cbnz	r0, 10007128 <stdio_usb_init+0x9c>
100070e0:	4b1d      	ldr	r3, [pc, #116]	; (10007158 <stdio_usb_init+0xcc>)
100070e2:	2501      	movs	r5, #1
100070e4:	e9c3 0000 	strd	r0, r0, [r3]
100070e8:	f7fa f894 	bl	10001214 <alarm_pool_get_default>
100070ec:	4604      	mov	r4, r0
100070ee:	f7fa fa9d 	bl	1000162c <time_us_64>
100070f2:	f510 727a 	adds.w	r2, r0, #1000	; 0x3e8
100070f6:	f141 0300 	adc.w	r3, r1, #0
100070fa:	2100      	movs	r1, #0
100070fc:	4620      	mov	r0, r4
100070fe:	4c17      	ldr	r4, [pc, #92]	; (1000715c <stdio_usb_init+0xd0>)
10007100:	2b00      	cmp	r3, #0
10007102:	bfbc      	itt	lt
10007104:	f04f 32ff 	movlt.w	r2, #4294967295
10007108:	f06f 4300 	mvnlt.w	r3, #2147483648	; 0x80000000
1000710c:	e9cd 1501 	strd	r1, r5, [sp, #4]
10007110:	9400      	str	r4, [sp, #0]
10007112:	f7fa f883 	bl	1000121c <alarm_pool_add_alarm_at>
10007116:	2800      	cmp	r0, #0
10007118:	dbc3      	blt.n	100070a2 <stdio_usb_init+0x16>
1000711a:	2101      	movs	r1, #1
1000711c:	4810      	ldr	r0, [pc, #64]	; (10007160 <stdio_usb_init+0xd4>)
1000711e:	f7ff fcd5 	bl	10006acc <stdio_set_driver_enabled>
10007122:	2001      	movs	r0, #1
10007124:	b005      	add	sp, #20
10007126:	bd30      	pop	{r4, r5, pc}
10007128:	2001      	movs	r0, #1
1000712a:	f7f9 fbcb 	bl	100008c4 <spin_lock_claim_unused>
1000712e:	4601      	mov	r1, r0
10007130:	4809      	ldr	r0, [pc, #36]	; (10007158 <stdio_usb_init+0xcc>)
10007132:	f7f9 fe4d 	bl	10000dd0 <critical_section_init_with_lock_num>
10007136:	2200      	movs	r2, #0
10007138:	200e      	movs	r0, #14
1000713a:	490a      	ldr	r1, [pc, #40]	; (10007164 <stdio_usb_init+0xd8>)
1000713c:	f7f9 fc7a 	bl	10000a34 <irq_add_shared_handler>
10007140:	e7eb      	b.n	1000711a <stdio_usb_init+0x8e>
10007142:	f7f9 fe29 	bl	10000d98 <mutex_init>
10007146:	e7b9      	b.n	100070bc <stdio_usb_init+0x30>
10007148:	10009d80 	.word	0x10009d80
1000714c:	200021c8 	.word	0x200021c8
10007150:	200422e9 	.word	0x200422e9
10007154:	10006fc5 	.word	0x10006fc5
10007158:	20001ef8 	.word	0x20001ef8
1000715c:	10006d89 	.word	0x10006d89
10007160:	20001274 	.word	0x20001274
10007164:	10006df9 	.word	0x10006df9

10007168 <tud_descriptor_device_cb>:
10007168:	4800      	ldr	r0, [pc, #0]	; (1000716c <tud_descriptor_device_cb+0x4>)
1000716a:	4770      	bx	lr
1000716c:	10009c90 	.word	0x10009c90

10007170 <tud_descriptor_configuration_cb>:
10007170:	4800      	ldr	r0, [pc, #0]	; (10007174 <tud_descriptor_configuration_cb+0x4>)
10007172:	4770      	bx	lr
10007174:	10009c3c 	.word	0x10009c3c

10007178 <tud_descriptor_string_cb>:
10007178:	b538      	push	{r3, r4, r5, lr}
1000717a:	4b1a      	ldr	r3, [pc, #104]	; (100071e4 <tud_descriptor_string_cb+0x6c>)
1000717c:	4604      	mov	r4, r0
1000717e:	781a      	ldrb	r2, [r3, #0]
10007180:	b32a      	cbz	r2, 100071ce <tud_descriptor_string_cb+0x56>
10007182:	b944      	cbnz	r4, 10007196 <tud_descriptor_string_cb+0x1e>
10007184:	f240 4209 	movw	r2, #1033	; 0x409
10007188:	f44f 7341 	mov.w	r3, #772	; 0x304
1000718c:	4d16      	ldr	r5, [pc, #88]	; (100071e8 <tud_descriptor_string_cb+0x70>)
1000718e:	806a      	strh	r2, [r5, #2]
10007190:	4815      	ldr	r0, [pc, #84]	; (100071e8 <tud_descriptor_string_cb+0x70>)
10007192:	802b      	strh	r3, [r5, #0]
10007194:	bd38      	pop	{r3, r4, r5, pc}
10007196:	2c05      	cmp	r4, #5
10007198:	d821      	bhi.n	100071de <tud_descriptor_string_cb+0x66>
1000719a:	4b14      	ldr	r3, [pc, #80]	; (100071ec <tud_descriptor_string_cb+0x74>)
1000719c:	4d12      	ldr	r5, [pc, #72]	; (100071e8 <tud_descriptor_string_cb+0x70>)
1000719e:	f853 1024 	ldr.w	r1, [r3, r4, lsl #2]
100071a2:	4628      	mov	r0, r5
100071a4:	2300      	movs	r3, #0
100071a6:	3901      	subs	r1, #1
100071a8:	e003      	b.n	100071b2 <tud_descriptor_string_cb+0x3a>
100071aa:	2b13      	cmp	r3, #19
100071ac:	f820 2f02 	strh.w	r2, [r0, #2]!
100071b0:	d012      	beq.n	100071d8 <tud_descriptor_string_cb+0x60>
100071b2:	f811 2f01 	ldrb.w	r2, [r1, #1]!
100071b6:	fa5f fc83 	uxtb.w	ip, r3
100071ba:	3301      	adds	r3, #1
100071bc:	2a00      	cmp	r2, #0
100071be:	d1f4      	bne.n	100071aa <tud_descriptor_string_cb+0x32>
100071c0:	f10c 0301 	add.w	r3, ip, #1
100071c4:	b2db      	uxtb	r3, r3
100071c6:	005b      	lsls	r3, r3, #1
100071c8:	f443 7340 	orr.w	r3, r3, #768	; 0x300
100071cc:	e7e0      	b.n	10007190 <tud_descriptor_string_cb+0x18>
100071ce:	2111      	movs	r1, #17
100071d0:	4618      	mov	r0, r3
100071d2:	f000 f825 	bl	10007220 <pico_get_unique_board_id_string>
100071d6:	e7d4      	b.n	10007182 <tud_descriptor_string_cb+0xa>
100071d8:	f44f 734a 	mov.w	r3, #808	; 0x328
100071dc:	e7d8      	b.n	10007190 <tud_descriptor_string_cb+0x18>
100071de:	2000      	movs	r0, #0
100071e0:	bd38      	pop	{r3, r4, r5, pc}
100071e2:	bf00      	nop
100071e4:	200421e4 	.word	0x200421e4
100071e8:	20001ab4 	.word	0x20001ab4
100071ec:	10009ca4 	.word	0x10009ca4

100071f0 <_retrieve_unique_id_on_boot>:
100071f0:	b500      	push	{lr}
100071f2:	f245 3047 	movw	r0, #21319	; 0x5347
100071f6:	b08b      	sub	sp, #44	; 0x2c
100071f8:	f7fa fc88 	bl	10001b0c <rom_func_lookup>
100071fc:	2201      	movs	r2, #1
100071fe:	4603      	mov	r3, r0
10007200:	2109      	movs	r1, #9
10007202:	a801      	add	r0, sp, #4
10007204:	4798      	blx	r3
10007206:	e9dd 3203 	ldrd	r3, r2, [sp, #12]
1000720a:	4904      	ldr	r1, [pc, #16]	; (1000721c <_retrieve_unique_id_on_boot+0x2c>)
1000720c:	ba12      	rev	r2, r2
1000720e:	ba1b      	rev	r3, r3
10007210:	e9c1 2300 	strd	r2, r3, [r1]
10007214:	b00b      	add	sp, #44	; 0x2c
10007216:	f85d fb04 	ldr.w	pc, [sp], #4
1000721a:	bf00      	nop
1000721c:	200021bc 	.word	0x200021bc

10007220 <pico_get_unique_board_id_string>:
10007220:	3901      	subs	r1, #1
10007222:	f000 80b3 	beq.w	1000738c <pico_get_unique_board_id_string+0x16c>
10007226:	4a5d      	ldr	r2, [pc, #372]	; (1000739c <pico_get_unique_board_id_string+0x17c>)
10007228:	7813      	ldrb	r3, [r2, #0]
1000722a:	ea4f 1c23 	mov.w	ip, r3, asr #4
1000722e:	2b9f      	cmp	r3, #159	; 0x9f
10007230:	bf8c      	ite	hi
10007232:	f10c 0c37 	addhi.w	ip, ip, #55	; 0x37
10007236:	f10c 0c30 	addls.w	ip, ip, #48	; 0x30
1000723a:	2901      	cmp	r1, #1
1000723c:	f880 c000 	strb.w	ip, [r0]
10007240:	f000 80a7 	beq.w	10007392 <pico_get_unique_board_id_string+0x172>
10007244:	f003 030f 	and.w	r3, r3, #15
10007248:	2b09      	cmp	r3, #9
1000724a:	bfcc      	ite	gt
1000724c:	3337      	addgt	r3, #55	; 0x37
1000724e:	3330      	addle	r3, #48	; 0x30
10007250:	2902      	cmp	r1, #2
10007252:	7043      	strb	r3, [r0, #1]
10007254:	f000 809d 	beq.w	10007392 <pico_get_unique_board_id_string+0x172>
10007258:	7853      	ldrb	r3, [r2, #1]
1000725a:	ea4f 1c23 	mov.w	ip, r3, asr #4
1000725e:	2b9f      	cmp	r3, #159	; 0x9f
10007260:	bf8c      	ite	hi
10007262:	f10c 0c37 	addhi.w	ip, ip, #55	; 0x37
10007266:	f10c 0c30 	addls.w	ip, ip, #48	; 0x30
1000726a:	2903      	cmp	r1, #3
1000726c:	f880 c002 	strb.w	ip, [r0, #2]
10007270:	f000 808f 	beq.w	10007392 <pico_get_unique_board_id_string+0x172>
10007274:	f003 030f 	and.w	r3, r3, #15
10007278:	2b09      	cmp	r3, #9
1000727a:	bfcc      	ite	gt
1000727c:	3337      	addgt	r3, #55	; 0x37
1000727e:	3330      	addle	r3, #48	; 0x30
10007280:	2904      	cmp	r1, #4
10007282:	70c3      	strb	r3, [r0, #3]
10007284:	f000 8085 	beq.w	10007392 <pico_get_unique_board_id_string+0x172>
10007288:	7893      	ldrb	r3, [r2, #2]
1000728a:	ea4f 1c23 	mov.w	ip, r3, asr #4
1000728e:	2b9f      	cmp	r3, #159	; 0x9f
10007290:	bf8c      	ite	hi
10007292:	f10c 0c37 	addhi.w	ip, ip, #55	; 0x37
10007296:	f10c 0c30 	addls.w	ip, ip, #48	; 0x30
1000729a:	2905      	cmp	r1, #5
1000729c:	f880 c004 	strb.w	ip, [r0, #4]
100072a0:	d077      	beq.n	10007392 <pico_get_unique_board_id_string+0x172>
100072a2:	f003 030f 	and.w	r3, r3, #15
100072a6:	2b09      	cmp	r3, #9
100072a8:	bfcc      	ite	gt
100072aa:	3337      	addgt	r3, #55	; 0x37
100072ac:	3330      	addle	r3, #48	; 0x30
100072ae:	2906      	cmp	r1, #6
100072b0:	7143      	strb	r3, [r0, #5]
100072b2:	d06e      	beq.n	10007392 <pico_get_unique_board_id_string+0x172>
100072b4:	78d3      	ldrb	r3, [r2, #3]
100072b6:	ea4f 1c23 	mov.w	ip, r3, asr #4
100072ba:	2b9f      	cmp	r3, #159	; 0x9f
100072bc:	bf8c      	ite	hi
100072be:	f10c 0c37 	addhi.w	ip, ip, #55	; 0x37
100072c2:	f10c 0c30 	addls.w	ip, ip, #48	; 0x30
100072c6:	2907      	cmp	r1, #7
100072c8:	f880 c006 	strb.w	ip, [r0, #6]
100072cc:	d061      	beq.n	10007392 <pico_get_unique_board_id_string+0x172>
100072ce:	f003 030f 	and.w	r3, r3, #15
100072d2:	2b09      	cmp	r3, #9
100072d4:	bfcc      	ite	gt
100072d6:	3337      	addgt	r3, #55	; 0x37
100072d8:	3330      	addle	r3, #48	; 0x30
100072da:	2908      	cmp	r1, #8
100072dc:	71c3      	strb	r3, [r0, #7]
100072de:	d058      	beq.n	10007392 <pico_get_unique_board_id_string+0x172>
100072e0:	7913      	ldrb	r3, [r2, #4]
100072e2:	ea4f 1c23 	mov.w	ip, r3, asr #4
100072e6:	2b9f      	cmp	r3, #159	; 0x9f
100072e8:	bf8c      	ite	hi
100072ea:	f10c 0c37 	addhi.w	ip, ip, #55	; 0x37
100072ee:	f10c 0c30 	addls.w	ip, ip, #48	; 0x30
100072f2:	2909      	cmp	r1, #9
100072f4:	f880 c008 	strb.w	ip, [r0, #8]
100072f8:	d04b      	beq.n	10007392 <pico_get_unique_board_id_string+0x172>
100072fa:	f003 030f 	and.w	r3, r3, #15
100072fe:	2b09      	cmp	r3, #9
10007300:	bfcc      	ite	gt
10007302:	3337      	addgt	r3, #55	; 0x37
10007304:	3330      	addle	r3, #48	; 0x30
10007306:	290a      	cmp	r1, #10
10007308:	7243      	strb	r3, [r0, #9]
1000730a:	d042      	beq.n	10007392 <pico_get_unique_board_id_string+0x172>
1000730c:	7953      	ldrb	r3, [r2, #5]
1000730e:	ea4f 1c23 	mov.w	ip, r3, asr #4
10007312:	2b9f      	cmp	r3, #159	; 0x9f
10007314:	bf8c      	ite	hi
10007316:	f10c 0c37 	addhi.w	ip, ip, #55	; 0x37
1000731a:	f10c 0c30 	addls.w	ip, ip, #48	; 0x30
1000731e:	290b      	cmp	r1, #11
10007320:	f880 c00a 	strb.w	ip, [r0, #10]
10007324:	d035      	beq.n	10007392 <pico_get_unique_board_id_string+0x172>
10007326:	f003 030f 	and.w	r3, r3, #15
1000732a:	2b09      	cmp	r3, #9
1000732c:	bfcc      	ite	gt
1000732e:	3337      	addgt	r3, #55	; 0x37
10007330:	3330      	addle	r3, #48	; 0x30
10007332:	290c      	cmp	r1, #12
10007334:	72c3      	strb	r3, [r0, #11]
10007336:	d02c      	beq.n	10007392 <pico_get_unique_board_id_string+0x172>
10007338:	7993      	ldrb	r3, [r2, #6]
1000733a:	ea4f 1c23 	mov.w	ip, r3, asr #4
1000733e:	2b9f      	cmp	r3, #159	; 0x9f
10007340:	bf8c      	ite	hi
10007342:	f10c 0c37 	addhi.w	ip, ip, #55	; 0x37
10007346:	f10c 0c30 	addls.w	ip, ip, #48	; 0x30
1000734a:	290d      	cmp	r1, #13
1000734c:	f880 c00c 	strb.w	ip, [r0, #12]
10007350:	d01f      	beq.n	10007392 <pico_get_unique_board_id_string+0x172>
10007352:	f003 030f 	and.w	r3, r3, #15
10007356:	2b09      	cmp	r3, #9
10007358:	bfcc      	ite	gt
1000735a:	3337      	addgt	r3, #55	; 0x37
1000735c:	3330      	addle	r3, #48	; 0x30
1000735e:	290e      	cmp	r1, #14
10007360:	7343      	strb	r3, [r0, #13]
10007362:	d016      	beq.n	10007392 <pico_get_unique_board_id_string+0x172>
10007364:	79d3      	ldrb	r3, [r2, #7]
10007366:	111a      	asrs	r2, r3, #4
10007368:	2b9f      	cmp	r3, #159	; 0x9f
1000736a:	bf8c      	ite	hi
1000736c:	3237      	addhi	r2, #55	; 0x37
1000736e:	3230      	addls	r2, #48	; 0x30
10007370:	290f      	cmp	r1, #15
10007372:	7382      	strb	r2, [r0, #14]
10007374:	d00d      	beq.n	10007392 <pico_get_unique_board_id_string+0x172>
10007376:	f003 030f 	and.w	r3, r3, #15
1000737a:	2b09      	cmp	r3, #9
1000737c:	bfd4      	ite	le
1000737e:	3330      	addle	r3, #48	; 0x30
10007380:	3337      	addgt	r3, #55	; 0x37
10007382:	2910      	cmp	r1, #16
10007384:	73c3      	strb	r3, [r0, #15]
10007386:	bf18      	it	ne
10007388:	3010      	addne	r0, #16
1000738a:	d002      	beq.n	10007392 <pico_get_unique_board_id_string+0x172>
1000738c:	2300      	movs	r3, #0
1000738e:	7003      	strb	r3, [r0, #0]
10007390:	4770      	bx	lr
10007392:	2300      	movs	r3, #0
10007394:	4408      	add	r0, r1
10007396:	7003      	strb	r3, [r0, #0]
10007398:	4770      	bx	lr
1000739a:	bf00      	nop
1000739c:	200021bc 	.word	0x200021bc

100073a0 <dcd_init>:
100073a0:	b5f8      	push	{r3, r4, r5, r6, r7, lr}
100073a2:	f000 f93b 	bl	1000761c <rp2040_usb_init>
100073a6:	230c      	movs	r3, #12
100073a8:	2740      	movs	r7, #64	; 0x40
100073aa:	4d1a      	ldr	r5, [pc, #104]	; (10007414 <dcd_init+0x74>)
100073ac:	4c1a      	ldr	r4, [pc, #104]	; (10007418 <dcd_init+0x78>)
100073ae:	67ab      	str	r3, [r5, #120]	; 0x78
100073b0:	22ff      	movs	r2, #255	; 0xff
100073b2:	200e      	movs	r0, #14
100073b4:	4919      	ldr	r1, [pc, #100]	; (1000741c <dcd_init+0x7c>)
100073b6:	f7f9 fb3d 	bl	10000a34 <irq_add_shared_handler>
100073ba:	463a      	mov	r2, r7
100073bc:	2100      	movs	r1, #0
100073be:	4620      	mov	r0, r4
100073c0:	f002 f898 	bl	100094f4 <memset>
100073c4:	4b16      	ldr	r3, [pc, #88]	; (10007420 <dcd_init+0x80>)
100073c6:	2601      	movs	r6, #1
100073c8:	62a3      	str	r3, [r4, #40]	; 0x28
100073ca:	2180      	movs	r1, #128	; 0x80
100073cc:	2300      	movs	r3, #0
100073ce:	4a15      	ldr	r2, [pc, #84]	; (10007424 <dcd_init+0x84>)
100073d0:	7066      	strb	r6, [r4, #1]
100073d2:	60a2      	str	r2, [r4, #8]
100073d4:	3a84      	subs	r2, #132	; 0x84
100073d6:	8327      	strh	r7, [r4, #24]
100073d8:	8727      	strh	r7, [r4, #56]	; 0x38
100073da:	8461      	strh	r1, [r4, #34]	; 0x22
100073dc:	f8c2 3084 	str.w	r3, [r2, #132]	; 0x84
100073e0:	f8c2 3080 	str.w	r3, [r2, #128]	; 0x80
100073e4:	6063      	str	r3, [r4, #4]
100073e6:	f884 3021 	strb.w	r3, [r4, #33]	; 0x21
100073ea:	f884 303b 	strb.w	r3, [r4, #59]	; 0x3b
100073ee:	6263      	str	r3, [r4, #36]	; 0x24
100073f0:	4b0d      	ldr	r3, [pc, #52]	; (10007428 <dcd_init+0x88>)
100073f2:	60e3      	str	r3, [r4, #12]
100073f4:	62e3      	str	r3, [r4, #44]	; 0x2c
100073f6:	f002 f957 	bl	100096a8 <__reset_non_control_endpoints_veneer>
100073fa:	f04f 5400 	mov.w	r4, #536870912	; 0x20000000
100073fe:	f44f 3280 	mov.w	r2, #65536	; 0x10000
10007402:	490a      	ldr	r1, [pc, #40]	; (1000742c <dcd_init+0x8c>)
10007404:	4b0a      	ldr	r3, [pc, #40]	; (10007430 <dcd_init+0x90>)
10007406:	642e      	str	r6, [r5, #64]	; 0x40
10007408:	4630      	mov	r0, r6
1000740a:	64ec      	str	r4, [r5, #76]	; 0x4c
1000740c:	f8c5 1090 	str.w	r1, [r5, #144]	; 0x90
10007410:	64da      	str	r2, [r3, #76]	; 0x4c
10007412:	bdf8      	pop	{r3, r4, r5, r6, r7, pc}
10007414:	50110000 	.word	0x50110000
10007418:	20001aec 	.word	0x20001aec
1000741c:	200003bd 	.word	0x200003bd
10007420:	50100080 	.word	0x50100080
10007424:	50100084 	.word	0x50100084
10007428:	50100100 	.word	0x50100100
1000742c:	0001d010 	.word	0x0001d010
10007430:	50112000 	.word	0x50112000

10007434 <dcd_int_enable>:
10007434:	2101      	movs	r1, #1
10007436:	200e      	movs	r0, #14
10007438:	f7f9 ba88 	b.w	1000094c <irq_set_enabled>

1000743c <dcd_set_address>:
1000743c:	2200      	movs	r2, #0
1000743e:	4802      	ldr	r0, [pc, #8]	; (10007448 <dcd_set_address+0xc>)
10007440:	4611      	mov	r1, r2
10007442:	f000 b90b 	b.w	1000765c <hw_endpoint_xfer_start>
10007446:	bf00      	nop
10007448:	20001b0c 	.word	0x20001b0c

1000744c <dcd_sof_enable>:
1000744c:	4b04      	ldr	r3, [pc, #16]	; (10007460 <dcd_sof_enable+0x14>)
1000744e:	7019      	strb	r1, [r3, #0]
10007450:	b121      	cbz	r1, 1000745c <dcd_sof_enable+0x10>
10007452:	f44f 3200 	mov.w	r2, #131072	; 0x20000
10007456:	4b03      	ldr	r3, [pc, #12]	; (10007464 <dcd_sof_enable+0x18>)
10007458:	f8c3 2090 	str.w	r2, [r3, #144]	; 0x90
1000745c:	4770      	bx	lr
1000745e:	bf00      	nop
10007460:	200422e5 	.word	0x200422e5
10007464:	50112000 	.word	0x50112000

10007468 <dcd_edpt0_status_complete>:
10007468:	780b      	ldrb	r3, [r1, #0]
1000746a:	065b      	lsls	r3, r3, #25
1000746c:	d102      	bne.n	10007474 <dcd_edpt0_status_complete+0xc>
1000746e:	784b      	ldrb	r3, [r1, #1]
10007470:	2b05      	cmp	r3, #5
10007472:	d000      	beq.n	10007476 <dcd_edpt0_status_complete+0xe>
10007474:	4770      	bx	lr
10007476:	884b      	ldrh	r3, [r1, #2]
10007478:	4a01      	ldr	r2, [pc, #4]	; (10007480 <dcd_edpt0_status_complete+0x18>)
1000747a:	b2db      	uxtb	r3, r3
1000747c:	6013      	str	r3, [r2, #0]
1000747e:	4770      	bx	lr
10007480:	50110000 	.word	0x50110000

10007484 <dcd_edpt_open>:
10007484:	78cb      	ldrb	r3, [r1, #3]
10007486:	e92d 41f0 	stmdb	sp!, {r4, r5, r6, r7, r8, lr}
1000748a:	f003 0e03 	and.w	lr, r3, #3
1000748e:	f1be 0f01 	cmp.w	lr, #1
10007492:	f3c3 0001 	ubfx	r0, r3, #0, #2
10007496:	d05f      	beq.n	10007558 <dcd_edpt_open+0xd4>
10007498:	2700      	movs	r7, #0
1000749a:	f891 c002 	ldrb.w	ip, [r1, #2]
1000749e:	4d37      	ldr	r5, [pc, #220]	; (1000757c <dcd_edpt_open+0xf8>)
100074a0:	f00c 027f 	and.w	r2, ip, #127	; 0x7f
100074a4:	0056      	lsls	r6, r2, #1
100074a6:	8889      	ldrh	r1, [r1, #4]
100074a8:	eb06 13dc 	add.w	r3, r6, ip, lsr #7
100074ac:	eb05 1343 	add.w	r3, r5, r3, lsl #5
100074b0:	ea4f 14dc 	mov.w	r4, ip, lsr #7
100074b4:	f3c1 010a 	ubfx	r1, r1, #0, #11
100074b8:	76d8      	strb	r0, [r3, #27]
100074ba:	f084 0001 	eor.w	r0, r4, #1
100074be:	f883 c002 	strb.w	ip, [r3, #2]
100074c2:	8319      	strh	r1, [r3, #24]
100074c4:	7058      	strb	r0, [r3, #1]
100074c6:	70df      	strb	r7, [r3, #3]
100074c8:	bb94      	cbnz	r4, 10007530 <dcd_edpt_open+0xac>
100074ca:	2304      	movs	r3, #4
100074cc:	482c      	ldr	r0, [pc, #176]	; (10007580 <dcd_edpt_open+0xfc>)
100074ce:	eb03 03c2 	add.w	r3, r3, r2, lsl #3
100074d2:	eb05 1c82 	add.w	ip, r5, r2, lsl #6
100074d6:	eb03 0800 	add.w	r8, r3, r0
100074da:	f8cc 8008 	str.w	r8, [ip, #8]
100074de:	501f      	str	r7, [r3, r0]
100074e0:	b38a      	cbz	r2, 10007546 <dcd_edpt_open+0xc2>
100074e2:	4b28      	ldr	r3, [pc, #160]	; (10007584 <dcd_edpt_open+0x100>)
100074e4:	00d2      	lsls	r2, r2, #3
100074e6:	4413      	add	r3, r2
100074e8:	f8cc 3004 	str.w	r3, [ip, #4]
100074ec:	313f      	adds	r1, #63	; 0x3f
100074ee:	f1be 0f02 	cmp.w	lr, #2
100074f2:	f021 013f 	bic.w	r1, r1, #63	; 0x3f
100074f6:	d03a      	beq.n	1000756e <dcd_edpt_open+0xea>
100074f8:	4a23      	ldr	r2, [pc, #140]	; (10007588 <dcd_edpt_open+0x104>)
100074fa:	1937      	adds	r7, r6, r4
100074fc:	6813      	ldr	r3, [r2, #0]
100074fe:	eb05 1747 	add.w	r7, r5, r7, lsl #5
10007502:	4419      	add	r1, r3
10007504:	6011      	str	r1, [r2, #0]
10007506:	4a21      	ldr	r2, [pc, #132]	; (1000758c <dcd_edpt_open+0x108>)
10007508:	60fb      	str	r3, [r7, #12]
1000750a:	4291      	cmp	r1, r2
1000750c:	d831      	bhi.n	10007572 <dcd_edpt_open+0xee>
1000750e:	4434      	add	r4, r6
10007510:	eb05 1544 	add.w	r5, r5, r4, lsl #5
10007514:	7ee9      	ldrb	r1, [r5, #27]
10007516:	f083 43a0 	eor.w	r3, r3, #1342177280	; 0x50000000
1000751a:	f483 1380 	eor.w	r3, r3, #1048576	; 0x100000
1000751e:	686a      	ldr	r2, [r5, #4]
10007520:	ea43 6381 	orr.w	r3, r3, r1, lsl #26
10007524:	f043 4300 	orr.w	r3, r3, #2147483648	; 0x80000000
10007528:	2001      	movs	r0, #1
1000752a:	6013      	str	r3, [r2, #0]
1000752c:	e8bd 81f0 	ldmia.w	sp!, {r4, r5, r6, r7, r8, pc}
10007530:	4813      	ldr	r0, [pc, #76]	; (10007580 <dcd_edpt_open+0xfc>)
10007532:	b213      	sxth	r3, r2
10007534:	eb00 08c2 	add.w	r8, r0, r2, lsl #3
10007538:	eb05 1c82 	add.w	ip, r5, r2, lsl #6
1000753c:	f8cc 8028 	str.w	r8, [ip, #40]	; 0x28
10007540:	f840 7033 	str.w	r7, [r0, r3, lsl #3]
10007544:	b95a      	cbnz	r2, 1000755e <dcd_edpt_open+0xda>
10007546:	2300      	movs	r3, #0
10007548:	4a11      	ldr	r2, [pc, #68]	; (10007590 <dcd_edpt_open+0x10c>)
1000754a:	eb05 1444 	add.w	r4, r5, r4, lsl #5
1000754e:	2001      	movs	r0, #1
10007550:	60e2      	str	r2, [r4, #12]
10007552:	6063      	str	r3, [r4, #4]
10007554:	e8bd 81f0 	ldmia.w	sp!, {r4, r5, r6, r7, r8, pc}
10007558:	2000      	movs	r0, #0
1000755a:	e8bd 81f0 	ldmia.w	sp!, {r4, r5, r6, r7, r8, pc}
1000755e:	00d2      	lsls	r2, r2, #3
10007560:	f102 42a0 	add.w	r2, r2, #1342177280	; 0x50000000
10007564:	f502 1280 	add.w	r2, r2, #1048576	; 0x100000
10007568:	f8cc 2024 	str.w	r2, [ip, #36]	; 0x24
1000756c:	e7be      	b.n	100074ec <dcd_edpt_open+0x68>
1000756e:	0049      	lsls	r1, r1, #1
10007570:	e7c2      	b.n	100074f8 <dcd_edpt_open+0x74>
10007572:	f7fd fc67 	bl	10004e44 <hard_assertion_failure>
10007576:	68fb      	ldr	r3, [r7, #12]
10007578:	e7c9      	b.n	1000750e <dcd_edpt_open+0x8a>
1000757a:	bf00      	nop
1000757c:	20001aec 	.word	0x20001aec
10007580:	50100080 	.word	0x50100080
10007584:	50100004 	.word	0x50100004
10007588:	20001ef4 	.word	0x20001ef4
1000758c:	50100fff 	.word	0x50100fff
10007590:	50100100 	.word	0x50100100

10007594 <dcd_edpt_close_all>:
10007594:	f002 b888 	b.w	100096a8 <__reset_non_control_endpoints_veneer>

10007598 <dcd_edpt_xfer>:
10007598:	468c      	mov	ip, r1
1000759a:	b508      	push	{r3, lr}
1000759c:	4611      	mov	r1, r2
1000759e:	4807      	ldr	r0, [pc, #28]	; (100075bc <dcd_edpt_xfer+0x24>)
100075a0:	461a      	mov	r2, r3
100075a2:	f00c 037f 	and.w	r3, ip, #127	; 0x7f
100075a6:	ea4f 1cdc 	mov.w	ip, ip, lsr #7
100075aa:	eb0c 0c43 	add.w	ip, ip, r3, lsl #1
100075ae:	eb00 104c 	add.w	r0, r0, ip, lsl #5
100075b2:	f000 f853 	bl	1000765c <hw_endpoint_xfer_start>
100075b6:	2001      	movs	r0, #1
100075b8:	bd08      	pop	{r3, pc}
100075ba:	bf00      	nop
100075bc:	20001aec 	.word	0x20001aec

100075c0 <dcd_edpt_stall>:
100075c0:	f011 007f 	ands.w	r0, r1, #127	; 0x7f
100075c4:	d00a      	beq.n	100075dc <dcd_edpt_stall+0x1c>
100075c6:	09c9      	lsrs	r1, r1, #7
100075c8:	4b07      	ldr	r3, [pc, #28]	; (100075e8 <dcd_edpt_stall+0x28>)
100075ca:	eb01 0040 	add.w	r0, r1, r0, lsl #1
100075ce:	f44f 6200 	mov.w	r2, #2048	; 0x800
100075d2:	2100      	movs	r1, #0
100075d4:	eb03 1040 	add.w	r0, r3, r0, lsl #5
100075d8:	f002 b856 	b.w	10009688 <___hw_endpoint_buffer_control_update32_veneer>
100075dc:	4b03      	ldr	r3, [pc, #12]	; (100075ec <dcd_edpt_stall+0x2c>)
100075de:	09c9      	lsrs	r1, r1, #7
100075e0:	f1c1 0202 	rsb	r2, r1, #2
100075e4:	669a      	str	r2, [r3, #104]	; 0x68
100075e6:	e7ef      	b.n	100075c8 <dcd_edpt_stall+0x8>
100075e8:	20001aec 	.word	0x20001aec
100075ec:	50112000 	.word	0x50112000

100075f0 <dcd_edpt_clear_stall>:
100075f0:	f011 037f 	ands.w	r3, r1, #127	; 0x7f
100075f4:	d100      	bne.n	100075f8 <dcd_edpt_clear_stall+0x8>
100075f6:	4770      	bx	lr
100075f8:	2200      	movs	r2, #0
100075fa:	b410      	push	{r4}
100075fc:	09c8      	lsrs	r0, r1, #7
100075fe:	4c06      	ldr	r4, [pc, #24]	; (10007618 <dcd_edpt_clear_stall+0x28>)
10007600:	eb00 0043 	add.w	r0, r0, r3, lsl #1
10007604:	eb04 1340 	add.w	r3, r4, r0, lsl #5
10007608:	f46f 6100 	mvn.w	r1, #2048	; 0x800
1000760c:	4618      	mov	r0, r3
1000760e:	f85d 4b04 	ldr.w	r4, [sp], #4
10007612:	70da      	strb	r2, [r3, #3]
10007614:	f002 b838 	b.w	10009688 <___hw_endpoint_buffer_control_update32_veneer>
10007618:	20001aec 	.word	0x20001aec

1000761c <rp2040_usb_init>:
1000761c:	f04f 5280 	mov.w	r2, #268435456	; 0x10000000
10007620:	4809      	ldr	r0, [pc, #36]	; (10007648 <rp2040_usb_init+0x2c>)
10007622:	490a      	ldr	r1, [pc, #40]	; (1000764c <rp2040_usb_init+0x30>)
10007624:	b508      	push	{r3, lr}
10007626:	4b0a      	ldr	r3, [pc, #40]	; (10007650 <rp2040_usb_init+0x34>)
10007628:	6002      	str	r2, [r0, #0]
1000762a:	600a      	str	r2, [r1, #0]
1000762c:	6899      	ldr	r1, [r3, #8]
1000762e:	43c9      	mvns	r1, r1
10007630:	f011 5180 	ands.w	r1, r1, #268435456	; 0x10000000
10007634:	d1fa      	bne.n	1000762c <rp2040_usb_init+0x10>
10007636:	f44f 5280 	mov.w	r2, #4096	; 0x1000
1000763a:	4806      	ldr	r0, [pc, #24]	; (10007654 <rp2040_usb_init+0x38>)
1000763c:	f001 ff5a 	bl	100094f4 <memset>
10007640:	2209      	movs	r2, #9
10007642:	4b05      	ldr	r3, [pc, #20]	; (10007658 <rp2040_usb_init+0x3c>)
10007644:	675a      	str	r2, [r3, #116]	; 0x74
10007646:	bd08      	pop	{r3, pc}
10007648:	40022000 	.word	0x40022000
1000764c:	40023000 	.word	0x40023000
10007650:	40020000 	.word	0x40020000
10007654:	50100000 	.word	0x50100000
10007658:	50110000 	.word	0x50110000

1000765c <hw_endpoint_xfer_start>:
1000765c:	7e83      	ldrb	r3, [r0, #26]
1000765e:	b510      	push	{r4, lr}
10007660:	4604      	mov	r4, r0
10007662:	b9bb      	cbnz	r3, 10007694 <hw_endpoint_xfer_start+0x38>
10007664:	f04f 0c00 	mov.w	ip, #0
10007668:	2301      	movs	r3, #1
1000766a:	4620      	mov	r0, r4
1000766c:	82a2      	strh	r2, [r4, #20]
1000766e:	6121      	str	r1, [r4, #16]
10007670:	f8a4 c016 	strh.w	ip, [r4, #22]
10007674:	76a3      	strb	r3, [r4, #26]
10007676:	f002 f80f 	bl	10009698 <__e15_is_bulkin_ep_veneer>
1000767a:	b120      	cbz	r0, 10007686 <hw_endpoint_xfer_start+0x2a>
1000767c:	f44f 3200 	mov.w	r2, #131072	; 0x20000
10007680:	4b08      	ldr	r3, [pc, #32]	; (100076a4 <hw_endpoint_xfer_start+0x48>)
10007682:	f8c3 2090 	str.w	r2, [r3, #144]	; 0x90
10007686:	4620      	mov	r0, r4
10007688:	f001 ffc6 	bl	10009618 <__e15_is_critical_frame_period_veneer>
1000768c:	b128      	cbz	r0, 1000769a <hw_endpoint_xfer_start+0x3e>
1000768e:	2301      	movs	r3, #1
10007690:	7723      	strb	r3, [r4, #28]
10007692:	bd10      	pop	{r4, pc}
10007694:	f001 fff0 	bl	10009678 <__hw_endpoint_reset_transfer_veneer>
10007698:	e7e4      	b.n	10007664 <hw_endpoint_xfer_start+0x8>
1000769a:	4620      	mov	r0, r4
1000769c:	e8bd 4010 	ldmia.w	sp!, {r4, lr}
100076a0:	f001 bfe2 	b.w	10009668 <__hw_endpoint_start_next_buffer_veneer>
100076a4:	50112000 	.word	0x50112000

100076a8 <configuration_reset>:
100076a8:	e92d 41f0 	stmdb	sp!, {r4, r5, r6, r7, r8, lr}
100076ac:	2400      	movs	r4, #0
100076ae:	4d1d      	ldr	r5, [pc, #116]	; (10007724 <configuration_reset+0x7c>)
100076b0:	4680      	mov	r8, r0
100076b2:	4623      	mov	r3, r4
100076b4:	782a      	ldrb	r2, [r5, #0]
100076b6:	4f1c      	ldr	r7, [pc, #112]	; (10007728 <configuration_reset+0x80>)
100076b8:	4e1c      	ldr	r6, [pc, #112]	; (1000772c <configuration_reset+0x84>)
100076ba:	e00d      	b.n	100076d8 <configuration_reset+0x30>
100076bc:	6833      	ldr	r3, [r6, #0]
100076be:	eb13 1344 	adds.w	r3, r3, r4, lsl #5
100076c2:	d025      	beq.n	10007710 <configuration_reset+0x68>
100076c4:	68db      	ldr	r3, [r3, #12]
100076c6:	4640      	mov	r0, r8
100076c8:	4798      	blx	r3
100076ca:	782a      	ldrb	r2, [r5, #0]
100076cc:	3401      	adds	r4, #1
100076ce:	b2e4      	uxtb	r4, r4
100076d0:	1c51      	adds	r1, r2, #1
100076d2:	42a1      	cmp	r1, r4
100076d4:	4623      	mov	r3, r4
100076d6:	db06      	blt.n	100076e6 <configuration_reset+0x3e>
100076d8:	42a2      	cmp	r2, r4
100076da:	eba3 0302 	sub.w	r3, r3, r2
100076de:	d8ed      	bhi.n	100076bc <configuration_reset+0x14>
100076e0:	eb07 1343 	add.w	r3, r7, r3, lsl #5
100076e4:	e7ee      	b.n	100076c4 <configuration_reset+0x1c>
100076e6:	4c12      	ldr	r4, [pc, #72]	; (10007730 <configuration_reset+0x88>)
100076e8:	2254      	movs	r2, #84	; 0x54
100076ea:	2100      	movs	r1, #0
100076ec:	4620      	mov	r0, r4
100076ee:	f001 ff01 	bl	100094f4 <memset>
100076f2:	f04f 33ff 	mov.w	r3, #4294967295
100076f6:	1d25      	adds	r5, r4, #4
100076f8:	6063      	str	r3, [r4, #4]
100076fa:	e9c5 3301 	strd	r3, r3, [r5, #4]
100076fe:	60eb      	str	r3, [r5, #12]
10007700:	f104 0014 	add.w	r0, r4, #20
10007704:	2220      	movs	r2, #32
10007706:	e8bd 41f0 	ldmia.w	sp!, {r4, r5, r6, r7, r8, lr}
1000770a:	21ff      	movs	r1, #255	; 0xff
1000770c:	f001 bef2 	b.w	100094f4 <memset>
10007710:	f04f 23e0 	mov.w	r3, #3758153728	; 0xe000e000
10007714:	f8d3 3df0 	ldr.w	r3, [r3, #3568]	; 0xdf0
10007718:	07db      	lsls	r3, r3, #31
1000771a:	d500      	bpl.n	1000771e <configuration_reset+0x76>
1000771c:	be00      	bkpt	0x0000
1000771e:	e8bd 81f0 	ldmia.w	sp!, {r4, r5, r6, r7, r8, pc}
10007722:	bf00      	nop
10007724:	200422e4 	.word	0x200422e4
10007728:	10009d18 	.word	0x10009d18
1000772c:	200014c4 	.word	0x200014c4
10007730:	20001694 	.word	0x20001694

10007734 <tud_event_hook_cb>:
10007734:	4770      	bx	lr
10007736:	bf00      	nop

10007738 <tud_sof_cb>:
10007738:	4770      	bx	lr
1000773a:	bf00      	nop

1000773c <tud_descriptor_device_qualifier_cb>:
1000773c:	2000      	movs	r0, #0
1000773e:	4770      	bx	lr

10007740 <tud_descriptor_other_speed_configuration_cb>:
10007740:	2000      	movs	r0, #0
10007742:	4770      	bx	lr

10007744 <tud_mount_cb>:
10007744:	4770      	bx	lr
10007746:	bf00      	nop

10007748 <tud_umount_cb>:
10007748:	4770      	bx	lr
1000774a:	bf00      	nop

1000774c <tud_suspend_cb>:
1000774c:	4770      	bx	lr
1000774e:	bf00      	nop

10007750 <tud_resume_cb>:
10007750:	4770      	bx	lr
10007752:	bf00      	nop

10007754 <tud_mounted>:
10007754:	4b02      	ldr	r3, [pc, #8]	; (10007760 <tud_mounted+0xc>)
10007756:	7858      	ldrb	r0, [r3, #1]
10007758:	3800      	subs	r0, #0
1000775a:	bf18      	it	ne
1000775c:	2001      	movne	r0, #1
1000775e:	4770      	bx	lr
10007760:	20001694 	.word	0x20001694

10007764 <tud_suspended>:
10007764:	4b02      	ldr	r3, [pc, #8]	; (10007770 <tud_suspended+0xc>)
10007766:	7818      	ldrb	r0, [r3, #0]
10007768:	f3c0 0080 	ubfx	r0, r0, #2, #1
1000776c:	4770      	bx	lr
1000776e:	bf00      	nop
10007770:	20001694 	.word	0x20001694

10007774 <tud_rhport_init>:
10007774:	e92d 47f0 	stmdb	sp!, {r4, r5, r6, r7, r8, r9, sl, lr}
10007778:	f8df 8100 	ldr.w	r8, [pc, #256]	; 1000787c <tud_rhport_init+0x108>
1000777c:	f898 3000 	ldrb.w	r3, [r8]
10007780:	2bff      	cmp	r3, #255	; 0xff
10007782:	d14d      	bne.n	10007820 <tud_rhport_init+0xac>
10007784:	460d      	mov	r5, r1
10007786:	2900      	cmp	r1, #0
10007788:	d04e      	beq.n	10007828 <tud_rhport_init+0xb4>
1000778a:	2100      	movs	r1, #0
1000778c:	2254      	movs	r2, #84	; 0x54
1000778e:	4607      	mov	r7, r0
10007790:	4831      	ldr	r0, [pc, #196]	; (10007858 <tud_rhport_init+0xe4>)
10007792:	f001 feaf 	bl	100094f4 <memset>
10007796:	2200      	movs	r2, #0
10007798:	4c30      	ldr	r4, [pc, #192]	; (1000785c <tud_rhport_init+0xe8>)
1000779a:	4b31      	ldr	r3, [pc, #196]	; (10007860 <tud_rhport_init+0xec>)
1000779c:	4620      	mov	r0, r4
1000779e:	701a      	strb	r2, [r3, #0]
100077a0:	f7f9 fafa 	bl	10000d98 <mutex_init>
100077a4:	4b2f      	ldr	r3, [pc, #188]	; (10007864 <tud_rhport_init+0xf0>)
100077a6:	601c      	str	r4, [r3, #0]
100077a8:	4c2f      	ldr	r4, [pc, #188]	; (10007868 <tud_rhport_init+0xf4>)
100077aa:	f104 0014 	add.w	r0, r4, #20
100077ae:	f7f9 fb01 	bl	10000db4 <critical_section_init>
100077b2:	4620      	mov	r0, r4
100077b4:	f001 fdee 	bl	10009394 <tu_fifo_clear>
100077b8:	4b2c      	ldr	r3, [pc, #176]	; (1000786c <tud_rhport_init+0xf8>)
100077ba:	601c      	str	r4, [r3, #0]
100077bc:	4b2c      	ldr	r3, [pc, #176]	; (10007870 <tud_rhport_init+0xfc>)
100077be:	b123      	cbz	r3, 100077ca <tud_rhport_init+0x56>
100077c0:	482c      	ldr	r0, [pc, #176]	; (10007874 <tud_rhport_init+0x100>)
100077c2:	f7ff fac3 	bl	10006d4c <usbd_app_driver_get_cb>
100077c6:	4b2c      	ldr	r3, [pc, #176]	; (10007878 <tud_rhport_init+0x104>)
100077c8:	6018      	str	r0, [r3, #0]
100077ca:	2400      	movs	r4, #0
100077cc:	4e29      	ldr	r6, [pc, #164]	; (10007874 <tud_rhport_init+0x100>)
100077ce:	4623      	mov	r3, r4
100077d0:	7832      	ldrb	r2, [r6, #0]
100077d2:	f8df a0ac 	ldr.w	sl, [pc, #172]	; 10007880 <tud_rhport_init+0x10c>
100077d6:	f8df 90a0 	ldr.w	r9, [pc, #160]	; 10007878 <tud_rhport_init+0x104>
100077da:	e00e      	b.n	100077fa <tud_rhport_init+0x86>
100077dc:	f8d9 3000 	ldr.w	r3, [r9]
100077e0:	eb13 1344 	adds.w	r3, r3, r4, lsl #5
100077e4:	d011      	beq.n	1000780a <tud_rhport_init+0x96>
100077e6:	685b      	ldr	r3, [r3, #4]
100077e8:	b17b      	cbz	r3, 1000780a <tud_rhport_init+0x96>
100077ea:	4798      	blx	r3
100077ec:	7832      	ldrb	r2, [r6, #0]
100077ee:	3401      	adds	r4, #1
100077f0:	b2e4      	uxtb	r4, r4
100077f2:	1c51      	adds	r1, r2, #1
100077f4:	42a1      	cmp	r1, r4
100077f6:	4623      	mov	r3, r4
100077f8:	db20      	blt.n	1000783c <tud_rhport_init+0xc8>
100077fa:	42a2      	cmp	r2, r4
100077fc:	d8ee      	bhi.n	100077dc <tud_rhport_init+0x68>
100077fe:	1a9b      	subs	r3, r3, r2
10007800:	eb0a 1343 	add.w	r3, sl, r3, lsl #5
10007804:	685b      	ldr	r3, [r3, #4]
10007806:	2b00      	cmp	r3, #0
10007808:	d1ef      	bne.n	100077ea <tud_rhport_init+0x76>
1000780a:	f04f 23e0 	mov.w	r3, #3758153728	; 0xe000e000
1000780e:	f8d3 3df0 	ldr.w	r3, [r3, #3568]	; 0xdf0
10007812:	07da      	lsls	r2, r3, #31
10007814:	d500      	bpl.n	10007818 <tud_rhport_init+0xa4>
10007816:	be00      	bkpt	0x0000
10007818:	2500      	movs	r5, #0
1000781a:	4628      	mov	r0, r5
1000781c:	e8bd 87f0 	ldmia.w	sp!, {r4, r5, r6, r7, r8, r9, sl, pc}
10007820:	2501      	movs	r5, #1
10007822:	4628      	mov	r0, r5
10007824:	e8bd 87f0 	ldmia.w	sp!, {r4, r5, r6, r7, r8, r9, sl, pc}
10007828:	f04f 23e0 	mov.w	r3, #3758153728	; 0xe000e000
1000782c:	f8d3 3df0 	ldr.w	r3, [r3, #3568]	; 0xdf0
10007830:	07db      	lsls	r3, r3, #31
10007832:	d5f1      	bpl.n	10007818 <tud_rhport_init+0xa4>
10007834:	be00      	bkpt	0x0000
10007836:	4628      	mov	r0, r5
10007838:	e8bd 87f0 	ldmia.w	sp!, {r4, r5, r6, r7, r8, r9, sl, pc}
1000783c:	4629      	mov	r1, r5
1000783e:	4638      	mov	r0, r7
10007840:	f888 7000 	strb.w	r7, [r8]
10007844:	f7ff fdac 	bl	100073a0 <dcd_init>
10007848:	4605      	mov	r5, r0
1000784a:	2800      	cmp	r0, #0
1000784c:	d0ec      	beq.n	10007828 <tud_rhport_init+0xb4>
1000784e:	4638      	mov	r0, r7
10007850:	f7ff fdf0 	bl	10007434 <dcd_int_enable>
10007854:	e7e5      	b.n	10007822 <tud_rhport_init+0xae>
10007856:	bf00      	nop
10007858:	20001694 	.word	0x20001694
1000785c:	2000168c 	.word	0x2000168c
10007860:	200422e6 	.word	0x200422e6
10007864:	200016e8 	.word	0x200016e8
10007868:	2000128c 	.word	0x2000128c
1000786c:	200016ec 	.word	0x200016ec
10007870:	10006d4d 	.word	0x10006d4d
10007874:	200422e4 	.word	0x200422e4
10007878:	200014c4 	.word	0x200014c4
1000787c:	200012a8 	.word	0x200012a8
10007880:	10009d18 	.word	0x10009d18

10007884 <tud_task_ext>:
10007884:	e92d 4ff0 	stmdb	sp!, {r4, r5, r6, r7, r8, r9, sl, fp, lr}
10007888:	f8df 92cc 	ldr.w	r9, [pc, #716]	; 10007b58 <tud_task_ext+0x2d4>
1000788c:	b08b      	sub	sp, #44	; 0x2c
1000788e:	f899 3000 	ldrb.w	r3, [r9]
10007892:	2bff      	cmp	r3, #255	; 0xff
10007894:	f000 80ef 	beq.w	10007a76 <tud_task_ext+0x1f2>
10007898:	4caa      	ldr	r4, [pc, #680]	; (10007b44 <tud_task_ext+0x2c0>)
1000789a:	f8df a2c0 	ldr.w	sl, [pc, #704]	; 10007b5c <tud_task_ext+0x2d8>
1000789e:	f8df b2c0 	ldr.w	fp, [pc, #704]	; 10007b60 <tud_task_ext+0x2dc>
100078a2:	6825      	ldr	r5, [r4, #0]
100078a4:	696b      	ldr	r3, [r5, #20]
100078a6:	f3ef 8210 	mrs	r2, PRIMASK
100078aa:	b672      	cpsid	i
100078ac:	e8d3 0fcf 	ldaexb	r0, [r3]
100078b0:	2101      	movs	r1, #1
100078b2:	2800      	cmp	r0, #0
100078b4:	d1fa      	bne.n	100078ac <tud_task_ext+0x28>
100078b6:	e8c3 1f40 	strexb	r0, r1, [r3]
100078ba:	2800      	cmp	r0, #0
100078bc:	d1f6      	bne.n	100078ac <tud_task_ext+0x28>
100078be:	f3bf 8f5f 	dmb	sy
100078c2:	61aa      	str	r2, [r5, #24]
100078c4:	4628      	mov	r0, r5
100078c6:	a907      	add	r1, sp, #28
100078c8:	f001 fbc0 	bl	1000904c <tu_fifo_read>
100078cc:	2300      	movs	r3, #0
100078ce:	696a      	ldr	r2, [r5, #20]
100078d0:	e8c2 3f8f 	stlb	r3, [r2]
100078d4:	69ab      	ldr	r3, [r5, #24]
100078d6:	f383 8810 	msr	PRIMASK, r3
100078da:	2800      	cmp	r0, #0
100078dc:	f000 80cb 	beq.w	10007a76 <tud_task_ext+0x1f2>
100078e0:	f89d 301d 	ldrb.w	r3, [sp, #29]
100078e4:	3b01      	subs	r3, #1
100078e6:	2b07      	cmp	r3, #7
100078e8:	f200 838e 	bhi.w	10008008 <tud_task_ext+0x784>
100078ec:	e8df f003 	tbb	[pc, r3]
100078f0:	9a91b0a5 	.word	0x9a91b0a5
100078f4:	040a3689 	.word	0x040a3689
100078f8:	9b08      	ldr	r3, [sp, #32]
100078fa:	2b00      	cmp	r3, #0
100078fc:	d0d1      	beq.n	100078a2 <tud_task_ext+0x1e>
100078fe:	9809      	ldr	r0, [sp, #36]	; 0x24
10007900:	4798      	blx	r3
10007902:	e7ce      	b.n	100078a2 <tud_task_ext+0x1e>
10007904:	f89d 1020 	ldrb.w	r1, [sp, #32]
10007908:	4b8f      	ldr	r3, [pc, #572]	; (10007b48 <tud_task_ext+0x2c4>)
1000790a:	f001 057f 	and.w	r5, r1, #127	; 0x7f
1000790e:	eb03 0345 	add.w	r3, r3, r5, lsl #1
10007912:	eb03 13d1 	add.w	r3, r3, r1, lsr #7
10007916:	f893 2034 	ldrb.w	r2, [r3, #52]	; 0x34
1000791a:	f36f 0200 	bfc	r2, #0, #1
1000791e:	f883 2034 	strb.w	r2, [r3, #52]	; 0x34
10007922:	f893 2034 	ldrb.w	r2, [r3, #52]	; 0x34
10007926:	f36f 0282 	bfc	r2, #2, #1
1000792a:	f883 2034 	strb.w	r2, [r3, #52]	; 0x34
1000792e:	2d00      	cmp	r5, #0
10007930:	f000 80a4 	beq.w	10007a7c <tud_task_ext+0x1f8>
10007934:	4a85      	ldr	r2, [pc, #532]	; (10007b4c <tud_task_ext+0x2c8>)
10007936:	7d1b      	ldrb	r3, [r3, #20]
10007938:	7812      	ldrb	r2, [r2, #0]
1000793a:	4293      	cmp	r3, r2
1000793c:	f080 8091 	bcs.w	10007a62 <tud_task_ext+0x1de>
10007940:	f8db 2000 	ldr.w	r2, [fp]
10007944:	eb12 1343 	adds.w	r3, r2, r3, lsl #5
10007948:	f000 808e 	beq.w	10007a68 <tud_task_ext+0x1e4>
1000794c:	699d      	ldr	r5, [r3, #24]
1000794e:	f89d 2021 	ldrb.w	r2, [sp, #33]	; 0x21
10007952:	9b09      	ldr	r3, [sp, #36]	; 0x24
10007954:	f89d 001c 	ldrb.w	r0, [sp, #28]
10007958:	47a8      	blx	r5
1000795a:	e7a2      	b.n	100078a2 <tud_task_ext+0x1e>
1000795c:	4a7c      	ldr	r2, [pc, #496]	; (10007b50 <tud_task_ext+0x2cc>)
1000795e:	7813      	ldrb	r3, [r2, #0]
10007960:	2b00      	cmp	r3, #0
10007962:	f000 8081 	beq.w	10007a68 <tud_task_ext+0x1e4>
10007966:	7813      	ldrb	r3, [r2, #0]
10007968:	3b01      	subs	r3, #1
1000796a:	b2db      	uxtb	r3, r3
1000796c:	7013      	strb	r3, [r2, #0]
1000796e:	7813      	ldrb	r3, [r2, #0]
10007970:	f003 00ff 	and.w	r0, r3, #255	; 0xff
10007974:	2b00      	cmp	r3, #0
10007976:	d194      	bne.n	100078a2 <tud_task_ext+0x1e>
10007978:	4d73      	ldr	r5, [pc, #460]	; (10007b48 <tud_task_ext+0x2c4>)
1000797a:	f89d 801c 	ldrb.w	r8, [sp, #28]
1000797e:	782b      	ldrb	r3, [r5, #0]
10007980:	f043 0301 	orr.w	r3, r3, #1
10007984:	702b      	strb	r3, [r5, #0]
10007986:	f895 3034 	ldrb.w	r3, [r5, #52]	; 0x34
1000798a:	f360 0300 	bfi	r3, r0, #0, #1
1000798e:	f885 3034 	strb.w	r3, [r5, #52]	; 0x34
10007992:	f895 3034 	ldrb.w	r3, [r5, #52]	; 0x34
10007996:	f360 0382 	bfi	r3, r0, #2, #1
1000799a:	f885 3034 	strb.w	r3, [r5, #52]	; 0x34
1000799e:	f895 3035 	ldrb.w	r3, [r5, #53]	; 0x35
100079a2:	f360 0300 	bfi	r3, r0, #0, #1
100079a6:	f885 3035 	strb.w	r3, [r5, #53]	; 0x35
100079aa:	f895 3035 	ldrb.w	r3, [r5, #53]	; 0x35
100079ae:	f360 0382 	bfi	r3, r0, #2, #1
100079b2:	f885 3035 	strb.w	r3, [r5, #53]	; 0x35
100079b6:	f000 fc8d 	bl	100082d4 <usbd_control_set_complete_callback>
100079ba:	f89d 3020 	ldrb.w	r3, [sp, #32]
100079be:	f003 0260 	and.w	r2, r3, #96	; 0x60
100079c2:	2a60      	cmp	r2, #96	; 0x60
100079c4:	d00b      	beq.n	100079de <tud_task_ext+0x15a>
100079c6:	2a40      	cmp	r2, #64	; 0x40
100079c8:	d064      	beq.n	10007a94 <tud_task_ext+0x210>
100079ca:	f003 031f 	and.w	r3, r3, #31
100079ce:	2b01      	cmp	r3, #1
100079d0:	f000 80c8 	beq.w	10007b64 <tud_task_ext+0x2e0>
100079d4:	2b02      	cmp	r3, #2
100079d6:	f000 8089 	beq.w	10007aec <tud_task_ext+0x268>
100079da:	2b00      	cmp	r3, #0
100079dc:	d066      	beq.n	10007aac <tud_task_ext+0x228>
100079de:	f04f 23e0 	mov.w	r3, #3758153728	; 0xe000e000
100079e2:	f8d3 3df0 	ldr.w	r3, [r3, #3568]	; 0xdf0
100079e6:	07dd      	lsls	r5, r3, #31
100079e8:	d500      	bpl.n	100079ec <tud_task_ext+0x168>
100079ea:	be00      	bkpt	0x0000
100079ec:	f89d 001c 	ldrb.w	r0, [sp, #28]
100079f0:	2100      	movs	r1, #0
100079f2:	f7ff fde5 	bl	100075c0 <dcd_edpt_stall>
100079f6:	2180      	movs	r1, #128	; 0x80
100079f8:	f89d 001c 	ldrb.w	r0, [sp, #28]
100079fc:	f7ff fde0 	bl	100075c0 <dcd_edpt_stall>
10007a00:	e74f      	b.n	100078a2 <tud_task_ext+0x1e>
10007a02:	4b51      	ldr	r3, [pc, #324]	; (10007b48 <tud_task_ext+0x2c4>)
10007a04:	781b      	ldrb	r3, [r3, #0]
10007a06:	07d9      	lsls	r1, r3, #31
10007a08:	f57f af4b 	bpl.w	100078a2 <tud_task_ext+0x1e>
10007a0c:	f7ff fea0 	bl	10007750 <tud_resume_cb>
10007a10:	e747      	b.n	100078a2 <tud_task_ext+0x1e>
10007a12:	4b4d      	ldr	r3, [pc, #308]	; (10007b48 <tud_task_ext+0x2c4>)
10007a14:	78db      	ldrb	r3, [r3, #3]
10007a16:	07da      	lsls	r2, r3, #31
10007a18:	f57f af43 	bpl.w	100078a2 <tud_task_ext+0x1e>
10007a1c:	9808      	ldr	r0, [sp, #32]
10007a1e:	f7ff fe8b 	bl	10007738 <tud_sof_cb>
10007a22:	e73e      	b.n	100078a2 <tud_task_ext+0x1e>
10007a24:	4b48      	ldr	r3, [pc, #288]	; (10007b48 <tud_task_ext+0x2c4>)
10007a26:	781a      	ldrb	r2, [r3, #0]
10007a28:	07d0      	lsls	r0, r2, #31
10007a2a:	f57f af3a 	bpl.w	100078a2 <tud_task_ext+0x1e>
10007a2e:	7818      	ldrb	r0, [r3, #0]
10007a30:	f3c0 00c0 	ubfx	r0, r0, #3, #1
10007a34:	f7ff fe8a 	bl	1000774c <tud_suspend_cb>
10007a38:	e733      	b.n	100078a2 <tud_task_ext+0x1e>
10007a3a:	f89d 001c 	ldrb.w	r0, [sp, #28]
10007a3e:	f7ff fe33 	bl	100076a8 <configuration_reset>
10007a42:	f000 fc3d 	bl	100082c0 <usbd_control_reset>
10007a46:	4b40      	ldr	r3, [pc, #256]	; (10007b48 <tud_task_ext+0x2c4>)
10007a48:	f89d 2020 	ldrb.w	r2, [sp, #32]
10007a4c:	709a      	strb	r2, [r3, #2]
10007a4e:	e728      	b.n	100078a2 <tud_task_ext+0x1e>
10007a50:	f89d 001c 	ldrb.w	r0, [sp, #28]
10007a54:	f7ff fe28 	bl	100076a8 <configuration_reset>
10007a58:	f000 fc32 	bl	100082c0 <usbd_control_reset>
10007a5c:	f7ff fe74 	bl	10007748 <tud_umount_cb>
10007a60:	e71f      	b.n	100078a2 <tud_task_ext+0x1e>
10007a62:	1c50      	adds	r0, r2, #1
10007a64:	4298      	cmp	r0, r3
10007a66:	da11      	bge.n	10007a8c <tud_task_ext+0x208>
10007a68:	f04f 23e0 	mov.w	r3, #3758153728	; 0xe000e000
10007a6c:	f8d3 3df0 	ldr.w	r3, [r3, #3568]	; 0xdf0
10007a70:	07dc      	lsls	r4, r3, #31
10007a72:	d500      	bpl.n	10007a76 <tud_task_ext+0x1f2>
10007a74:	be00      	bkpt	0x0000
10007a76:	b00b      	add	sp, #44	; 0x2c
10007a78:	e8bd 8ff0 	ldmia.w	sp!, {r4, r5, r6, r7, r8, r9, sl, fp, pc}
10007a7c:	9b09      	ldr	r3, [sp, #36]	; 0x24
10007a7e:	f89d 2021 	ldrb.w	r2, [sp, #33]	; 0x21
10007a82:	f89d 001c 	ldrb.w	r0, [sp, #28]
10007a86:	f000 fc39 	bl	100082fc <usbd_control_xfer_cb>
10007a8a:	e70a      	b.n	100078a2 <tud_task_ext+0x1e>
10007a8c:	1a9b      	subs	r3, r3, r2
10007a8e:	eb0a 1343 	add.w	r3, sl, r3, lsl #5
10007a92:	e75b      	b.n	1000794c <tud_task_ext+0xc8>
10007a94:	482f      	ldr	r0, [pc, #188]	; (10007b54 <tud_task_ext+0x2d0>)
10007a96:	f000 fc1d 	bl	100082d4 <usbd_control_set_complete_callback>
10007a9a:	4640      	mov	r0, r8
10007a9c:	2101      	movs	r1, #1
10007a9e:	aa08      	add	r2, sp, #32
10007aa0:	f7ff f940 	bl	10006d24 <tud_vendor_control_xfer_cb>
10007aa4:	2800      	cmp	r0, #0
10007aa6:	f47f aefc 	bne.w	100078a2 <tud_task_ext+0x1e>
10007aaa:	e79f      	b.n	100079ec <tud_task_ext+0x168>
10007aac:	2a20      	cmp	r2, #32
10007aae:	f000 818d 	beq.w	10007dcc <tud_task_ext+0x548>
10007ab2:	2a00      	cmp	r2, #0
10007ab4:	d193      	bne.n	100079de <tud_task_ext+0x15a>
10007ab6:	f89d 3021 	ldrb.w	r3, [sp, #33]	; 0x21
10007aba:	2b09      	cmp	r3, #9
10007abc:	d88f      	bhi.n	100079de <tud_task_ext+0x15a>
10007abe:	a201      	add	r2, pc, #4	; (adr r2, 10007ac4 <tud_task_ext+0x240>)
10007ac0:	f852 f023 	ldr.w	pc, [r2, r3, lsl #2]
10007ac4:	10007d6b 	.word	0x10007d6b
10007ac8:	10007d4f 	.word	0x10007d4f
10007acc:	100079df 	.word	0x100079df
10007ad0:	10007d8d 	.word	0x10007d8d
10007ad4:	100079df 	.word	0x100079df
10007ad8:	10007d35 	.word	0x10007d35
10007adc:	10007ce3 	.word	0x10007ce3
10007ae0:	100079df 	.word	0x100079df
10007ae4:	10007ccd 	.word	0x10007ccd
10007ae8:	10007bf3 	.word	0x10007bf3
10007aec:	f89d 1024 	ldrb.w	r1, [sp, #36]	; 0x24
10007af0:	f011 0f70 	tst.w	r1, #112	; 0x70
10007af4:	f47f af73 	bne.w	100079de <tud_task_ext+0x15a>
10007af8:	4b14      	ldr	r3, [pc, #80]	; (10007b4c <tud_task_ext+0x2c8>)
10007afa:	f001 067f 	and.w	r6, r1, #127	; 0x7f
10007afe:	7818      	ldrb	r0, [r3, #0]
10007b00:	eb05 0346 	add.w	r3, r5, r6, lsl #1
10007b04:	eb03 13d1 	add.w	r3, r3, r1, lsr #7
10007b08:	7d1f      	ldrb	r7, [r3, #20]
10007b0a:	09cb      	lsrs	r3, r1, #7
10007b0c:	4287      	cmp	r7, r0
10007b0e:	ea4f 0646 	mov.w	r6, r6, lsl #1
10007b12:	9301      	str	r3, [sp, #4]
10007b14:	d35b      	bcc.n	10007bce <tud_task_ext+0x34a>
10007b16:	1c43      	adds	r3, r0, #1
10007b18:	42bb      	cmp	r3, r7
10007b1a:	f2c0 8174 	blt.w	10007e06 <tud_task_ext+0x582>
10007b1e:	1a3f      	subs	r7, r7, r0
10007b20:	eb0a 1747 	add.w	r7, sl, r7, lsl #5
10007b24:	2a00      	cmp	r2, #0
10007b26:	f000 8172 	beq.w	10007e0e <tud_task_ext+0x58a>
10007b2a:	6978      	ldr	r0, [r7, #20]
10007b2c:	f000 fbd2 	bl	100082d4 <usbd_control_set_complete_callback>
10007b30:	4640      	mov	r0, r8
10007b32:	2101      	movs	r1, #1
10007b34:	697b      	ldr	r3, [r7, #20]
10007b36:	aa08      	add	r2, sp, #32
10007b38:	4798      	blx	r3
10007b3a:	2800      	cmp	r0, #0
10007b3c:	f47f aeb1 	bne.w	100078a2 <tud_task_ext+0x1e>
10007b40:	e754      	b.n	100079ec <tud_task_ext+0x168>
10007b42:	bf00      	nop
10007b44:	200016ec 	.word	0x200016ec
10007b48:	20001694 	.word	0x20001694
10007b4c:	200422e4 	.word	0x200422e4
10007b50:	200422e6 	.word	0x200422e6
10007b54:	10006d25 	.word	0x10006d25
10007b58:	200012a8 	.word	0x200012a8
10007b5c:	10009d18 	.word	0x10009d18
10007b60:	200014c4 	.word	0x200014c4
10007b64:	f89d 3024 	ldrb.w	r3, [sp, #36]	; 0x24
10007b68:	2b0f      	cmp	r3, #15
10007b6a:	f63f af3f 	bhi.w	100079ec <tud_task_ext+0x168>
10007b6e:	4ab5      	ldr	r2, [pc, #724]	; (10007e44 <tud_task_ext+0x5c0>)
10007b70:	442b      	add	r3, r5
10007b72:	791b      	ldrb	r3, [r3, #4]
10007b74:	7815      	ldrb	r5, [r2, #0]
10007b76:	42ab      	cmp	r3, r5
10007b78:	d334      	bcc.n	10007be4 <tud_task_ext+0x360>
10007b7a:	1c6a      	adds	r2, r5, #1
10007b7c:	429a      	cmp	r2, r3
10007b7e:	f6ff af35 	blt.w	100079ec <tud_task_ext+0x168>
10007b82:	1b5b      	subs	r3, r3, r5
10007b84:	eb0a 1543 	add.w	r5, sl, r3, lsl #5
10007b88:	6968      	ldr	r0, [r5, #20]
10007b8a:	f000 fba3 	bl	100082d4 <usbd_control_set_complete_callback>
10007b8e:	2101      	movs	r1, #1
10007b90:	4640      	mov	r0, r8
10007b92:	696b      	ldr	r3, [r5, #20]
10007b94:	aa08      	add	r2, sp, #32
10007b96:	4798      	blx	r3
10007b98:	2800      	cmp	r0, #0
10007b9a:	f47f ae82 	bne.w	100078a2 <tud_task_ext+0x1e>
10007b9e:	f89d 3020 	ldrb.w	r3, [sp, #32]
10007ba2:	f013 0560 	ands.w	r5, r3, #96	; 0x60
10007ba6:	f47f af21 	bne.w	100079ec <tud_task_ext+0x168>
10007baa:	f89d 3021 	ldrb.w	r3, [sp, #33]	; 0x21
10007bae:	3b0a      	subs	r3, #10
10007bb0:	2b01      	cmp	r3, #1
10007bb2:	f63f af1b 	bhi.w	100079ec <tud_task_ext+0x168>
10007bb6:	f000 fb8d 	bl	100082d4 <usbd_control_set_complete_callback>
10007bba:	f89d 3021 	ldrb.w	r3, [sp, #33]	; 0x21
10007bbe:	2b0a      	cmp	r3, #10
10007bc0:	f000 81f7 	beq.w	10007fb2 <tud_task_ext+0x72e>
10007bc4:	4640      	mov	r0, r8
10007bc6:	a908      	add	r1, sp, #32
10007bc8:	f000 fafa 	bl	100081c0 <tud_control_status>
10007bcc:	e669      	b.n	100078a2 <tud_task_ext+0x1e>
10007bce:	f8db 3000 	ldr.w	r3, [fp]
10007bd2:	eb03 1747 	add.w	r7, r3, r7, lsl #5
10007bd6:	2a00      	cmp	r2, #0
10007bd8:	f000 8119 	beq.w	10007e0e <tud_task_ext+0x58a>
10007bdc:	2f00      	cmp	r7, #0
10007bde:	f43f af05 	beq.w	100079ec <tud_task_ext+0x168>
10007be2:	e7a2      	b.n	10007b2a <tud_task_ext+0x2a6>
10007be4:	f8db 5000 	ldr.w	r5, [fp]
10007be8:	eb15 1543 	adds.w	r5, r5, r3, lsl #5
10007bec:	f43f aefe 	beq.w	100079ec <tud_task_ext+0x168>
10007bf0:	e7ca      	b.n	10007b88 <tud_task_ext+0x304>
10007bf2:	786b      	ldrb	r3, [r5, #1]
10007bf4:	f89d 6022 	ldrb.w	r6, [sp, #34]	; 0x22
10007bf8:	429e      	cmp	r6, r3
10007bfa:	f000 8154 	beq.w	10007ea6 <tud_task_ext+0x622>
10007bfe:	786b      	ldrb	r3, [r5, #1]
10007c00:	2b00      	cmp	r3, #0
10007c02:	f040 81c4 	bne.w	10007f8e <tud_task_ext+0x70a>
10007c06:	706e      	strb	r6, [r5, #1]
10007c08:	2e00      	cmp	r6, #0
10007c0a:	f000 814a 	beq.w	10007ea2 <tud_task_ext+0x61e>
10007c0e:	1e70      	subs	r0, r6, #1
10007c10:	b2c0      	uxtb	r0, r0
10007c12:	f7ff faad 	bl	10007170 <tud_descriptor_configuration_cb>
10007c16:	2800      	cmp	r0, #0
10007c18:	f000 8165 	beq.w	10007ee6 <tud_task_ext+0x662>
10007c1c:	7843      	ldrb	r3, [r0, #1]
10007c1e:	2b02      	cmp	r3, #2
10007c20:	f040 8161 	bne.w	10007ee6 <tud_task_ext+0x662>
10007c24:	782b      	ldrb	r3, [r5, #0]
10007c26:	79c2      	ldrb	r2, [r0, #7]
10007c28:	f023 0130 	bic.w	r1, r3, #48	; 0x30
10007c2c:	f3c2 1340 	ubfx	r3, r2, #5, #1
10007c30:	011b      	lsls	r3, r3, #4
10007c32:	f3c2 1280 	ubfx	r2, r2, #6, #1
10007c36:	ea43 1342 	orr.w	r3, r3, r2, lsl #5
10007c3a:	430b      	orrs	r3, r1
10007c3c:	702b      	strb	r3, [r5, #0]
10007c3e:	8843      	ldrh	r3, [r0, #2]
10007c40:	f100 0609 	add.w	r6, r0, #9
10007c44:	18c3      	adds	r3, r0, r3
10007c46:	9302      	str	r3, [sp, #8]
10007c48:	f8cd 800c 	str.w	r8, [sp, #12]
10007c4c:	9b02      	ldr	r3, [sp, #8]
10007c4e:	42b3      	cmp	r3, r6
10007c50:	f240 81aa 	bls.w	10007fa8 <tud_task_ext+0x724>
10007c54:	7872      	ldrb	r2, [r6, #1]
10007c56:	2a0b      	cmp	r2, #11
10007c58:	f000 81b5 	beq.w	10007fc6 <tud_task_ext+0x742>
10007c5c:	2301      	movs	r3, #1
10007c5e:	2a04      	cmp	r2, #4
10007c60:	f040 8141 	bne.w	10007ee6 <tud_task_ext+0x662>
10007c64:	4618      	mov	r0, r3
10007c66:	f04f 0800 	mov.w	r8, #0
10007c6a:	9a02      	ldr	r2, [sp, #8]
10007c6c:	4975      	ldr	r1, [pc, #468]	; (10007e44 <tud_task_ext+0x5c0>)
10007c6e:	1b92      	subs	r2, r2, r6
10007c70:	4633      	mov	r3, r6
10007c72:	7809      	ldrb	r1, [r1, #0]
10007c74:	4606      	mov	r6, r0
10007c76:	b292      	uxth	r2, r2
10007c78:	f8cd 8004 	str.w	r8, [sp, #4]
10007c7c:	e01e      	b.n	10007cbc <tud_task_ext+0x438>
10007c7e:	f8db 7000 	ldr.w	r7, [fp]
10007c82:	eb17 1748 	adds.w	r7, r7, r8, lsl #5
10007c86:	f000 812e 	beq.w	10007ee6 <tud_task_ext+0x662>
10007c8a:	4619      	mov	r1, r3
10007c8c:	9304      	str	r3, [sp, #16]
10007c8e:	9803      	ldr	r0, [sp, #12]
10007c90:	693b      	ldr	r3, [r7, #16]
10007c92:	9205      	str	r2, [sp, #20]
10007c94:	4798      	blx	r3
10007c96:	e9dd 3204 	ldrd	r3, r2, [sp, #16]
10007c9a:	2808      	cmp	r0, #8
10007c9c:	f108 0101 	add.w	r1, r8, #1
10007ca0:	d902      	bls.n	10007ca8 <tud_task_ext+0x424>
10007ca2:	4282      	cmp	r2, r0
10007ca4:	f080 8104 	bcs.w	10007eb0 <tud_task_ext+0x62c>
10007ca8:	fa5f f881 	uxtb.w	r8, r1
10007cac:	4965      	ldr	r1, [pc, #404]	; (10007e44 <tud_task_ext+0x5c0>)
10007cae:	f8cd 8004 	str.w	r8, [sp, #4]
10007cb2:	7809      	ldrb	r1, [r1, #0]
10007cb4:	1c48      	adds	r0, r1, #1
10007cb6:	4580      	cmp	r8, r0
10007cb8:	f300 8115 	bgt.w	10007ee6 <tud_task_ext+0x662>
10007cbc:	9801      	ldr	r0, [sp, #4]
10007cbe:	4588      	cmp	r8, r1
10007cc0:	eba0 0101 	sub.w	r1, r0, r1
10007cc4:	d3db      	bcc.n	10007c7e <tud_task_ext+0x3fa>
10007cc6:	eb0a 1741 	add.w	r7, sl, r1, lsl #5
10007cca:	e7de      	b.n	10007c8a <tud_task_ext+0x406>
10007ccc:	786b      	ldrb	r3, [r5, #1]
10007cce:	4640      	mov	r0, r8
10007cd0:	f88d 301a 	strb.w	r3, [sp, #26]
10007cd4:	f10d 021a 	add.w	r2, sp, #26
10007cd8:	2301      	movs	r3, #1
10007cda:	a908      	add	r1, sp, #32
10007cdc:	f000 fa8a 	bl	100081f4 <tud_control_xfer>
10007ce0:	e5df      	b.n	100078a2 <tud_task_ext+0x1e>
10007ce2:	f8bd 0022 	ldrh.w	r0, [sp, #34]	; 0x22
10007ce6:	0a03      	lsrs	r3, r0, #8
10007ce8:	1e5a      	subs	r2, r3, #1
10007cea:	b2c0      	uxtb	r0, r0
10007cec:	2a0e      	cmp	r2, #14
10007cee:	f63f ae7d 	bhi.w	100079ec <tud_task_ext+0x168>
10007cf2:	a101      	add	r1, pc, #4	; (adr r1, 10007cf8 <tud_task_ext+0x474>)
10007cf4:	f851 f022 	ldr.w	pc, [r1, r2, lsl #2]
10007cf8:	10007f17 	.word	0x10007f17
10007cfc:	10007da9 	.word	0x10007da9
10007d00:	10007f53 	.word	0x10007f53
10007d04:	100079ed 	.word	0x100079ed
10007d08:	100079ed 	.word	0x100079ed
10007d0c:	10007f35 	.word	0x10007f35
10007d10:	10007da9 	.word	0x10007da9
10007d14:	100079ed 	.word	0x100079ed
10007d18:	100079ed 	.word	0x100079ed
10007d1c:	100079ed 	.word	0x100079ed
10007d20:	100079ed 	.word	0x100079ed
10007d24:	100079ed 	.word	0x100079ed
10007d28:	100079ed 	.word	0x100079ed
10007d2c:	100079ed 	.word	0x100079ed
10007d30:	10007f09 	.word	0x10007f09
10007d34:	a808      	add	r0, sp, #32
10007d36:	f000 fad3 	bl	100082e0 <usbd_control_set_request>
10007d3a:	4640      	mov	r0, r8
10007d3c:	f89d 1022 	ldrb.w	r1, [sp, #34]	; 0x22
10007d40:	f7ff fb7c 	bl	1000743c <dcd_set_address>
10007d44:	782b      	ldrb	r3, [r5, #0]
10007d46:	f043 0302 	orr.w	r3, r3, #2
10007d4a:	702b      	strb	r3, [r5, #0]
10007d4c:	e5a9      	b.n	100078a2 <tud_task_ext+0x1e>
10007d4e:	f8bd 3022 	ldrh.w	r3, [sp, #34]	; 0x22
10007d52:	2b01      	cmp	r3, #1
10007d54:	f47f ae4a 	bne.w	100079ec <tud_task_ext+0x168>
10007d58:	782b      	ldrb	r3, [r5, #0]
10007d5a:	4640      	mov	r0, r8
10007d5c:	f36f 03c3 	bfc	r3, #3, #1
10007d60:	a908      	add	r1, sp, #32
10007d62:	702b      	strb	r3, [r5, #0]
10007d64:	f000 fa2c 	bl	100081c0 <tud_control_status>
10007d68:	e59b      	b.n	100078a2 <tud_task_ext+0x1e>
10007d6a:	4640      	mov	r0, r8
10007d6c:	782b      	ldrb	r3, [r5, #0]
10007d6e:	089a      	lsrs	r2, r3, #2
10007d70:	f002 0202 	and.w	r2, r2, #2
10007d74:	f3c3 1340 	ubfx	r3, r3, #5, #1
10007d78:	4313      	orrs	r3, r2
10007d7a:	f8ad 301a 	strh.w	r3, [sp, #26]
10007d7e:	f10d 021a 	add.w	r2, sp, #26
10007d82:	2302      	movs	r3, #2
10007d84:	a908      	add	r1, sp, #32
10007d86:	f000 fa35 	bl	100081f4 <tud_control_xfer>
10007d8a:	e58a      	b.n	100078a2 <tud_task_ext+0x1e>
10007d8c:	f8bd 3022 	ldrh.w	r3, [sp, #34]	; 0x22
10007d90:	2b01      	cmp	r3, #1
10007d92:	f47f ae2b 	bne.w	100079ec <tud_task_ext+0x168>
10007d96:	782b      	ldrb	r3, [r5, #0]
10007d98:	4640      	mov	r0, r8
10007d9a:	f043 0308 	orr.w	r3, r3, #8
10007d9e:	a908      	add	r1, sp, #32
10007da0:	702b      	strb	r3, [r5, #0]
10007da2:	f000 fa0d 	bl	100081c0 <tud_control_status>
10007da6:	e57c      	b.n	100078a2 <tud_task_ext+0x1e>
10007da8:	2b02      	cmp	r3, #2
10007daa:	f000 8111 	beq.w	10007fd0 <tud_task_ext+0x74c>
10007dae:	f7ff fcc7 	bl	10007740 <tud_descriptor_other_speed_configuration_cb>
10007db2:	4602      	mov	r2, r0
10007db4:	2800      	cmp	r0, #0
10007db6:	f43f ae19 	beq.w	100079ec <tud_task_ext+0x168>
10007dba:	4640      	mov	r0, r8
10007dbc:	8853      	ldrh	r3, [r2, #2]
10007dbe:	a908      	add	r1, sp, #32
10007dc0:	f000 fa18 	bl	100081f4 <tud_control_xfer>
10007dc4:	2800      	cmp	r0, #0
10007dc6:	f47f ad6c 	bne.w	100078a2 <tud_task_ext+0x1e>
10007dca:	e60f      	b.n	100079ec <tud_task_ext+0x168>
10007dcc:	f89d 3024 	ldrb.w	r3, [sp, #36]	; 0x24
10007dd0:	2b0f      	cmp	r3, #15
10007dd2:	f63f ae0b 	bhi.w	100079ec <tud_task_ext+0x168>
10007dd6:	4a1b      	ldr	r2, [pc, #108]	; (10007e44 <tud_task_ext+0x5c0>)
10007dd8:	442b      	add	r3, r5
10007dda:	791b      	ldrb	r3, [r3, #4]
10007ddc:	7815      	ldrb	r5, [r2, #0]
10007dde:	42ab      	cmp	r3, r5
10007de0:	d227      	bcs.n	10007e32 <tud_task_ext+0x5ae>
10007de2:	f8db 5000 	ldr.w	r5, [fp]
10007de6:	eb15 1543 	adds.w	r5, r5, r3, lsl #5
10007dea:	f43f adff 	beq.w	100079ec <tud_task_ext+0x168>
10007dee:	6968      	ldr	r0, [r5, #20]
10007df0:	f000 fa70 	bl	100082d4 <usbd_control_set_complete_callback>
10007df4:	4640      	mov	r0, r8
10007df6:	2101      	movs	r1, #1
10007df8:	696b      	ldr	r3, [r5, #20]
10007dfa:	aa08      	add	r2, sp, #32
10007dfc:	4798      	blx	r3
10007dfe:	2800      	cmp	r0, #0
10007e00:	f47f ad4f 	bne.w	100078a2 <tud_task_ext+0x1e>
10007e04:	e5f2      	b.n	100079ec <tud_task_ext+0x168>
10007e06:	2a00      	cmp	r2, #0
10007e08:	f47f adf0 	bne.w	100079ec <tud_task_ext+0x168>
10007e0c:	2700      	movs	r7, #0
10007e0e:	f89d 2021 	ldrb.w	r2, [sp, #33]	; 0x21
10007e12:	f002 03fd 	and.w	r3, r2, #253	; 0xfd
10007e16:	2b01      	cmp	r3, #1
10007e18:	d016      	beq.n	10007e48 <tud_task_ext+0x5c4>
10007e1a:	2a00      	cmp	r2, #0
10007e1c:	f47f addf 	bne.w	100079de <tud_task_ext+0x15a>
10007e20:	9b01      	ldr	r3, [sp, #4]
10007e22:	4435      	add	r5, r6
10007e24:	442b      	add	r3, r5
10007e26:	f893 3034 	ldrb.w	r3, [r3, #52]	; 0x34
10007e2a:	4640      	mov	r0, r8
10007e2c:	f3c3 0340 	ubfx	r3, r3, #1, #1
10007e30:	e7a3      	b.n	10007d7a <tud_task_ext+0x4f6>
10007e32:	1c6a      	adds	r2, r5, #1
10007e34:	429a      	cmp	r2, r3
10007e36:	f6ff add9 	blt.w	100079ec <tud_task_ext+0x168>
10007e3a:	1b5b      	subs	r3, r3, r5
10007e3c:	eb0a 1543 	add.w	r5, sl, r3, lsl #5
10007e40:	e7d5      	b.n	10007dee <tud_task_ext+0x56a>
10007e42:	bf00      	nop
10007e44:	200422e4 	.word	0x200422e4
10007e48:	f8bd 3022 	ldrh.w	r3, [sp, #34]	; 0x22
10007e4c:	b9ab      	cbnz	r3, 10007e7a <tud_task_ext+0x5f6>
10007e4e:	2a01      	cmp	r2, #1
10007e50:	f000 8087 	beq.w	10007f62 <tud_task_ext+0x6de>
10007e54:	f899 0000 	ldrb.w	r0, [r9]
10007e58:	f7ff fbb2 	bl	100075c0 <dcd_edpt_stall>
10007e5c:	9a01      	ldr	r2, [sp, #4]
10007e5e:	19ab      	adds	r3, r5, r6
10007e60:	4413      	add	r3, r2
10007e62:	f893 2034 	ldrb.w	r2, [r3, #52]	; 0x34
10007e66:	f042 0202 	orr.w	r2, r2, #2
10007e6a:	f883 2034 	strb.w	r2, [r3, #52]	; 0x34
10007e6e:	f893 2034 	ldrb.w	r2, [r3, #52]	; 0x34
10007e72:	f042 0201 	orr.w	r2, r2, #1
10007e76:	f883 2034 	strb.w	r2, [r3, #52]	; 0x34
10007e7a:	2f00      	cmp	r7, #0
10007e7c:	f43f ad11 	beq.w	100078a2 <tud_task_ext+0x1e>
10007e80:	6978      	ldr	r0, [r7, #20]
10007e82:	f000 fa27 	bl	100082d4 <usbd_control_set_complete_callback>
10007e86:	697b      	ldr	r3, [r7, #20]
10007e88:	2101      	movs	r1, #1
10007e8a:	aa08      	add	r2, sp, #32
10007e8c:	4640      	mov	r0, r8
10007e8e:	4798      	blx	r3
10007e90:	2000      	movs	r0, #0
10007e92:	f000 fa1f 	bl	100082d4 <usbd_control_set_complete_callback>
10007e96:	f895 3035 	ldrb.w	r3, [r5, #53]	; 0x35
10007e9a:	07de      	lsls	r6, r3, #31
10007e9c:	f53f ad01 	bmi.w	100078a2 <tud_task_ext+0x1e>
10007ea0:	e690      	b.n	10007bc4 <tud_task_ext+0x340>
10007ea2:	f7ff fc51 	bl	10007748 <tud_umount_cb>
10007ea6:	4640      	mov	r0, r8
10007ea8:	a908      	add	r1, sp, #32
10007eaa:	f000 f989 	bl	100081c0 <tud_control_status>
10007eae:	e4f8      	b.n	100078a2 <tud_task_ext+0x1e>
10007eb0:	4632      	mov	r2, r6
10007eb2:	2a01      	cmp	r2, #1
10007eb4:	461e      	mov	r6, r3
10007eb6:	4613      	mov	r3, r2
10007eb8:	f000 80a0 	beq.w	10007ffc <tud_task_ext+0x778>
10007ebc:	2a00      	cmp	r2, #0
10007ebe:	f000 808e 	beq.w	10007fde <tud_task_ext+0x75a>
10007ec2:	2200      	movs	r2, #0
10007ec4:	78b7      	ldrb	r7, [r6, #2]
10007ec6:	e005      	b.n	10007ed4 <tud_task_ext+0x650>
10007ec8:	f881 8004 	strb.w	r8, [r1, #4]
10007ecc:	b2d1      	uxtb	r1, r2
10007ece:	428b      	cmp	r3, r1
10007ed0:	f240 8085 	bls.w	10007fde <tud_task_ext+0x75a>
10007ed4:	18b9      	adds	r1, r7, r2
10007ed6:	fa55 f181 	uxtab	r1, r5, r1
10007eda:	f891 c004 	ldrb.w	ip, [r1, #4]
10007ede:	3201      	adds	r2, #1
10007ee0:	f1bc 0fff 	cmp.w	ip, #255	; 0xff
10007ee4:	d0f0      	beq.n	10007ec8 <tud_task_ext+0x644>
10007ee6:	f04f 23e0 	mov.w	r3, #3758153728	; 0xe000e000
10007eea:	f8d3 3df0 	ldr.w	r3, [r3, #3568]	; 0xdf0
10007eee:	07db      	lsls	r3, r3, #31
10007ef0:	d500      	bpl.n	10007ef4 <tud_task_ext+0x670>
10007ef2:	be00      	bkpt	0x0000
10007ef4:	f04f 23e0 	mov.w	r3, #3758153728	; 0xe000e000
10007ef8:	f8d3 3df0 	ldr.w	r3, [r3, #3568]	; 0xdf0
10007efc:	07df      	lsls	r7, r3, #31
10007efe:	d500      	bpl.n	10007f02 <tud_task_ext+0x67e>
10007f00:	be00      	bkpt	0x0000
10007f02:	2300      	movs	r3, #0
10007f04:	706b      	strb	r3, [r5, #1]
10007f06:	e571      	b.n	100079ec <tud_task_ext+0x168>
10007f08:	f7fe ff08 	bl	10006d1c <tud_descriptor_bos_cb>
10007f0c:	4602      	mov	r2, r0
10007f0e:	2800      	cmp	r0, #0
10007f10:	f47f af53 	bne.w	10007dba <tud_task_ext+0x536>
10007f14:	e56a      	b.n	100079ec <tud_task_ext+0x168>
10007f16:	f7ff f927 	bl	10007168 <tud_descriptor_device_cb>
10007f1a:	4602      	mov	r2, r0
10007f1c:	2800      	cmp	r0, #0
10007f1e:	f43f ad5e 	beq.w	100079de <tud_task_ext+0x15a>
10007f22:	4640      	mov	r0, r8
10007f24:	2312      	movs	r3, #18
10007f26:	a908      	add	r1, sp, #32
10007f28:	f000 f964 	bl	100081f4 <tud_control_xfer>
10007f2c:	2800      	cmp	r0, #0
10007f2e:	f47f acb8 	bne.w	100078a2 <tud_task_ext+0x1e>
10007f32:	e55b      	b.n	100079ec <tud_task_ext+0x168>
10007f34:	f7ff fc02 	bl	1000773c <tud_descriptor_device_qualifier_cb>
10007f38:	4602      	mov	r2, r0
10007f3a:	2800      	cmp	r0, #0
10007f3c:	f43f ad56 	beq.w	100079ec <tud_task_ext+0x168>
10007f40:	4640      	mov	r0, r8
10007f42:	7813      	ldrb	r3, [r2, #0]
10007f44:	a908      	add	r1, sp, #32
10007f46:	f000 f955 	bl	100081f4 <tud_control_xfer>
10007f4a:	2800      	cmp	r0, #0
10007f4c:	f47f aca9 	bne.w	100078a2 <tud_task_ext+0x1e>
10007f50:	e54c      	b.n	100079ec <tud_task_ext+0x168>
10007f52:	f8bd 1024 	ldrh.w	r1, [sp, #36]	; 0x24
10007f56:	f7ff f90f 	bl	10007178 <tud_descriptor_string_cb>
10007f5a:	4602      	mov	r2, r0
10007f5c:	2800      	cmp	r0, #0
10007f5e:	d1ef      	bne.n	10007f40 <tud_task_ext+0x6bc>
10007f60:	e544      	b.n	100079ec <tud_task_ext+0x168>
10007f62:	f899 0000 	ldrb.w	r0, [r9]
10007f66:	9302      	str	r3, [sp, #8]
10007f68:	f7ff fb42 	bl	100075f0 <dcd_edpt_clear_stall>
10007f6c:	9b01      	ldr	r3, [sp, #4]
10007f6e:	19aa      	adds	r2, r5, r6
10007f70:	441a      	add	r2, r3
10007f72:	f892 1034 	ldrb.w	r1, [r2, #52]	; 0x34
10007f76:	9b02      	ldr	r3, [sp, #8]
10007f78:	f363 0141 	bfi	r1, r3, #1, #1
10007f7c:	f882 1034 	strb.w	r1, [r2, #52]	; 0x34
10007f80:	f892 1034 	ldrb.w	r1, [r2, #52]	; 0x34
10007f84:	f363 0100 	bfi	r1, r3, #0, #1
10007f88:	f882 1034 	strb.w	r1, [r2, #52]	; 0x34
10007f8c:	e775      	b.n	10007e7a <tud_task_ext+0x5f6>
10007f8e:	2100      	movs	r1, #0
10007f90:	4640      	mov	r0, r8
10007f92:	f7ff fa5b 	bl	1000744c <dcd_sof_enable>
10007f96:	4640      	mov	r0, r8
10007f98:	f7ff fafc 	bl	10007594 <dcd_edpt_close_all>
10007f9c:	78af      	ldrb	r7, [r5, #2]
10007f9e:	4640      	mov	r0, r8
10007fa0:	f7ff fb82 	bl	100076a8 <configuration_reset>
10007fa4:	70af      	strb	r7, [r5, #2]
10007fa6:	e62e      	b.n	10007c06 <tud_task_ext+0x382>
10007fa8:	f8dd 800c 	ldr.w	r8, [sp, #12]
10007fac:	f7ff fbca 	bl	10007744 <tud_mount_cb>
10007fb0:	e779      	b.n	10007ea6 <tud_task_ext+0x622>
10007fb2:	4640      	mov	r0, r8
10007fb4:	2301      	movs	r3, #1
10007fb6:	a908      	add	r1, sp, #32
10007fb8:	f10d 021a 	add.w	r2, sp, #26
10007fbc:	f88d 501a 	strb.w	r5, [sp, #26]
10007fc0:	f000 f918 	bl	100081f4 <tud_control_xfer>
10007fc4:	e46d      	b.n	100078a2 <tud_task_ext+0x1e>
10007fc6:	7832      	ldrb	r2, [r6, #0]
10007fc8:	78f3      	ldrb	r3, [r6, #3]
10007fca:	4416      	add	r6, r2
10007fcc:	7872      	ldrb	r2, [r6, #1]
10007fce:	e646      	b.n	10007c5e <tud_task_ext+0x3da>
10007fd0:	f7ff f8ce 	bl	10007170 <tud_descriptor_configuration_cb>
10007fd4:	4602      	mov	r2, r0
10007fd6:	2800      	cmp	r0, #0
10007fd8:	f47f aeef 	bne.w	10007dba <tud_task_ext+0x536>
10007fdc:	e4ff      	b.n	100079de <tud_task_ext+0x15a>
10007fde:	4602      	mov	r2, r0
10007fe0:	4643      	mov	r3, r8
10007fe2:	4631      	mov	r1, r6
10007fe4:	4406      	add	r6, r0
10007fe6:	480d      	ldr	r0, [pc, #52]	; (1000801c <tud_task_ext+0x798>)
10007fe8:	f000 fea0 	bl	10008d2c <tu_edpt_bind_driver>
10007fec:	4b0c      	ldr	r3, [pc, #48]	; (10008020 <tud_task_ext+0x79c>)
10007fee:	9a01      	ldr	r2, [sp, #4]
10007ff0:	781b      	ldrb	r3, [r3, #0]
10007ff2:	3301      	adds	r3, #1
10007ff4:	4293      	cmp	r3, r2
10007ff6:	f6bf ae29 	bge.w	10007c4c <tud_task_ext+0x3c8>
10007ffa:	e774      	b.n	10007ee6 <tud_task_ext+0x662>
10007ffc:	693a      	ldr	r2, [r7, #16]
10007ffe:	4909      	ldr	r1, [pc, #36]	; (10008024 <tud_task_ext+0x7a0>)
10008000:	428a      	cmp	r2, r1
10008002:	bf08      	it	eq
10008004:	2302      	moveq	r3, #2
10008006:	e75c      	b.n	10007ec2 <tud_task_ext+0x63e>
10008008:	f04f 23e0 	mov.w	r3, #3758153728	; 0xe000e000
1000800c:	f8d3 3df0 	ldr.w	r3, [r3, #3568]	; 0xdf0
10008010:	07db      	lsls	r3, r3, #31
10008012:	f57f ac46 	bpl.w	100078a2 <tud_task_ext+0x1e>
10008016:	be00      	bkpt	0x0000
10008018:	e443      	b.n	100078a2 <tud_task_ext+0x1e>
1000801a:	bf00      	nop
1000801c:	200016a8 	.word	0x200016a8
10008020:	200422e4 	.word	0x200422e4
10008024:	1000871d 	.word	0x1000871d

10008028 <usbd_open_edpt_pair>:
10008028:	e92d 4ff8 	stmdb	sp!, {r3, r4, r5, r6, r7, r8, r9, sl, fp, lr}
1000802c:	9f0a      	ldr	r7, [sp, #40]	; 0x28
1000802e:	2a00      	cmp	r2, #0
10008030:	d040      	beq.n	100080b4 <usbd_open_edpt_pair+0x8c>
10008032:	460c      	mov	r4, r1
10008034:	461e      	mov	r6, r3
10008036:	4615      	mov	r5, r2
10008038:	f04f 0a00 	mov.w	sl, #0
1000803c:	f8df 907c 	ldr.w	r9, [pc, #124]	; 100080bc <usbd_open_edpt_pair+0x94>
10008040:	f8df 807c 	ldr.w	r8, [pc, #124]	; 100080c0 <usbd_open_edpt_pair+0x98>
10008044:	e018      	b.n	10008078 <usbd_open_edpt_pair+0x50>
10008046:	4620      	mov	r0, r4
10008048:	f898 1002 	ldrb.w	r1, [r8, #2]
1000804c:	f899 b000 	ldrb.w	fp, [r9]
10008050:	f000 fe38 	bl	10008cc4 <tu_edpt_validate>
10008054:	b1e0      	cbz	r0, 10008090 <usbd_open_edpt_pair+0x68>
10008056:	4621      	mov	r1, r4
10008058:	4658      	mov	r0, fp
1000805a:	f7ff fa13 	bl	10007484 <dcd_edpt_open>
1000805e:	b1f0      	cbz	r0, 1000809e <usbd_open_edpt_pair+0x76>
10008060:	78a2      	ldrb	r2, [r4, #2]
10008062:	f10a 0a01 	add.w	sl, sl, #1
10008066:	09d3      	lsrs	r3, r2, #7
10008068:	bf16      	itet	ne
1000806a:	9b0b      	ldrne	r3, [sp, #44]	; 0x2c
1000806c:	703a      	strbeq	r2, [r7, #0]
1000806e:	701a      	strbne	r2, [r3, #0]
10008070:	7822      	ldrb	r2, [r4, #0]
10008072:	45aa      	cmp	sl, r5
10008074:	4414      	add	r4, r2
10008076:	d01d      	beq.n	100080b4 <usbd_open_edpt_pair+0x8c>
10008078:	7862      	ldrb	r2, [r4, #1]
1000807a:	2a05      	cmp	r2, #5
1000807c:	d10f      	bne.n	1000809e <usbd_open_edpt_pair+0x76>
1000807e:	78e1      	ldrb	r1, [r4, #3]
10008080:	f001 0103 	and.w	r1, r1, #3
10008084:	42b1      	cmp	r1, r6
10008086:	d10a      	bne.n	1000809e <usbd_open_edpt_pair+0x76>
10008088:	78a2      	ldrb	r2, [r4, #2]
1000808a:	f012 0f70 	tst.w	r2, #112	; 0x70
1000808e:	d0da      	beq.n	10008046 <usbd_open_edpt_pair+0x1e>
10008090:	f04f 23e0 	mov.w	r3, #3758153728	; 0xe000e000
10008094:	f8d3 3df0 	ldr.w	r3, [r3, #3568]	; 0xdf0
10008098:	07da      	lsls	r2, r3, #31
1000809a:	d500      	bpl.n	1000809e <usbd_open_edpt_pair+0x76>
1000809c:	be00      	bkpt	0x0000
1000809e:	f04f 23e0 	mov.w	r3, #3758153728	; 0xe000e000
100080a2:	f8d3 3df0 	ldr.w	r3, [r3, #3568]	; 0xdf0
100080a6:	07db      	lsls	r3, r3, #31
100080a8:	d402      	bmi.n	100080b0 <usbd_open_edpt_pair+0x88>
100080aa:	2000      	movs	r0, #0
100080ac:	e8bd 8ff8 	ldmia.w	sp!, {r3, r4, r5, r6, r7, r8, r9, sl, fp, pc}
100080b0:	be00      	bkpt	0x0000
100080b2:	e7fa      	b.n	100080aa <usbd_open_edpt_pair+0x82>
100080b4:	2001      	movs	r0, #1
100080b6:	e8bd 8ff8 	ldmia.w	sp!, {r3, r4, r5, r6, r7, r8, r9, sl, fp, pc}
100080ba:	bf00      	nop
100080bc:	200012a8 	.word	0x200012a8
100080c0:	20001694 	.word	0x20001694

100080c4 <usbd_edpt_open>:
100080c4:	b538      	push	{r3, r4, r5, lr}
100080c6:	788b      	ldrb	r3, [r1, #2]
100080c8:	f013 0f70 	tst.w	r3, #112	; 0x70
100080cc:	d008      	beq.n	100080e0 <usbd_edpt_open+0x1c>
100080ce:	f04f 23e0 	mov.w	r3, #3758153728	; 0xe000e000
100080d2:	f8d3 3df0 	ldr.w	r3, [r3, #3568]	; 0xdf0
100080d6:	07db      	lsls	r3, r3, #31
100080d8:	d500      	bpl.n	100080dc <usbd_edpt_open+0x18>
100080da:	be00      	bkpt	0x0000
100080dc:	2000      	movs	r0, #0
100080de:	bd38      	pop	{r3, r4, r5, pc}
100080e0:	4a07      	ldr	r2, [pc, #28]	; (10008100 <usbd_edpt_open+0x3c>)
100080e2:	4b08      	ldr	r3, [pc, #32]	; (10008104 <usbd_edpt_open+0x40>)
100080e4:	460c      	mov	r4, r1
100080e6:	4608      	mov	r0, r1
100080e8:	7891      	ldrb	r1, [r2, #2]
100080ea:	781d      	ldrb	r5, [r3, #0]
100080ec:	f000 fdea 	bl	10008cc4 <tu_edpt_validate>
100080f0:	2800      	cmp	r0, #0
100080f2:	d0ec      	beq.n	100080ce <usbd_edpt_open+0xa>
100080f4:	4621      	mov	r1, r4
100080f6:	4628      	mov	r0, r5
100080f8:	e8bd 4038 	ldmia.w	sp!, {r3, r4, r5, lr}
100080fc:	f7ff b9c2 	b.w	10007484 <dcd_edpt_open>
10008100:	20001694 	.word	0x20001694
10008104:	200012a8 	.word	0x200012a8

10008108 <usbd_edpt_claim>:
10008108:	460b      	mov	r3, r1
1000810a:	4a06      	ldr	r2, [pc, #24]	; (10008124 <usbd_edpt_claim+0x1c>)
1000810c:	4806      	ldr	r0, [pc, #24]	; (10008128 <usbd_edpt_claim+0x20>)
1000810e:	6811      	ldr	r1, [r2, #0]
10008110:	09da      	lsrs	r2, r3, #7
10008112:	3234      	adds	r2, #52	; 0x34
10008114:	f003 037f 	and.w	r3, r3, #127	; 0x7f
10008118:	eb02 0343 	add.w	r3, r2, r3, lsl #1
1000811c:	4418      	add	r0, r3
1000811e:	f000 bd8b 	b.w	10008c38 <tu_edpt_claim>
10008122:	bf00      	nop
10008124:	200016e8 	.word	0x200016e8
10008128:	20001694 	.word	0x20001694

1000812c <usbd_edpt_release>:
1000812c:	460b      	mov	r3, r1
1000812e:	4a06      	ldr	r2, [pc, #24]	; (10008148 <usbd_edpt_release+0x1c>)
10008130:	4806      	ldr	r0, [pc, #24]	; (1000814c <usbd_edpt_release+0x20>)
10008132:	6811      	ldr	r1, [r2, #0]
10008134:	09da      	lsrs	r2, r3, #7
10008136:	3234      	adds	r2, #52	; 0x34
10008138:	f003 037f 	and.w	r3, r3, #127	; 0x7f
1000813c:	eb02 0343 	add.w	r3, r2, r3, lsl #1
10008140:	4418      	add	r0, r3
10008142:	f000 bda3 	b.w	10008c8c <tu_edpt_release>
10008146:	bf00      	nop
10008148:	200016e8 	.word	0x200016e8
1000814c:	20001694 	.word	0x20001694

10008150 <usbd_edpt_xfer>:
10008150:	b510      	push	{r4, lr}
10008152:	4c19      	ldr	r4, [pc, #100]	; (100081b8 <usbd_edpt_xfer+0x68>)
10008154:	f001 0c7f 	and.w	ip, r1, #127	; 0x7f
10008158:	eb04 044c 	add.w	r4, r4, ip, lsl #1
1000815c:	eb04 10d1 	add.w	r0, r4, r1, lsr #7
10008160:	f890 c034 	ldrb.w	ip, [r0, #52]	; 0x34
10008164:	f01c 0f01 	tst.w	ip, #1
10008168:	d008      	beq.n	1000817c <usbd_edpt_xfer+0x2c>
1000816a:	f04f 23e0 	mov.w	r3, #3758153728	; 0xe000e000
1000816e:	f8d3 3df0 	ldr.w	r3, [r3, #3568]	; 0xdf0
10008172:	07da      	lsls	r2, r3, #31
10008174:	d500      	bpl.n	10008178 <usbd_edpt_xfer+0x28>
10008176:	be00      	bkpt	0x0000
10008178:	2000      	movs	r0, #0
1000817a:	bd10      	pop	{r4, pc}
1000817c:	f890 c034 	ldrb.w	ip, [r0, #52]	; 0x34
10008180:	f100 0430 	add.w	r4, r0, #48	; 0x30
10008184:	480d      	ldr	r0, [pc, #52]	; (100081bc <usbd_edpt_xfer+0x6c>)
10008186:	f04c 0c01 	orr.w	ip, ip, #1
1000818a:	7800      	ldrb	r0, [r0, #0]
1000818c:	f884 c004 	strb.w	ip, [r4, #4]
10008190:	f7ff fa02 	bl	10007598 <dcd_edpt_xfer>
10008194:	2800      	cmp	r0, #0
10008196:	d1f0      	bne.n	1000817a <usbd_edpt_xfer+0x2a>
10008198:	f04f 22e0 	mov.w	r2, #3758153728	; 0xe000e000
1000819c:	7923      	ldrb	r3, [r4, #4]
1000819e:	f360 0300 	bfi	r3, r0, #0, #1
100081a2:	7123      	strb	r3, [r4, #4]
100081a4:	7923      	ldrb	r3, [r4, #4]
100081a6:	f360 0382 	bfi	r3, r0, #2, #1
100081aa:	7123      	strb	r3, [r4, #4]
100081ac:	f8d2 3df0 	ldr.w	r3, [r2, #3568]	; 0xdf0
100081b0:	07db      	lsls	r3, r3, #31
100081b2:	d5e1      	bpl.n	10008178 <usbd_edpt_xfer+0x28>
100081b4:	be00      	bkpt	0x0000
100081b6:	bd10      	pop	{r4, pc}
100081b8:	20001694 	.word	0x20001694
100081bc:	200012a8 	.word	0x200012a8

100081c0 <tud_control_status>:
100081c0:	b530      	push	{r4, r5, lr}
100081c2:	4c0b      	ldr	r4, [pc, #44]	; (100081f0 <tud_control_status+0x30>)
100081c4:	468c      	mov	ip, r1
100081c6:	46a6      	mov	lr, r4
100081c8:	2300      	movs	r3, #0
100081ca:	4605      	mov	r5, r0
100081cc:	6808      	ldr	r0, [r1, #0]
100081ce:	6849      	ldr	r1, [r1, #4]
100081d0:	461a      	mov	r2, r3
100081d2:	e8ae 0003 	stmia.w	lr!, {r0, r1}
100081d6:	f99c 1000 	ldrsb.w	r1, [ip]
100081da:	4628      	mov	r0, r5
100081dc:	4299      	cmp	r1, r3
100081de:	e9c4 3302 	strd	r3, r3, [r4, #8]
100081e2:	e8bd 4030 	ldmia.w	sp!, {r4, r5, lr}
100081e6:	bfac      	ite	ge
100081e8:	2180      	movge	r1, #128	; 0x80
100081ea:	4619      	movlt	r1, r3
100081ec:	f7ff bfb0 	b.w	10008150 <usbd_edpt_xfer>
100081f0:	20001654 	.word	0x20001654

100081f4 <tud_control_xfer>:
100081f4:	e92d 41f0 	stmdb	sp!, {r4, r5, r6, r7, r8, lr}
100081f8:	4f2f      	ldr	r7, [pc, #188]	; (100082b8 <tud_control_xfer+0xc4>)
100081fa:	f04f 0800 	mov.w	r8, #0
100081fe:	46be      	mov	lr, r7
10008200:	468c      	mov	ip, r1
10008202:	4606      	mov	r6, r0
10008204:	6808      	ldr	r0, [r1, #0]
10008206:	6849      	ldr	r1, [r1, #4]
10008208:	60ba      	str	r2, [r7, #8]
1000820a:	e8ae 0003 	stmia.w	lr!, {r0, r1}
1000820e:	f8a7 800e 	strh.w	r8, [r7, #14]
10008212:	f8bc 5006 	ldrh.w	r5, [ip, #6]
10008216:	b082      	sub	sp, #8
10008218:	42ab      	cmp	r3, r5
1000821a:	bf28      	it	cs
1000821c:	462b      	movcs	r3, r5
1000821e:	81bb      	strh	r3, [r7, #12]
10008220:	b19d      	cbz	r5, 1000824a <tud_control_xfer+0x56>
10008222:	b34b      	cbz	r3, 10008278 <tud_control_xfer+0x84>
10008224:	4614      	mov	r4, r2
10008226:	b37a      	cbz	r2, 10008288 <tud_control_xfer+0x94>
10008228:	f997 2000 	ldrsb.w	r2, [r7]
1000822c:	2b40      	cmp	r3, #64	; 0x40
1000822e:	bf28      	it	cs
10008230:	2340      	movcs	r3, #64	; 0x40
10008232:	2a00      	cmp	r2, #0
10008234:	db32      	blt.n	1000829c <tud_control_xfer+0xa8>
10008236:	4641      	mov	r1, r8
10008238:	4a20      	ldr	r2, [pc, #128]	; (100082bc <tud_control_xfer+0xc8>)
1000823a:	4630      	mov	r0, r6
1000823c:	f7ff ff88 	bl	10008150 <usbd_edpt_xfer>
10008240:	b180      	cbz	r0, 10008264 <tud_control_xfer+0x70>
10008242:	2001      	movs	r0, #1
10008244:	b002      	add	sp, #8
10008246:	e8bd 81f0 	ldmia.w	sp!, {r4, r5, r6, r7, r8, pc}
1000824a:	f99c 2000 	ldrsb.w	r2, [ip]
1000824e:	462b      	mov	r3, r5
10008250:	2a00      	cmp	r2, #0
10008252:	bfac      	ite	ge
10008254:	2180      	movge	r1, #128	; 0x80
10008256:	2100      	movlt	r1, #0
10008258:	462a      	mov	r2, r5
1000825a:	4630      	mov	r0, r6
1000825c:	f7ff ff78 	bl	10008150 <usbd_edpt_xfer>
10008260:	2800      	cmp	r0, #0
10008262:	d1ee      	bne.n	10008242 <tud_control_xfer+0x4e>
10008264:	f04f 23e0 	mov.w	r3, #3758153728	; 0xe000e000
10008268:	f8d3 3df0 	ldr.w	r3, [r3, #3568]	; 0xdf0
1000826c:	07db      	lsls	r3, r3, #31
1000826e:	d511      	bpl.n	10008294 <tud_control_xfer+0xa0>
10008270:	be00      	bkpt	0x0000
10008272:	b002      	add	sp, #8
10008274:	e8bd 81f0 	ldmia.w	sp!, {r4, r5, r6, r7, r8, pc}
10008278:	f997 1000 	ldrsb.w	r1, [r7]
1000827c:	461a      	mov	r2, r3
1000827e:	2900      	cmp	r1, #0
10008280:	bfac      	ite	ge
10008282:	4619      	movge	r1, r3
10008284:	2180      	movlt	r1, #128	; 0x80
10008286:	e7d8      	b.n	1000823a <tud_control_xfer+0x46>
10008288:	f04f 23e0 	mov.w	r3, #3758153728	; 0xe000e000
1000828c:	f8d3 3df0 	ldr.w	r3, [r3, #3568]	; 0xdf0
10008290:	07da      	lsls	r2, r3, #31
10008292:	d40d      	bmi.n	100082b0 <tud_control_xfer+0xbc>
10008294:	2000      	movs	r0, #0
10008296:	b002      	add	sp, #8
10008298:	e8bd 81f0 	ldmia.w	sp!, {r4, r5, r6, r7, r8, pc}
1000829c:	461a      	mov	r2, r3
1000829e:	4621      	mov	r1, r4
100082a0:	4806      	ldr	r0, [pc, #24]	; (100082bc <tud_control_xfer+0xc8>)
100082a2:	9301      	str	r3, [sp, #4]
100082a4:	f001 f8b0 	bl	10009408 <memcpy>
100082a8:	2180      	movs	r1, #128	; 0x80
100082aa:	4a04      	ldr	r2, [pc, #16]	; (100082bc <tud_control_xfer+0xc8>)
100082ac:	9b01      	ldr	r3, [sp, #4]
100082ae:	e7c4      	b.n	1000823a <tud_control_xfer+0x46>
100082b0:	be00      	bkpt	0x0000
100082b2:	4620      	mov	r0, r4
100082b4:	e7c6      	b.n	10008244 <tud_control_xfer+0x50>
100082b6:	bf00      	nop
100082b8:	20001654 	.word	0x20001654
100082bc:	20001614 	.word	0x20001614

100082c0 <usbd_control_reset>:
100082c0:	2200      	movs	r2, #0
100082c2:	4b03      	ldr	r3, [pc, #12]	; (100082d0 <usbd_control_reset+0x10>)
100082c4:	e9c3 2200 	strd	r2, r2, [r3]
100082c8:	e9c3 2202 	strd	r2, r2, [r3, #8]
100082cc:	611a      	str	r2, [r3, #16]
100082ce:	4770      	bx	lr
100082d0:	20001654 	.word	0x20001654

100082d4 <usbd_control_set_complete_callback>:
100082d4:	4b01      	ldr	r3, [pc, #4]	; (100082dc <usbd_control_set_complete_callback+0x8>)
100082d6:	6118      	str	r0, [r3, #16]
100082d8:	4770      	bx	lr
100082da:	bf00      	nop
100082dc:	20001654 	.word	0x20001654

100082e0 <usbd_control_set_request>:
100082e0:	b430      	push	{r4, r5}
100082e2:	4602      	mov	r2, r0
100082e4:	4c04      	ldr	r4, [pc, #16]	; (100082f8 <usbd_control_set_request+0x18>)
100082e6:	2500      	movs	r5, #0
100082e8:	4623      	mov	r3, r4
100082ea:	6800      	ldr	r0, [r0, #0]
100082ec:	6851      	ldr	r1, [r2, #4]
100082ee:	e9c4 5502 	strd	r5, r5, [r4, #8]
100082f2:	bc30      	pop	{r4, r5}
100082f4:	c303      	stmia	r3!, {r0, r1}
100082f6:	4770      	bx	lr
100082f8:	20001654 	.word	0x20001654

100082fc <usbd_control_xfer_cb>:
100082fc:	b570      	push	{r4, r5, r6, lr}
100082fe:	4c41      	ldr	r4, [pc, #260]	; (10008404 <usbd_control_xfer_cb+0x108>)
10008300:	09c9      	lsrs	r1, r1, #7
10008302:	7822      	ldrb	r2, [r4, #0]
10008304:	4605      	mov	r5, r0
10008306:	ebb1 1fd2 	cmp.w	r1, r2, lsr #7
1000830a:	461e      	mov	r6, r3
1000830c:	b082      	sub	sp, #8
1000830e:	d021      	beq.n	10008354 <usbd_control_xfer_cb+0x58>
10008310:	b14b      	cbz	r3, 10008326 <usbd_control_xfer_cb+0x2a>
10008312:	f04f 23e0 	mov.w	r3, #3758153728	; 0xe000e000
10008316:	f8d3 3df0 	ldr.w	r3, [r3, #3568]	; 0xdf0
1000831a:	07da      	lsls	r2, r3, #31
1000831c:	d500      	bpl.n	10008320 <usbd_control_xfer_cb+0x24>
1000831e:	be00      	bkpt	0x0000
10008320:	2000      	movs	r0, #0
10008322:	b002      	add	sp, #8
10008324:	bd70      	pop	{r4, r5, r6, pc}
10008326:	4621      	mov	r1, r4
10008328:	f7ff f89e 	bl	10007468 <dcd_edpt0_status_complete>
1000832c:	6923      	ldr	r3, [r4, #16]
1000832e:	b173      	cbz	r3, 1000834e <usbd_control_xfer_cb+0x52>
10008330:	4622      	mov	r2, r4
10008332:	2103      	movs	r1, #3
10008334:	4628      	mov	r0, r5
10008336:	4798      	blx	r3
10008338:	2001      	movs	r0, #1
1000833a:	b002      	add	sp, #8
1000833c:	bd70      	pop	{r4, r5, r6, pc}
1000833e:	4601      	mov	r1, r0
10008340:	4628      	mov	r0, r5
10008342:	f7ff f93d 	bl	100075c0 <dcd_edpt_stall>
10008346:	2180      	movs	r1, #128	; 0x80
10008348:	4628      	mov	r0, r5
1000834a:	f7ff f939 	bl	100075c0 <dcd_edpt_stall>
1000834e:	2001      	movs	r0, #1
10008350:	b002      	add	sp, #8
10008352:	bd70      	pop	{r4, r5, r6, pc}
10008354:	f994 2000 	ldrsb.w	r2, [r4]
10008358:	2a00      	cmp	r2, #0
1000835a:	db06      	blt.n	1000836a <usbd_control_xfer_cb+0x6e>
1000835c:	68a0      	ldr	r0, [r4, #8]
1000835e:	2800      	cmp	r0, #0
10008360:	d0de      	beq.n	10008320 <usbd_control_xfer_cb+0x24>
10008362:	461a      	mov	r2, r3
10008364:	4928      	ldr	r1, [pc, #160]	; (10008408 <usbd_control_xfer_cb+0x10c>)
10008366:	f001 f84f 	bl	10009408 <memcpy>
1000836a:	89e0      	ldrh	r0, [r4, #14]
1000836c:	68a1      	ldr	r1, [r4, #8]
1000836e:	88e2      	ldrh	r2, [r4, #6]
10008370:	4430      	add	r0, r6
10008372:	b280      	uxth	r0, r0
10008374:	4431      	add	r1, r6
10008376:	4282      	cmp	r2, r0
10008378:	81e0      	strh	r0, [r4, #14]
1000837a:	60a1      	str	r1, [r4, #8]
1000837c:	d016      	beq.n	100083ac <usbd_control_xfer_cb+0xb0>
1000837e:	2e3f      	cmp	r6, #63	; 0x3f
10008380:	d914      	bls.n	100083ac <usbd_control_xfer_cb+0xb0>
10008382:	89a2      	ldrh	r2, [r4, #12]
10008384:	f994 4000 	ldrsb.w	r4, [r4]
10008388:	1a13      	subs	r3, r2, r0
1000838a:	b29b      	uxth	r3, r3
1000838c:	2b40      	cmp	r3, #64	; 0x40
1000838e:	bf28      	it	cs
10008390:	2340      	movcs	r3, #64	; 0x40
10008392:	2c00      	cmp	r4, #0
10008394:	db27      	blt.n	100083e6 <usbd_control_xfer_cb+0xea>
10008396:	4290      	cmp	r0, r2
10008398:	f04f 0100 	mov.w	r1, #0
1000839c:	d02f      	beq.n	100083fe <usbd_control_xfer_cb+0x102>
1000839e:	4a1a      	ldr	r2, [pc, #104]	; (10008408 <usbd_control_xfer_cb+0x10c>)
100083a0:	4628      	mov	r0, r5
100083a2:	f7ff fed5 	bl	10008150 <usbd_edpt_xfer>
100083a6:	2800      	cmp	r0, #0
100083a8:	d1d1      	bne.n	1000834e <usbd_control_xfer_cb+0x52>
100083aa:	e014      	b.n	100083d6 <usbd_control_xfer_cb+0xda>
100083ac:	6923      	ldr	r3, [r4, #16]
100083ae:	b12b      	cbz	r3, 100083bc <usbd_control_xfer_cb+0xc0>
100083b0:	2102      	movs	r1, #2
100083b2:	4628      	mov	r0, r5
100083b4:	4a13      	ldr	r2, [pc, #76]	; (10008404 <usbd_control_xfer_cb+0x108>)
100083b6:	4798      	blx	r3
100083b8:	2800      	cmp	r0, #0
100083ba:	d0c0      	beq.n	1000833e <usbd_control_xfer_cb+0x42>
100083bc:	2300      	movs	r3, #0
100083be:	f994 2000 	ldrsb.w	r2, [r4]
100083c2:	4628      	mov	r0, r5
100083c4:	429a      	cmp	r2, r3
100083c6:	bfac      	ite	ge
100083c8:	2180      	movge	r1, #128	; 0x80
100083ca:	4619      	movlt	r1, r3
100083cc:	461a      	mov	r2, r3
100083ce:	f7ff febf 	bl	10008150 <usbd_edpt_xfer>
100083d2:	2800      	cmp	r0, #0
100083d4:	d1bb      	bne.n	1000834e <usbd_control_xfer_cb+0x52>
100083d6:	f04f 23e0 	mov.w	r3, #3758153728	; 0xe000e000
100083da:	f8d3 3df0 	ldr.w	r3, [r3, #3568]	; 0xdf0
100083de:	07db      	lsls	r3, r3, #31
100083e0:	d59e      	bpl.n	10008320 <usbd_control_xfer_cb+0x24>
100083e2:	be00      	bkpt	0x0000
100083e4:	e79d      	b.n	10008322 <usbd_control_xfer_cb+0x26>
100083e6:	4290      	cmp	r0, r2
100083e8:	d008      	beq.n	100083fc <usbd_control_xfer_cb+0x100>
100083ea:	461a      	mov	r2, r3
100083ec:	4806      	ldr	r0, [pc, #24]	; (10008408 <usbd_control_xfer_cb+0x10c>)
100083ee:	9301      	str	r3, [sp, #4]
100083f0:	f001 f80a 	bl	10009408 <memcpy>
100083f4:	2180      	movs	r1, #128	; 0x80
100083f6:	4a04      	ldr	r2, [pc, #16]	; (10008408 <usbd_control_xfer_cb+0x10c>)
100083f8:	9b01      	ldr	r3, [sp, #4]
100083fa:	e7d1      	b.n	100083a0 <usbd_control_xfer_cb+0xa4>
100083fc:	2180      	movs	r1, #128	; 0x80
100083fe:	2200      	movs	r2, #0
10008400:	e7ce      	b.n	100083a0 <usbd_control_xfer_cb+0xa4>
10008402:	bf00      	nop
10008404:	20001654 	.word	0x20001654
10008408:	20001614 	.word	0x20001614

1000840c <_prep_out_transaction.isra.0>:
1000840c:	e92d 41f0 	stmdb	sp!, {r4, r5, r6, r7, r8, lr}
10008410:	4604      	mov	r4, r0
10008412:	f7ff f99f 	bl	10007754 <tud_mounted>
10008416:	b908      	cbnz	r0, 1000841c <_prep_out_transaction.isra.0+0x10>
10008418:	e8bd 81f0 	ldmia.w	sp!, {r4, r5, r6, r7, r8, pc}
1000841c:	f7ff f9a2 	bl	10007764 <tud_suspended>
10008420:	4607      	mov	r7, r0
10008422:	2800      	cmp	r0, #0
10008424:	d1f8      	bne.n	10008418 <_prep_out_transaction.isra.0+0xc>
10008426:	25c8      	movs	r5, #200	; 0xc8
10008428:	4b14      	ldr	r3, [pc, #80]	; (1000847c <_prep_out_transaction.isra.0+0x70>)
1000842a:	fb05 3604 	mla	r6, r5, r4, r3
1000842e:	78f2      	ldrb	r2, [r6, #3]
10008430:	2a00      	cmp	r2, #0
10008432:	d0f1      	beq.n	10008418 <_prep_out_transaction.isra.0+0xc>
10008434:	fb05 3304 	mla	r3, r5, r4, r3
10008438:	f103 0510 	add.w	r5, r3, #16
1000843c:	4628      	mov	r0, r5
1000843e:	f000 fdf3 	bl	10009028 <tu_fifo_remaining>
10008442:	283f      	cmp	r0, #63	; 0x3f
10008444:	d9e8      	bls.n	10008418 <_prep_out_transaction.isra.0+0xc>
10008446:	4638      	mov	r0, r7
10008448:	78f1      	ldrb	r1, [r6, #3]
1000844a:	f7ff fe5d 	bl	10008108 <usbd_edpt_claim>
1000844e:	2800      	cmp	r0, #0
10008450:	d0e2      	beq.n	10008418 <_prep_out_transaction.isra.0+0xc>
10008452:	4628      	mov	r0, r5
10008454:	f000 fde8 	bl	10009028 <tu_fifo_remaining>
10008458:	283f      	cmp	r0, #63	; 0x3f
1000845a:	d909      	bls.n	10008470 <_prep_out_transaction.isra.0+0x64>
1000845c:	4a08      	ldr	r2, [pc, #32]	; (10008480 <_prep_out_transaction.isra.0+0x74>)
1000845e:	4638      	mov	r0, r7
10008460:	78f1      	ldrb	r1, [r6, #3]
10008462:	eb02 12c4 	add.w	r2, r2, r4, lsl #7
10008466:	2340      	movs	r3, #64	; 0x40
10008468:	e8bd 41f0 	ldmia.w	sp!, {r4, r5, r6, r7, r8, lr}
1000846c:	f7ff be70 	b.w	10008150 <usbd_edpt_xfer>
10008470:	4638      	mov	r0, r7
10008472:	78f1      	ldrb	r1, [r6, #3]
10008474:	e8bd 41f0 	ldmia.w	sp!, {r4, r5, r6, r7, r8, lr}
10008478:	f7ff be58 	b.w	1000812c <usbd_edpt_release>
1000847c:	2000154c 	.word	0x2000154c
10008480:	200014c8 	.word	0x200014c8

10008484 <tud_cdc_n_connected>:
10008484:	b510      	push	{r4, lr}
10008486:	4604      	mov	r4, r0
10008488:	f7ff f964 	bl	10007754 <tud_mounted>
1000848c:	b908      	cbnz	r0, 10008492 <tud_cdc_n_connected+0xe>
1000848e:	2000      	movs	r0, #0
10008490:	bd10      	pop	{r4, pc}
10008492:	f7ff f967 	bl	10007764 <tud_suspended>
10008496:	2800      	cmp	r0, #0
10008498:	d1f9      	bne.n	1000848e <tud_cdc_n_connected+0xa>
1000849a:	23c8      	movs	r3, #200	; 0xc8
1000849c:	4803      	ldr	r0, [pc, #12]	; (100084ac <tud_cdc_n_connected+0x28>)
1000849e:	fb03 0004 	mla	r0, r3, r4, r0
100084a2:	7900      	ldrb	r0, [r0, #4]
100084a4:	f000 0001 	and.w	r0, r0, #1
100084a8:	bd10      	pop	{r4, pc}
100084aa:	bf00      	nop
100084ac:	2000154c 	.word	0x2000154c

100084b0 <tud_cdc_n_available>:
100084b0:	22c8      	movs	r2, #200	; 0xc8
100084b2:	b508      	push	{r3, lr}
100084b4:	4b03      	ldr	r3, [pc, #12]	; (100084c4 <tud_cdc_n_available+0x14>)
100084b6:	fb02 3000 	mla	r0, r2, r0, r3
100084ba:	3010      	adds	r0, #16
100084bc:	f000 fd9a 	bl	10008ff4 <tu_fifo_count>
100084c0:	bd08      	pop	{r3, pc}
100084c2:	bf00      	nop
100084c4:	2000154c 	.word	0x2000154c

100084c8 <tud_cdc_n_read>:
100084c8:	e92d 43f8 	stmdb	sp!, {r3, r4, r5, r6, r7, r8, r9, lr}
100084cc:	f64f 74fe 	movw	r4, #65534	; 0xfffe
100084d0:	f64f 73ff 	movw	r3, #65535	; 0xffff
100084d4:	f04f 08c8 	mov.w	r8, #200	; 0xc8
100084d8:	42a2      	cmp	r2, r4
100084da:	bf98      	it	ls
100084dc:	4613      	movls	r3, r2
100084de:	4e1c      	ldr	r6, [pc, #112]	; (10008550 <tud_cdc_n_read+0x88>)
100084e0:	4604      	mov	r4, r0
100084e2:	fb08 6500 	mla	r5, r8, r0, r6
100084e6:	3510      	adds	r5, #16
100084e8:	4628      	mov	r0, r5
100084ea:	b29a      	uxth	r2, r3
100084ec:	f000 fdf8 	bl	100090e0 <tu_fifo_read_n>
100084f0:	4607      	mov	r7, r0
100084f2:	f7ff f92f 	bl	10007754 <tud_mounted>
100084f6:	b910      	cbnz	r0, 100084fe <tud_cdc_n_read+0x36>
100084f8:	4638      	mov	r0, r7
100084fa:	e8bd 83f8 	ldmia.w	sp!, {r3, r4, r5, r6, r7, r8, r9, pc}
100084fe:	f7ff f931 	bl	10007764 <tud_suspended>
10008502:	4681      	mov	r9, r0
10008504:	2800      	cmp	r0, #0
10008506:	d1f7      	bne.n	100084f8 <tud_cdc_n_read+0x30>
10008508:	fb08 6604 	mla	r6, r8, r4, r6
1000850c:	78f3      	ldrb	r3, [r6, #3]
1000850e:	2b00      	cmp	r3, #0
10008510:	d0f2      	beq.n	100084f8 <tud_cdc_n_read+0x30>
10008512:	4628      	mov	r0, r5
10008514:	f000 fd88 	bl	10009028 <tu_fifo_remaining>
10008518:	283f      	cmp	r0, #63	; 0x3f
1000851a:	d9ed      	bls.n	100084f8 <tud_cdc_n_read+0x30>
1000851c:	4648      	mov	r0, r9
1000851e:	78f1      	ldrb	r1, [r6, #3]
10008520:	f7ff fdf2 	bl	10008108 <usbd_edpt_claim>
10008524:	2800      	cmp	r0, #0
10008526:	d0e7      	beq.n	100084f8 <tud_cdc_n_read+0x30>
10008528:	4628      	mov	r0, r5
1000852a:	f000 fd7d 	bl	10009028 <tu_fifo_remaining>
1000852e:	283f      	cmp	r0, #63	; 0x3f
10008530:	d908      	bls.n	10008544 <tud_cdc_n_read+0x7c>
10008532:	4a08      	ldr	r2, [pc, #32]	; (10008554 <tud_cdc_n_read+0x8c>)
10008534:	4648      	mov	r0, r9
10008536:	2340      	movs	r3, #64	; 0x40
10008538:	78f1      	ldrb	r1, [r6, #3]
1000853a:	eb02 12c4 	add.w	r2, r2, r4, lsl #7
1000853e:	f7ff fe07 	bl	10008150 <usbd_edpt_xfer>
10008542:	e7d9      	b.n	100084f8 <tud_cdc_n_read+0x30>
10008544:	4648      	mov	r0, r9
10008546:	78f1      	ldrb	r1, [r6, #3]
10008548:	f7ff fdf0 	bl	1000812c <usbd_edpt_release>
1000854c:	e7d4      	b.n	100084f8 <tud_cdc_n_read+0x30>
1000854e:	bf00      	nop
10008550:	2000154c 	.word	0x2000154c
10008554:	200014c8 	.word	0x200014c8

10008558 <tud_cdc_n_write_flush>:
10008558:	e92d 41f0 	stmdb	sp!, {r4, r5, r6, r7, r8, lr}
1000855c:	4605      	mov	r5, r0
1000855e:	f7ff f8f9 	bl	10007754 <tud_mounted>
10008562:	b910      	cbnz	r0, 1000856a <tud_cdc_n_write_flush+0x12>
10008564:	2000      	movs	r0, #0
10008566:	e8bd 81f0 	ldmia.w	sp!, {r4, r5, r6, r7, r8, pc}
1000856a:	f7ff f8fb 	bl	10007764 <tud_suspended>
1000856e:	4607      	mov	r7, r0
10008570:	2800      	cmp	r0, #0
10008572:	d1f7      	bne.n	10008564 <tud_cdc_n_write_flush+0xc>
10008574:	f04f 08c8 	mov.w	r8, #200	; 0xc8
10008578:	4e17      	ldr	r6, [pc, #92]	; (100085d8 <tud_cdc_n_write_flush+0x80>)
1000857a:	fb08 6405 	mla	r4, r8, r5, r6
1000857e:	3424      	adds	r4, #36	; 0x24
10008580:	4620      	mov	r0, r4
10008582:	f000 fd37 	bl	10008ff4 <tu_fifo_count>
10008586:	2800      	cmp	r0, #0
10008588:	d0ec      	beq.n	10008564 <tud_cdc_n_write_flush+0xc>
1000858a:	fb08 6605 	mla	r6, r8, r5, r6
1000858e:	4638      	mov	r0, r7
10008590:	78b1      	ldrb	r1, [r6, #2]
10008592:	f7ff fdb9 	bl	10008108 <usbd_edpt_claim>
10008596:	2800      	cmp	r0, #0
10008598:	d0e4      	beq.n	10008564 <tud_cdc_n_write_flush+0xc>
1000859a:	2240      	movs	r2, #64	; 0x40
1000859c:	490f      	ldr	r1, [pc, #60]	; (100085dc <tud_cdc_n_write_flush+0x84>)
1000859e:	eb02 15c5 	add.w	r5, r2, r5, lsl #7
100085a2:	440d      	add	r5, r1
100085a4:	4620      	mov	r0, r4
100085a6:	4629      	mov	r1, r5
100085a8:	f000 fd9a 	bl	100090e0 <tu_fifo_read_n>
100085ac:	4604      	mov	r4, r0
100085ae:	b170      	cbz	r0, 100085ce <tud_cdc_n_write_flush+0x76>
100085b0:	4603      	mov	r3, r0
100085b2:	462a      	mov	r2, r5
100085b4:	4638      	mov	r0, r7
100085b6:	78b1      	ldrb	r1, [r6, #2]
100085b8:	f7ff fdca 	bl	10008150 <usbd_edpt_xfer>
100085bc:	b950      	cbnz	r0, 100085d4 <tud_cdc_n_write_flush+0x7c>
100085be:	f04f 23e0 	mov.w	r3, #3758153728	; 0xe000e000
100085c2:	f8d3 3df0 	ldr.w	r3, [r3, #3568]	; 0xdf0
100085c6:	07db      	lsls	r3, r3, #31
100085c8:	d5cc      	bpl.n	10008564 <tud_cdc_n_write_flush+0xc>
100085ca:	be00      	bkpt	0x0000
100085cc:	e7cb      	b.n	10008566 <tud_cdc_n_write_flush+0xe>
100085ce:	78b1      	ldrb	r1, [r6, #2]
100085d0:	f7ff fdac 	bl	1000812c <usbd_edpt_release>
100085d4:	4620      	mov	r0, r4
100085d6:	e7c6      	b.n	10008566 <tud_cdc_n_write_flush+0xe>
100085d8:	2000154c 	.word	0x2000154c
100085dc:	200014c8 	.word	0x200014c8

100085e0 <tud_cdc_n_write>:
100085e0:	b538      	push	{r3, r4, r5, lr}
100085e2:	f64f 75fe 	movw	r5, #65534	; 0xfffe
100085e6:	f64f 73ff 	movw	r3, #65535	; 0xffff
100085ea:	f04f 0cc8 	mov.w	ip, #200	; 0xc8
100085ee:	42aa      	cmp	r2, r5
100085f0:	bf98      	it	ls
100085f2:	4613      	movls	r3, r2
100085f4:	4c0b      	ldr	r4, [pc, #44]	; (10008624 <tud_cdc_n_write+0x44>)
100085f6:	b29a      	uxth	r2, r3
100085f8:	fb0c 4400 	mla	r4, ip, r0, r4
100085fc:	3424      	adds	r4, #36	; 0x24
100085fe:	4605      	mov	r5, r0
10008600:	4620      	mov	r0, r4
10008602:	f000 fe19 	bl	10009238 <tu_fifo_write_n>
10008606:	4603      	mov	r3, r0
10008608:	4620      	mov	r0, r4
1000860a:	461c      	mov	r4, r3
1000860c:	f000 fcf2 	bl	10008ff4 <tu_fifo_count>
10008610:	283f      	cmp	r0, #63	; 0x3f
10008612:	d801      	bhi.n	10008618 <tud_cdc_n_write+0x38>
10008614:	4620      	mov	r0, r4
10008616:	bd38      	pop	{r3, r4, r5, pc}
10008618:	4628      	mov	r0, r5
1000861a:	f7ff ff9d 	bl	10008558 <tud_cdc_n_write_flush>
1000861e:	4620      	mov	r0, r4
10008620:	bd38      	pop	{r3, r4, r5, pc}
10008622:	bf00      	nop
10008624:	2000154c 	.word	0x2000154c

10008628 <tud_cdc_n_write_available>:
10008628:	22c8      	movs	r2, #200	; 0xc8
1000862a:	b508      	push	{r3, lr}
1000862c:	4b03      	ldr	r3, [pc, #12]	; (1000863c <tud_cdc_n_write_available+0x14>)
1000862e:	fb02 3000 	mla	r0, r2, r0, r3
10008632:	3024      	adds	r0, #36	; 0x24
10008634:	f000 fcf8 	bl	10009028 <tu_fifo_remaining>
10008638:	bd08      	pop	{r3, pc}
1000863a:	bf00      	nop
1000863c:	2000154c 	.word	0x2000154c

10008640 <cdcd_init>:
10008640:	b5f0      	push	{r4, r5, r6, r7, lr}
10008642:	2500      	movs	r5, #0
10008644:	4c18      	ldr	r4, [pc, #96]	; (100086a8 <cdcd_init+0x68>)
10008646:	b083      	sub	sp, #12
10008648:	4629      	mov	r1, r5
1000864a:	22c8      	movs	r2, #200	; 0xc8
1000864c:	4620      	mov	r0, r4
1000864e:	f000 ff51 	bl	100094f4 <memset>
10008652:	23ff      	movs	r3, #255	; 0xff
10008654:	f44f 31e1 	mov.w	r1, #115200	; 0x1c200
10008658:	2208      	movs	r2, #8
1000865a:	4814      	ldr	r0, [pc, #80]	; (100086ac <cdcd_init+0x6c>)
1000865c:	7163      	strb	r3, [r4, #5]
1000865e:	7005      	strb	r5, [r0, #0]
10008660:	60a1      	str	r1, [r4, #8]
10008662:	73a2      	strb	r2, [r4, #14]
10008664:	f104 0138 	add.w	r1, r4, #56	; 0x38
10008668:	2301      	movs	r3, #1
1000866a:	2240      	movs	r2, #64	; 0x40
1000866c:	9500      	str	r5, [sp, #0]
1000866e:	f104 0010 	add.w	r0, r4, #16
10008672:	f000 fc8d 	bl	10008f90 <tu_fifo_config>
10008676:	2301      	movs	r3, #1
10008678:	2240      	movs	r2, #64	; 0x40
1000867a:	f104 0178 	add.w	r1, r4, #120	; 0x78
1000867e:	9300      	str	r3, [sp, #0]
10008680:	f104 07b8 	add.w	r7, r4, #184	; 0xb8
10008684:	f104 0024 	add.w	r0, r4, #36	; 0x24
10008688:	f000 fc82 	bl	10008f90 <tu_fifo_config>
1000868c:	f104 06c0 	add.w	r6, r4, #192	; 0xc0
10008690:	4638      	mov	r0, r7
10008692:	f7f8 fb81 	bl	10000d98 <mutex_init>
10008696:	4630      	mov	r0, r6
10008698:	f7f8 fb7e 	bl	10000d98 <mutex_init>
1000869c:	e9c4 5707 	strd	r5, r7, [r4, #28]
100086a0:	e9c4 650c 	strd	r6, r5, [r4, #48]	; 0x30
100086a4:	b003      	add	sp, #12
100086a6:	bdf0      	pop	{r4, r5, r6, r7, pc}
100086a8:	2000154c 	.word	0x2000154c
100086ac:	20001548 	.word	0x20001548

100086b0 <cdcd_deinit>:
100086b0:	4b06      	ldr	r3, [pc, #24]	; (100086cc <cdcd_deinit+0x1c>)
100086b2:	6a1a      	ldr	r2, [r3, #32]
100086b4:	6b19      	ldr	r1, [r3, #48]	; 0x30
100086b6:	b112      	cbz	r2, 100086be <cdcd_deinit+0xe>
100086b8:	2200      	movs	r2, #0
100086ba:	e9c3 2207 	strd	r2, r2, [r3, #28]
100086be:	b111      	cbz	r1, 100086c6 <cdcd_deinit+0x16>
100086c0:	2200      	movs	r2, #0
100086c2:	e9c3 220c 	strd	r2, r2, [r3, #48]	; 0x30
100086c6:	2001      	movs	r0, #1
100086c8:	4770      	bx	lr
100086ca:	bf00      	nop
100086cc:	2000154c 	.word	0x2000154c

100086d0 <cdcd_reset>:
100086d0:	2200      	movs	r2, #0
100086d2:	b510      	push	{r4, lr}
100086d4:	4c0e      	ldr	r4, [pc, #56]	; (10008710 <cdcd_reset+0x40>)
100086d6:	480f      	ldr	r0, [pc, #60]	; (10008714 <cdcd_reset+0x44>)
100086d8:	7823      	ldrb	r3, [r4, #0]
100086da:	6002      	str	r2, [r0, #0]
100086dc:	7102      	strb	r2, [r0, #4]
100086de:	07da      	lsls	r2, r3, #31
100086e0:	d507      	bpl.n	100086f2 <cdcd_reset+0x22>
100086e2:	079b      	lsls	r3, r3, #30
100086e4:	d50b      	bpl.n	100086fe <cdcd_reset+0x2e>
100086e6:	e8bd 4010 	ldmia.w	sp!, {r4, lr}
100086ea:	2101      	movs	r1, #1
100086ec:	480a      	ldr	r0, [pc, #40]	; (10008718 <cdcd_reset+0x48>)
100086ee:	f000 be6d 	b.w	100093cc <tu_fifo_set_overwritable>
100086f2:	3010      	adds	r0, #16
100086f4:	f000 fe4e 	bl	10009394 <tu_fifo_clear>
100086f8:	7823      	ldrb	r3, [r4, #0]
100086fa:	079b      	lsls	r3, r3, #30
100086fc:	d4f3      	bmi.n	100086e6 <cdcd_reset+0x16>
100086fe:	4806      	ldr	r0, [pc, #24]	; (10008718 <cdcd_reset+0x48>)
10008700:	f000 fe48 	bl	10009394 <tu_fifo_clear>
10008704:	e8bd 4010 	ldmia.w	sp!, {r4, lr}
10008708:	2101      	movs	r1, #1
1000870a:	4803      	ldr	r0, [pc, #12]	; (10008718 <cdcd_reset+0x48>)
1000870c:	f000 be5e 	b.w	100093cc <tu_fifo_set_overwritable>
10008710:	20001548 	.word	0x20001548
10008714:	2000154c 	.word	0x2000154c
10008718:	20001570 	.word	0x20001570

1000871c <cdcd_open>:
1000871c:	b5f0      	push	{r4, r5, r6, r7, lr}
1000871e:	794b      	ldrb	r3, [r1, #5]
10008720:	b083      	sub	sp, #12
10008722:	2b02      	cmp	r3, #2
10008724:	d102      	bne.n	1000872c <cdcd_open+0x10>
10008726:	798b      	ldrb	r3, [r1, #6]
10008728:	2b02      	cmp	r3, #2
1000872a:	d003      	beq.n	10008734 <cdcd_open+0x18>
1000872c:	2500      	movs	r5, #0
1000872e:	4628      	mov	r0, r5
10008730:	b003      	add	sp, #12
10008732:	bdf0      	pop	{r4, r5, r6, r7, pc}
10008734:	4f26      	ldr	r7, [pc, #152]	; (100087d0 <cdcd_open+0xb4>)
10008736:	78bb      	ldrb	r3, [r7, #2]
10008738:	b13b      	cbz	r3, 1000874a <cdcd_open+0x2e>
1000873a:	f04f 23e0 	mov.w	r3, #3758153728	; 0xe000e000
1000873e:	f8d3 3df0 	ldr.w	r3, [r3, #3568]	; 0xdf0
10008742:	07db      	lsls	r3, r3, #31
10008744:	d5f2      	bpl.n	1000872c <cdcd_open+0x10>
10008746:	be00      	bkpt	0x0000
10008748:	e7f0      	b.n	1000872c <cdcd_open+0x10>
1000874a:	788b      	ldrb	r3, [r1, #2]
1000874c:	4606      	mov	r6, r0
1000874e:	703b      	strb	r3, [r7, #0]
10008750:	780c      	ldrb	r4, [r1, #0]
10008752:	2509      	movs	r5, #9
10008754:	440c      	add	r4, r1
10008756:	7861      	ldrb	r1, [r4, #1]
10008758:	2924      	cmp	r1, #36	; 0x24
1000875a:	d10b      	bne.n	10008774 <cdcd_open+0x58>
1000875c:	2a08      	cmp	r2, #8
1000875e:	d802      	bhi.n	10008766 <cdcd_open+0x4a>
10008760:	e00f      	b.n	10008782 <cdcd_open+0x66>
10008762:	42aa      	cmp	r2, r5
10008764:	d30d      	bcc.n	10008782 <cdcd_open+0x66>
10008766:	7823      	ldrb	r3, [r4, #0]
10008768:	441c      	add	r4, r3
1000876a:	7861      	ldrb	r1, [r4, #1]
1000876c:	442b      	add	r3, r5
1000876e:	2924      	cmp	r1, #36	; 0x24
10008770:	b29d      	uxth	r5, r3
10008772:	d0f6      	beq.n	10008762 <cdcd_open+0x46>
10008774:	2905      	cmp	r1, #5
10008776:	d00a      	beq.n	1000878e <cdcd_open+0x72>
10008778:	2904      	cmp	r1, #4
1000877a:	d102      	bne.n	10008782 <cdcd_open+0x66>
1000877c:	7963      	ldrb	r3, [r4, #5]
1000877e:	2b0a      	cmp	r3, #10
10008780:	d013      	beq.n	100087aa <cdcd_open+0x8e>
10008782:	2000      	movs	r0, #0
10008784:	f7ff fe42 	bl	1000840c <_prep_out_transaction.isra.0>
10008788:	4628      	mov	r0, r5
1000878a:	b003      	add	sp, #12
1000878c:	bdf0      	pop	{r4, r5, r6, r7, pc}
1000878e:	4621      	mov	r1, r4
10008790:	4630      	mov	r0, r6
10008792:	f7ff fc97 	bl	100080c4 <usbd_edpt_open>
10008796:	2800      	cmp	r0, #0
10008798:	d0cf      	beq.n	1000873a <cdcd_open+0x1e>
1000879a:	78a3      	ldrb	r3, [r4, #2]
1000879c:	707b      	strb	r3, [r7, #1]
1000879e:	7823      	ldrb	r3, [r4, #0]
100087a0:	441c      	add	r4, r3
100087a2:	442b      	add	r3, r5
100087a4:	7861      	ldrb	r1, [r4, #1]
100087a6:	b29d      	uxth	r5, r3
100087a8:	e7e6      	b.n	10008778 <cdcd_open+0x5c>
100087aa:	4b0a      	ldr	r3, [pc, #40]	; (100087d4 <cdcd_open+0xb8>)
100087ac:	7827      	ldrb	r7, [r4, #0]
100087ae:	9301      	str	r3, [sp, #4]
100087b0:	3301      	adds	r3, #1
100087b2:	9300      	str	r3, [sp, #0]
100087b4:	2302      	movs	r3, #2
100087b6:	4630      	mov	r0, r6
100087b8:	461a      	mov	r2, r3
100087ba:	19e1      	adds	r1, r4, r7
100087bc:	f7ff fc34 	bl	10008028 <usbd_open_edpt_pair>
100087c0:	2800      	cmp	r0, #0
100087c2:	d0ba      	beq.n	1000873a <cdcd_open+0x1e>
100087c4:	f105 030e 	add.w	r3, r5, #14
100087c8:	fa17 f383 	uxtah	r3, r7, r3
100087cc:	b29d      	uxth	r5, r3
100087ce:	e7d8      	b.n	10008782 <cdcd_open+0x66>
100087d0:	2000154c 	.word	0x2000154c
100087d4:	2000154e 	.word	0x2000154e

100087d8 <cdcd_control_xfer_cb>:
100087d8:	7813      	ldrb	r3, [r2, #0]
100087da:	f003 0360 	and.w	r3, r3, #96	; 0x60
100087de:	2b20      	cmp	r3, #32
100087e0:	d108      	bne.n	100087f4 <cdcd_control_xfer_cb+0x1c>
100087e2:	b570      	push	{r4, r5, r6, lr}
100087e4:	4c28      	ldr	r4, [pc, #160]	; (10008888 <cdcd_control_xfer_cb+0xb0>)
100087e6:	8893      	ldrh	r3, [r2, #4]
100087e8:	f894 c000 	ldrb.w	ip, [r4]
100087ec:	459c      	cmp	ip, r3
100087ee:	d003      	beq.n	100087f8 <cdcd_control_xfer_cb+0x20>
100087f0:	2000      	movs	r0, #0
100087f2:	bd70      	pop	{r4, r5, r6, pc}
100087f4:	2000      	movs	r0, #0
100087f6:	4770      	bx	lr
100087f8:	7853      	ldrb	r3, [r2, #1]
100087fa:	3b20      	subs	r3, #32
100087fc:	2b03      	cmp	r3, #3
100087fe:	d8f7      	bhi.n	100087f0 <cdcd_control_xfer_cb+0x18>
10008800:	e8df f003 	tbb	[pc, r3]
10008804:	020d2428 	.word	0x020d2428
10008808:	2901      	cmp	r1, #1
1000880a:	d030      	beq.n	1000886e <cdcd_control_xfer_cb+0x96>
1000880c:	2903      	cmp	r1, #3
1000880e:	d11f      	bne.n	10008850 <cdcd_control_xfer_cb+0x78>
10008810:	4b1e      	ldr	r3, [pc, #120]	; (1000888c <cdcd_control_xfer_cb+0xb4>)
10008812:	b1eb      	cbz	r3, 10008850 <cdcd_control_xfer_cb+0x78>
10008814:	2000      	movs	r0, #0
10008816:	8851      	ldrh	r1, [r2, #2]
10008818:	e000      	b.n	1000881c <cdcd_control_xfer_cb+0x44>
1000881a:	bf00      	nop
1000881c:	e018      	b.n	10008850 <cdcd_control_xfer_cb+0x78>
1000881e:	2901      	cmp	r1, #1
10008820:	d025      	beq.n	1000886e <cdcd_control_xfer_cb+0x96>
10008822:	2903      	cmp	r1, #3
10008824:	d114      	bne.n	10008850 <cdcd_control_xfer_cb+0x78>
10008826:	8855      	ldrh	r5, [r2, #2]
10008828:	4819      	ldr	r0, [pc, #100]	; (10008890 <cdcd_control_xfer_cb+0xb8>)
1000882a:	f005 0601 	and.w	r6, r5, #1
1000882e:	f086 0101 	eor.w	r1, r6, #1
10008832:	7125      	strb	r5, [r4, #4]
10008834:	f000 fdca 	bl	100093cc <tu_fifo_set_overwritable>
10008838:	4b16      	ldr	r3, [pc, #88]	; (10008894 <cdcd_control_xfer_cb+0xbc>)
1000883a:	b14b      	cbz	r3, 10008850 <cdcd_control_xfer_cb+0x78>
1000883c:	4631      	mov	r1, r6
1000883e:	2000      	movs	r0, #0
10008840:	f3c5 0240 	ubfx	r2, r5, #1, #1
10008844:	e000      	b.n	10008848 <cdcd_control_xfer_cb+0x70>
10008846:	bf00      	nop
10008848:	2001      	movs	r0, #1
1000884a:	bd70      	pop	{r4, r5, r6, pc}
1000884c:	2901      	cmp	r1, #1
1000884e:	d013      	beq.n	10008878 <cdcd_control_xfer_cb+0xa0>
10008850:	2001      	movs	r0, #1
10008852:	bd70      	pop	{r4, r5, r6, pc}
10008854:	2901      	cmp	r1, #1
10008856:	d00f      	beq.n	10008878 <cdcd_control_xfer_cb+0xa0>
10008858:	2903      	cmp	r1, #3
1000885a:	d1f9      	bne.n	10008850 <cdcd_control_xfer_cb+0x78>
1000885c:	4b0e      	ldr	r3, [pc, #56]	; (10008898 <cdcd_control_xfer_cb+0xc0>)
1000885e:	2b00      	cmp	r3, #0
10008860:	d0f6      	beq.n	10008850 <cdcd_control_xfer_cb+0x78>
10008862:	2000      	movs	r0, #0
10008864:	490d      	ldr	r1, [pc, #52]	; (1000889c <cdcd_control_xfer_cb+0xc4>)
10008866:	f7fe fa79 	bl	10006d5c <tud_cdc_line_coding_cb>
1000886a:	2001      	movs	r0, #1
1000886c:	bd70      	pop	{r4, r5, r6, pc}
1000886e:	4611      	mov	r1, r2
10008870:	f7ff fca6 	bl	100081c0 <tud_control_status>
10008874:	2001      	movs	r0, #1
10008876:	bd70      	pop	{r4, r5, r6, pc}
10008878:	4611      	mov	r1, r2
1000887a:	2307      	movs	r3, #7
1000887c:	4a07      	ldr	r2, [pc, #28]	; (1000889c <cdcd_control_xfer_cb+0xc4>)
1000887e:	f7ff fcb9 	bl	100081f4 <tud_control_xfer>
10008882:	2001      	movs	r0, #1
10008884:	bd70      	pop	{r4, r5, r6, pc}
10008886:	bf00      	nop
10008888:	2000154c 	.word	0x2000154c
1000888c:	00000000 	.word	0x00000000
10008890:	20001570 	.word	0x20001570
10008894:	00000000 	.word	0x00000000
10008898:	10006d5d 	.word	0x10006d5d
1000889c:	20001554 	.word	0x20001554

100088a0 <cdcd_xfer_cb>:
100088a0:	e92d 47f0 	stmdb	sp!, {r4, r5, r6, r7, r8, r9, sl, lr}
100088a4:	4d37      	ldr	r5, [pc, #220]	; (10008984 <cdcd_xfer_cb+0xe4>)
100088a6:	460c      	mov	r4, r1
100088a8:	78ea      	ldrb	r2, [r5, #3]
100088aa:	4607      	mov	r7, r0
100088ac:	428a      	cmp	r2, r1
100088ae:	461e      	mov	r6, r3
100088b0:	d155      	bne.n	1000895e <cdcd_xfer_cb+0xbe>
100088b2:	f8df 80e8 	ldr.w	r8, [pc, #232]	; 1000899c <cdcd_xfer_cb+0xfc>
100088b6:	b29a      	uxth	r2, r3
100088b8:	4641      	mov	r1, r8
100088ba:	f105 0010 	add.w	r0, r5, #16
100088be:	f000 fcbb 	bl	10009238 <tu_fifo_write_n>
100088c2:	4b31      	ldr	r3, [pc, #196]	; (10008988 <cdcd_xfer_cb+0xe8>)
100088c4:	b1c3      	cbz	r3, 100088f8 <cdcd_xfer_cb+0x58>
100088c6:	796b      	ldrb	r3, [r5, #5]
100088c8:	2bff      	cmp	r3, #255	; 0xff
100088ca:	d015      	beq.n	100088f8 <cdcd_xfer_cb+0x58>
100088cc:	b1a6      	cbz	r6, 100088f8 <cdcd_xfer_cb+0x58>
100088ce:	f105 0910 	add.w	r9, r5, #16
100088d2:	eb08 0a06 	add.w	sl, r8, r6
100088d6:	e002      	b.n	100088de <cdcd_xfer_cb+0x3e>
100088d8:	45d0      	cmp	r8, sl
100088da:	d00d      	beq.n	100088f8 <cdcd_xfer_cb+0x58>
100088dc:	796b      	ldrb	r3, [r5, #5]
100088de:	f818 2b01 	ldrb.w	r2, [r8], #1
100088e2:	429a      	cmp	r2, r3
100088e4:	d1f8      	bne.n	100088d8 <cdcd_xfer_cb+0x38>
100088e6:	4648      	mov	r0, r9
100088e8:	f000 fb94 	bl	10009014 <tu_fifo_empty>
100088ec:	2800      	cmp	r0, #0
100088ee:	d1f3      	bne.n	100088d8 <cdcd_xfer_cb+0x38>
100088f0:	7969      	ldrb	r1, [r5, #5]
100088f2:	e000      	b.n	100088f6 <cdcd_xfer_cb+0x56>
100088f4:	bf00      	nop
100088f6:	e7ef      	b.n	100088d8 <cdcd_xfer_cb+0x38>
100088f8:	4b24      	ldr	r3, [pc, #144]	; (1000898c <cdcd_xfer_cb+0xec>)
100088fa:	b123      	cbz	r3, 10008906 <cdcd_xfer_cb+0x66>
100088fc:	4824      	ldr	r0, [pc, #144]	; (10008990 <cdcd_xfer_cb+0xf0>)
100088fe:	f000 fb89 	bl	10009014 <tu_fifo_empty>
10008902:	2800      	cmp	r0, #0
10008904:	d03a      	beq.n	1000897c <cdcd_xfer_cb+0xdc>
10008906:	2000      	movs	r0, #0
10008908:	f7ff fd80 	bl	1000840c <_prep_out_transaction.isra.0>
1000890c:	78ab      	ldrb	r3, [r5, #2]
1000890e:	42a3      	cmp	r3, r4
10008910:	d003      	beq.n	1000891a <cdcd_xfer_cb+0x7a>
10008912:	2401      	movs	r4, #1
10008914:	4620      	mov	r0, r4
10008916:	e8bd 87f0 	ldmia.w	sp!, {r4, r5, r6, r7, r8, r9, sl, pc}
1000891a:	4b1e      	ldr	r3, [pc, #120]	; (10008994 <cdcd_xfer_cb+0xf4>)
1000891c:	b113      	cbz	r3, 10008924 <cdcd_xfer_cb+0x84>
1000891e:	2000      	movs	r0, #0
10008920:	e000      	b.n	10008924 <cdcd_xfer_cb+0x84>
10008922:	bf00      	nop
10008924:	2000      	movs	r0, #0
10008926:	f7ff fe17 	bl	10008558 <tud_cdc_n_write_flush>
1000892a:	2800      	cmp	r0, #0
1000892c:	d1f1      	bne.n	10008912 <cdcd_xfer_cb+0x72>
1000892e:	481a      	ldr	r0, [pc, #104]	; (10008998 <cdcd_xfer_cb+0xf8>)
10008930:	f000 fb60 	bl	10008ff4 <tu_fifo_count>
10008934:	2800      	cmp	r0, #0
10008936:	d1ec      	bne.n	10008912 <cdcd_xfer_cb+0x72>
10008938:	2e00      	cmp	r6, #0
1000893a:	d0ea      	beq.n	10008912 <cdcd_xfer_cb+0x72>
1000893c:	f016 063f 	ands.w	r6, r6, #63	; 0x3f
10008940:	d1e7      	bne.n	10008912 <cdcd_xfer_cb+0x72>
10008942:	4638      	mov	r0, r7
10008944:	78a9      	ldrb	r1, [r5, #2]
10008946:	f7ff fbdf 	bl	10008108 <usbd_edpt_claim>
1000894a:	4604      	mov	r4, r0
1000894c:	2800      	cmp	r0, #0
1000894e:	d0e0      	beq.n	10008912 <cdcd_xfer_cb+0x72>
10008950:	4633      	mov	r3, r6
10008952:	4632      	mov	r2, r6
10008954:	4638      	mov	r0, r7
10008956:	78a9      	ldrb	r1, [r5, #2]
10008958:	f7ff fbfa 	bl	10008150 <usbd_edpt_xfer>
1000895c:	e7da      	b.n	10008914 <cdcd_xfer_cb+0x74>
1000895e:	78ab      	ldrb	r3, [r5, #2]
10008960:	428b      	cmp	r3, r1
10008962:	d0da      	beq.n	1000891a <cdcd_xfer_cb+0x7a>
10008964:	f04f 23e0 	mov.w	r3, #3758153728	; 0xe000e000
10008968:	f8d3 4df0 	ldr.w	r4, [r3, #3568]	; 0xdf0
1000896c:	f014 0401 	ands.w	r4, r4, #1
10008970:	d0d0      	beq.n	10008914 <cdcd_xfer_cb+0x74>
10008972:	be00      	bkpt	0x0000
10008974:	2400      	movs	r4, #0
10008976:	4620      	mov	r0, r4
10008978:	e8bd 87f0 	ldmia.w	sp!, {r4, r5, r6, r7, r8, r9, sl, pc}
1000897c:	e000      	b.n	10008980 <cdcd_xfer_cb+0xe0>
1000897e:	bf00      	nop
10008980:	e7c1      	b.n	10008906 <cdcd_xfer_cb+0x66>
10008982:	bf00      	nop
10008984:	2000154c 	.word	0x2000154c
	...
10008990:	2000155c 	.word	0x2000155c
10008994:	00000000 	.word	0x00000000
10008998:	20001570 	.word	0x20001570
1000899c:	200014c8 	.word	0x200014c8

100089a0 <vendord_init>:
100089a0:	b5f0      	push	{r4, r5, r6, r7, lr}
100089a2:	4c14      	ldr	r4, [pc, #80]	; (100089f4 <vendord_init+0x54>)
100089a4:	b085      	sub	sp, #20
100089a6:	f44f 7213 	mov.w	r2, #588	; 0x24c
100089aa:	2100      	movs	r1, #0
100089ac:	4620      	mov	r0, r4
100089ae:	f000 fda1 	bl	100094f4 <memset>
100089b2:	2740      	movs	r7, #64	; 0x40
100089b4:	2300      	movs	r3, #0
100089b6:	f44f 7680 	mov.w	r6, #256	; 0x100
100089ba:	4d0f      	ldr	r5, [pc, #60]	; (100089f8 <vendord_init+0x58>)
100089bc:	f504 72a6 	add.w	r2, r4, #332	; 0x14c
100089c0:	4619      	mov	r1, r3
100089c2:	9502      	str	r5, [sp, #8]
100089c4:	9200      	str	r2, [sp, #0]
100089c6:	f504 7094 	add.w	r0, r4, #296	; 0x128
100089ca:	461a      	mov	r2, r3
100089cc:	9703      	str	r7, [sp, #12]
100089ce:	9601      	str	r6, [sp, #4]
100089d0:	f000 f9d8 	bl	10008d84 <tu_edpt_stream_init>
100089d4:	2300      	movs	r3, #0
100089d6:	f104 0228 	add.w	r2, r4, #40	; 0x28
100089da:	443d      	add	r5, r7
100089dc:	9200      	str	r2, [sp, #0]
100089de:	4619      	mov	r1, r3
100089e0:	2201      	movs	r2, #1
100089e2:	e9cd 5702 	strd	r5, r7, [sp, #8]
100089e6:	9601      	str	r6, [sp, #4]
100089e8:	1d20      	adds	r0, r4, #4
100089ea:	f000 f9cb 	bl	10008d84 <tu_edpt_stream_init>
100089ee:	b005      	add	sp, #20
100089f0:	bdf0      	pop	{r4, r5, r6, r7, pc}
100089f2:	bf00      	nop
100089f4:	20001830 	.word	0x20001830
100089f8:	200017b0 	.word	0x200017b0

100089fc <vendord_deinit>:
100089fc:	b510      	push	{r4, lr}
100089fe:	4c05      	ldr	r4, [pc, #20]	; (10008a14 <vendord_deinit+0x18>)
10008a00:	f504 7094 	add.w	r0, r4, #296	; 0x128
10008a04:	f000 f9ea 	bl	10008ddc <tu_edpt_stream_deinit>
10008a08:	1d20      	adds	r0, r4, #4
10008a0a:	f000 f9e7 	bl	10008ddc <tu_edpt_stream_deinit>
10008a0e:	2001      	movs	r0, #1
10008a10:	bd10      	pop	{r4, pc}
10008a12:	bf00      	nop
10008a14:	20001830 	.word	0x20001830

10008a18 <vendord_reset>:
10008a18:	b538      	push	{r3, r4, r5, lr}
10008a1a:	2500      	movs	r5, #0
10008a1c:	4c06      	ldr	r4, [pc, #24]	; (10008a38 <vendord_reset+0x20>)
10008a1e:	f504 7098 	add.w	r0, r4, #304	; 0x130
10008a22:	7025      	strb	r5, [r4, #0]
10008a24:	f000 fcb6 	bl	10009394 <tu_fifo_clear>
10008a28:	f104 000c 	add.w	r0, r4, #12
10008a2c:	f000 fcb2 	bl	10009394 <tu_fifo_clear>
10008a30:	f884 5129 	strb.w	r5, [r4, #297]	; 0x129
10008a34:	7165      	strb	r5, [r4, #5]
10008a36:	bd38      	pop	{r3, r4, r5, pc}
10008a38:	20001830 	.word	0x20001830

10008a3c <vendord_open>:
10008a3c:	e92d 4ff8 	stmdb	sp!, {r3, r4, r5, r6, r7, r8, r9, sl, fp, lr}
10008a40:	794b      	ldrb	r3, [r1, #5]
10008a42:	2bff      	cmp	r3, #255	; 0xff
10008a44:	d150      	bne.n	10008ae8 <vendord_open+0xac>
10008a46:	4d39      	ldr	r5, [pc, #228]	; (10008b2c <vendord_open+0xf0>)
10008a48:	780c      	ldrb	r4, [r1, #0]
10008a4a:	f895 3129 	ldrb.w	r3, [r5, #297]	; 0x129
10008a4e:	796e      	ldrb	r6, [r5, #5]
10008a50:	440c      	add	r4, r1
10008a52:	431e      	orrs	r6, r3
10008a54:	460f      	mov	r7, r1
10008a56:	eb04 0b02 	add.w	fp, r4, r2
10008a5a:	d145      	bne.n	10008ae8 <vendord_open+0xac>
10008a5c:	788b      	ldrb	r3, [r1, #2]
10008a5e:	702b      	strb	r3, [r5, #0]
10008a60:	790b      	ldrb	r3, [r1, #4]
10008a62:	2b00      	cmp	r3, #0
10008a64:	d03c      	beq.n	10008ae0 <vendord_open+0xa4>
10008a66:	4680      	mov	r8, r0
10008a68:	f505 7998 	add.w	r9, r5, #304	; 0x130
10008a6c:	f105 0a0c 	add.w	sl, r5, #12
10008a70:	7863      	ldrb	r3, [r4, #1]
10008a72:	2b05      	cmp	r3, #5
10008a74:	d009      	beq.n	10008a8a <vendord_open+0x4e>
10008a76:	45a3      	cmp	fp, r4
10008a78:	d802      	bhi.n	10008a80 <vendord_open+0x44>
10008a7a:	e031      	b.n	10008ae0 <vendord_open+0xa4>
10008a7c:	455c      	cmp	r4, fp
10008a7e:	d22f      	bcs.n	10008ae0 <vendord_open+0xa4>
10008a80:	7823      	ldrb	r3, [r4, #0]
10008a82:	441c      	add	r4, r3
10008a84:	7863      	ldrb	r3, [r4, #1]
10008a86:	2b05      	cmp	r3, #5
10008a88:	d1f8      	bne.n	10008a7c <vendord_open+0x40>
10008a8a:	45a3      	cmp	fp, r4
10008a8c:	d928      	bls.n	10008ae0 <vendord_open+0xa4>
10008a8e:	4621      	mov	r1, r4
10008a90:	4640      	mov	r0, r8
10008a92:	f7ff fb17 	bl	100080c4 <usbd_edpt_open>
10008a96:	2800      	cmp	r0, #0
10008a98:	d03f      	beq.n	10008b1a <vendord_open+0xde>
10008a9a:	78a3      	ldrb	r3, [r4, #2]
10008a9c:	09db      	lsrs	r3, r3, #7
10008a9e:	d126      	bne.n	10008aee <vendord_open+0xb2>
10008aa0:	4648      	mov	r0, r9
10008aa2:	f000 fc77 	bl	10009394 <tu_fifo_clear>
10008aa6:	78a3      	ldrb	r3, [r4, #2]
10008aa8:	f895 2128 	ldrb.w	r2, [r5, #296]	; 0x128
10008aac:	f885 3129 	strb.w	r3, [r5, #297]	; 0x129
10008ab0:	88a3      	ldrh	r3, [r4, #4]
10008ab2:	4640      	mov	r0, r8
10008ab4:	f3c3 030a 	ubfx	r3, r3, #0, #11
10008ab8:	f5a3 7300 	sub.w	r3, r3, #512	; 0x200
10008abc:	fab3 f383 	clz	r3, r3
10008ac0:	095b      	lsrs	r3, r3, #5
10008ac2:	f363 0241 	bfi	r2, r3, #1, #1
10008ac6:	491a      	ldr	r1, [pc, #104]	; (10008b30 <vendord_open+0xf4>)
10008ac8:	f885 2128 	strb.w	r2, [r5, #296]	; 0x128
10008acc:	f000 f9f6 	bl	10008ebc <tu_edpt_stream_read_xfer>
10008ad0:	b318      	cbz	r0, 10008b1a <vendord_open+0xde>
10008ad2:	793a      	ldrb	r2, [r7, #4]
10008ad4:	3601      	adds	r6, #1
10008ad6:	7821      	ldrb	r1, [r4, #0]
10008ad8:	b2f3      	uxtb	r3, r6
10008ada:	429a      	cmp	r2, r3
10008adc:	440c      	add	r4, r1
10008ade:	d8c7      	bhi.n	10008a70 <vendord_open+0x34>
10008ae0:	1be0      	subs	r0, r4, r7
10008ae2:	b280      	uxth	r0, r0
10008ae4:	e8bd 8ff8 	ldmia.w	sp!, {r3, r4, r5, r6, r7, r8, r9, sl, fp, pc}
10008ae8:	2000      	movs	r0, #0
10008aea:	e8bd 8ff8 	ldmia.w	sp!, {r3, r4, r5, r6, r7, r8, r9, sl, fp, pc}
10008aee:	4650      	mov	r0, sl
10008af0:	f000 fc50 	bl	10009394 <tu_fifo_clear>
10008af4:	78a3      	ldrb	r3, [r4, #2]
10008af6:	792a      	ldrb	r2, [r5, #4]
10008af8:	716b      	strb	r3, [r5, #5]
10008afa:	88a3      	ldrh	r3, [r4, #4]
10008afc:	490d      	ldr	r1, [pc, #52]	; (10008b34 <vendord_open+0xf8>)
10008afe:	f3c3 030a 	ubfx	r3, r3, #0, #11
10008b02:	f5a3 7300 	sub.w	r3, r3, #512	; 0x200
10008b06:	fab3 f383 	clz	r3, r3
10008b0a:	095b      	lsrs	r3, r3, #5
10008b0c:	f363 0241 	bfi	r2, r3, #1, #1
10008b10:	2000      	movs	r0, #0
10008b12:	712a      	strb	r2, [r5, #4]
10008b14:	f000 f998 	bl	10008e48 <tu_edpt_stream_write_xfer>
10008b18:	e7db      	b.n	10008ad2 <vendord_open+0x96>
10008b1a:	f04f 23e0 	mov.w	r3, #3758153728	; 0xe000e000
10008b1e:	f8d3 3df0 	ldr.w	r3, [r3, #3568]	; 0xdf0
10008b22:	07db      	lsls	r3, r3, #31
10008b24:	d5e0      	bpl.n	10008ae8 <vendord_open+0xac>
10008b26:	be00      	bkpt	0x0000
10008b28:	e7df      	b.n	10008aea <vendord_open+0xae>
10008b2a:	bf00      	nop
10008b2c:	20001830 	.word	0x20001830
10008b30:	20001958 	.word	0x20001958
10008b34:	20001834 	.word	0x20001834

10008b38 <vendord_xfer_cb>:
10008b38:	b570      	push	{r4, r5, r6, lr}
10008b3a:	4c1c      	ldr	r4, [pc, #112]	; (10008bac <vendord_xfer_cb+0x74>)
10008b3c:	4606      	mov	r6, r0
10008b3e:	f894 c129 	ldrb.w	ip, [r4, #297]	; 0x129
10008b42:	461d      	mov	r5, r3
10008b44:	458c      	cmp	ip, r1
10008b46:	d117      	bne.n	10008b78 <vendord_xfer_cb+0x40>
10008b48:	f8b4 3134 	ldrh.w	r3, [r4, #308]	; 0x134
10008b4c:	b963      	cbnz	r3, 10008b68 <vendord_xfer_cb+0x30>
10008b4e:	4b18      	ldr	r3, [pc, #96]	; (10008bb0 <vendord_xfer_cb+0x78>)
10008b50:	b123      	cbz	r3, 10008b5c <vendord_xfer_cb+0x24>
10008b52:	2000      	movs	r0, #0
10008b54:	4917      	ldr	r1, [pc, #92]	; (10008bb4 <vendord_xfer_cb+0x7c>)
10008b56:	b2aa      	uxth	r2, r5
10008b58:	e000      	b.n	10008b5c <vendord_xfer_cb+0x24>
10008b5a:	bf00      	nop
10008b5c:	4630      	mov	r0, r6
10008b5e:	4916      	ldr	r1, [pc, #88]	; (10008bb8 <vendord_xfer_cb+0x80>)
10008b60:	f000 f9ac 	bl	10008ebc <tu_edpt_stream_read_xfer>
10008b64:	2001      	movs	r0, #1
10008b66:	bd70      	pop	{r4, r5, r6, pc}
10008b68:	f8d4 112c 	ldr.w	r1, [r4, #300]	; 0x12c
10008b6c:	b2aa      	uxth	r2, r5
10008b6e:	f504 7098 	add.w	r0, r4, #304	; 0x130
10008b72:	f000 fb61 	bl	10009238 <tu_fifo_write_n>
10008b76:	e7ea      	b.n	10008b4e <vendord_xfer_cb+0x16>
10008b78:	7963      	ldrb	r3, [r4, #5]
10008b7a:	428b      	cmp	r3, r1
10008b7c:	d001      	beq.n	10008b82 <vendord_xfer_cb+0x4a>
10008b7e:	2000      	movs	r0, #0
10008b80:	bd70      	pop	{r4, r5, r6, pc}
10008b82:	4b0e      	ldr	r3, [pc, #56]	; (10008bbc <vendord_xfer_cb+0x84>)
10008b84:	b11b      	cbz	r3, 10008b8e <vendord_xfer_cb+0x56>
10008b86:	2000      	movs	r0, #0
10008b88:	b2a9      	uxth	r1, r5
10008b8a:	e000      	b.n	10008b8e <vendord_xfer_cb+0x56>
10008b8c:	bf00      	nop
10008b8e:	4630      	mov	r0, r6
10008b90:	490b      	ldr	r1, [pc, #44]	; (10008bc0 <vendord_xfer_cb+0x88>)
10008b92:	f000 f959 	bl	10008e48 <tu_edpt_stream_write_xfer>
10008b96:	b108      	cbz	r0, 10008b9c <vendord_xfer_cb+0x64>
10008b98:	2001      	movs	r0, #1
10008b9a:	bd70      	pop	{r4, r5, r6, pc}
10008b9c:	462a      	mov	r2, r5
10008b9e:	4630      	mov	r0, r6
10008ba0:	4907      	ldr	r1, [pc, #28]	; (10008bc0 <vendord_xfer_cb+0x88>)
10008ba2:	f000 f91d 	bl	10008de0 <tu_edpt_stream_write_zlp_if_needed>
10008ba6:	2001      	movs	r0, #1
10008ba8:	bd70      	pop	{r4, r5, r6, pc}
10008baa:	bf00      	nop
10008bac:	20001830 	.word	0x20001830
10008bb0:	00000000 	.word	0x00000000
10008bb4:	200017b0 	.word	0x200017b0
10008bb8:	20001958 	.word	0x20001958
10008bbc:	00000000 	.word	0x00000000
10008bc0:	20001834 	.word	0x20001834

10008bc4 <tusb_rhport_init>:
10008bc4:	b510      	push	{r4, lr}
10008bc6:	b082      	sub	sp, #8
10008bc8:	b1a9      	cbz	r1, 10008bf6 <tusb_rhport_init+0x32>
10008bca:	2801      	cmp	r0, #1
10008bcc:	d808      	bhi.n	10008be0 <tusb_rhport_init+0x1c>
10008bce:	780b      	ldrb	r3, [r1, #0]
10008bd0:	b133      	cbz	r3, 10008be0 <tusb_rhport_init+0x1c>
10008bd2:	4c18      	ldr	r4, [pc, #96]	; (10008c34 <tusb_rhport_init+0x70>)
10008bd4:	2b01      	cmp	r3, #1
10008bd6:	5423      	strb	r3, [r4, r0]
10008bd8:	d020      	beq.n	10008c1c <tusb_rhport_init+0x58>
10008bda:	2001      	movs	r0, #1
10008bdc:	b002      	add	sp, #8
10008bde:	bd10      	pop	{r4, pc}
10008be0:	f04f 23e0 	mov.w	r3, #3758153728	; 0xe000e000
10008be4:	f8d3 3df0 	ldr.w	r3, [r3, #3568]	; 0xdf0
10008be8:	07da      	lsls	r2, r3, #31
10008bea:	d402      	bmi.n	10008bf2 <tusb_rhport_init+0x2e>
10008bec:	2000      	movs	r0, #0
10008bee:	b002      	add	sp, #8
10008bf0:	bd10      	pop	{r4, pc}
10008bf2:	be00      	bkpt	0x0000
10008bf4:	e7fa      	b.n	10008bec <tusb_rhport_init+0x28>
10008bf6:	2401      	movs	r4, #1
10008bf8:	4608      	mov	r0, r1
10008bfa:	a901      	add	r1, sp, #4
10008bfc:	f8ad 4004 	strh.w	r4, [sp, #4]
10008c00:	f7fe fdb8 	bl	10007774 <tud_rhport_init>
10008c04:	b938      	cbnz	r0, 10008c16 <tusb_rhport_init+0x52>
10008c06:	f04f 23e0 	mov.w	r3, #3758153728	; 0xe000e000
10008c0a:	f8d3 3df0 	ldr.w	r3, [r3, #3568]	; 0xdf0
10008c0e:	07d9      	lsls	r1, r3, #31
10008c10:	d5ed      	bpl.n	10008bee <tusb_rhport_init+0x2a>
10008c12:	be00      	bkpt	0x0000
10008c14:	e7eb      	b.n	10008bee <tusb_rhport_init+0x2a>
10008c16:	4b07      	ldr	r3, [pc, #28]	; (10008c34 <tusb_rhport_init+0x70>)
10008c18:	701c      	strb	r4, [r3, #0]
10008c1a:	e7e8      	b.n	10008bee <tusb_rhport_init+0x2a>
10008c1c:	f7fe fdaa 	bl	10007774 <tud_rhport_init>
10008c20:	2800      	cmp	r0, #0
10008c22:	d1da      	bne.n	10008bda <tusb_rhport_init+0x16>
10008c24:	f04f 23e0 	mov.w	r3, #3758153728	; 0xe000e000
10008c28:	f8d3 3df0 	ldr.w	r3, [r3, #3568]	; 0xdf0
10008c2c:	07db      	lsls	r3, r3, #31
10008c2e:	d5dd      	bpl.n	10008bec <tusb_rhport_init+0x28>
10008c30:	e7ef      	b.n	10008c12 <tusb_rhport_init+0x4e>
10008c32:	bf00      	nop
10008c34:	20001688 	.word	0x20001688

10008c38 <tu_edpt_claim>:
10008c38:	b5f8      	push	{r3, r4, r5, r6, r7, lr}
10008c3a:	7803      	ldrb	r3, [r0, #0]
10008c3c:	f013 0401 	ands.w	r4, r3, #1
10008c40:	d11a      	bne.n	10008c78 <tu_edpt_claim+0x40>
10008c42:	7803      	ldrb	r3, [r0, #0]
10008c44:	4605      	mov	r5, r0
10008c46:	075a      	lsls	r2, r3, #29
10008c48:	f3c3 0780 	ubfx	r7, r3, #2, #1
10008c4c:	d501      	bpl.n	10008c52 <tu_edpt_claim+0x1a>
10008c4e:	4620      	mov	r0, r4
10008c50:	bdf8      	pop	{r3, r4, r5, r6, r7, pc}
10008c52:	460e      	mov	r6, r1
10008c54:	f04f 31ff 	mov.w	r1, #4294967295
10008c58:	4630      	mov	r0, r6
10008c5a:	f000 fced 	bl	10009638 <__mutex_enter_timeout_ms_veneer>
10008c5e:	782b      	ldrb	r3, [r5, #0]
10008c60:	f013 0401 	ands.w	r4, r3, #1
10008c64:	d10b      	bne.n	10008c7e <tu_edpt_claim+0x46>
10008c66:	782b      	ldrb	r3, [r5, #0]
10008c68:	075b      	lsls	r3, r3, #29
10008c6a:	d409      	bmi.n	10008c80 <tu_edpt_claim+0x48>
10008c6c:	782b      	ldrb	r3, [r5, #0]
10008c6e:	2401      	movs	r4, #1
10008c70:	f043 0304 	orr.w	r3, r3, #4
10008c74:	702b      	strb	r3, [r5, #0]
10008c76:	e003      	b.n	10008c80 <tu_edpt_claim+0x48>
10008c78:	2400      	movs	r4, #0
10008c7a:	4620      	mov	r0, r4
10008c7c:	bdf8      	pop	{r3, r4, r5, r6, r7, pc}
10008c7e:	463c      	mov	r4, r7
10008c80:	4630      	mov	r0, r6
10008c82:	f000 fcc1 	bl	10009608 <__mutex_exit_veneer>
10008c86:	4620      	mov	r0, r4
10008c88:	bdf8      	pop	{r3, r4, r5, r6, r7, pc}
10008c8a:	bf00      	nop

10008c8c <tu_edpt_release>:
10008c8c:	b570      	push	{r4, r5, r6, lr}
10008c8e:	460d      	mov	r5, r1
10008c90:	4604      	mov	r4, r0
10008c92:	f04f 31ff 	mov.w	r1, #4294967295
10008c96:	4628      	mov	r0, r5
10008c98:	f000 fcce 	bl	10009638 <__mutex_enter_timeout_ms_veneer>
10008c9c:	7823      	ldrb	r3, [r4, #0]
10008c9e:	f3c3 0680 	ubfx	r6, r3, #2, #1
10008ca2:	075b      	lsls	r3, r3, #29
10008ca4:	d508      	bpl.n	10008cb8 <tu_edpt_release+0x2c>
10008ca6:	7823      	ldrb	r3, [r4, #0]
10008ca8:	f013 0201 	ands.w	r2, r3, #1
10008cac:	bf11      	iteee	ne
10008cae:	2600      	movne	r6, #0
10008cb0:	7823      	ldrbeq	r3, [r4, #0]
10008cb2:	f362 0382 	bfieq	r3, r2, #2, #1
10008cb6:	7023      	strbeq	r3, [r4, #0]
10008cb8:	4628      	mov	r0, r5
10008cba:	f000 fca5 	bl	10009608 <__mutex_exit_veneer>
10008cbe:	4630      	mov	r0, r6
10008cc0:	bd70      	pop	{r4, r5, r6, pc}
10008cc2:	bf00      	nop

10008cc4 <tu_edpt_validate>:
10008cc4:	78c3      	ldrb	r3, [r0, #3]
10008cc6:	8882      	ldrh	r2, [r0, #4]
10008cc8:	f003 0003 	and.w	r0, r3, #3
10008ccc:	2802      	cmp	r0, #2
10008cce:	f3c2 020a 	ubfx	r2, r2, #0, #11
10008cd2:	d005      	beq.n	10008ce0 <tu_edpt_validate+0x1c>
10008cd4:	2803      	cmp	r0, #3
10008cd6:	d01b      	beq.n	10008d10 <tu_edpt_validate+0x4c>
10008cd8:	2801      	cmp	r0, #1
10008cda:	d007      	beq.n	10008cec <tu_edpt_validate+0x28>
10008cdc:	2000      	movs	r0, #0
10008cde:	4770      	bx	lr
10008ce0:	2902      	cmp	r1, #2
10008ce2:	d01e      	beq.n	10008d22 <tu_edpt_validate+0x5e>
10008ce4:	2a40      	cmp	r2, #64	; 0x40
10008ce6:	d809      	bhi.n	10008cfc <tu_edpt_validate+0x38>
10008ce8:	2001      	movs	r0, #1
10008cea:	4770      	bx	lr
10008cec:	2902      	cmp	r1, #2
10008cee:	f240 33ff 	movw	r3, #1023	; 0x3ff
10008cf2:	bf08      	it	eq
10008cf4:	f44f 6380 	moveq.w	r3, #1024	; 0x400
10008cf8:	4293      	cmp	r3, r2
10008cfa:	d2f6      	bcs.n	10008cea <tu_edpt_validate+0x26>
10008cfc:	f04f 23e0 	mov.w	r3, #3758153728	; 0xe000e000
10008d00:	f8d3 0df0 	ldr.w	r0, [r3, #3568]	; 0xdf0
10008d04:	f010 0001 	ands.w	r0, r0, #1
10008d08:	d0ef      	beq.n	10008cea <tu_edpt_validate+0x26>
10008d0a:	be00      	bkpt	0x0000
10008d0c:	2000      	movs	r0, #0
10008d0e:	4770      	bx	lr
10008d10:	2902      	cmp	r1, #2
10008d12:	bf0c      	ite	eq
10008d14:	f44f 6380 	moveq.w	r3, #1024	; 0x400
10008d18:	2340      	movne	r3, #64	; 0x40
10008d1a:	4293      	cmp	r3, r2
10008d1c:	d3ee      	bcc.n	10008cfc <tu_edpt_validate+0x38>
10008d1e:	2001      	movs	r0, #1
10008d20:	e7e3      	b.n	10008cea <tu_edpt_validate+0x26>
10008d22:	f5b2 7f00 	cmp.w	r2, #512	; 0x200
10008d26:	d0df      	beq.n	10008ce8 <tu_edpt_validate+0x24>
10008d28:	e7e8      	b.n	10008cfc <tu_edpt_validate+0x38>
10008d2a:	bf00      	nop

10008d2c <tu_edpt_bind_driver>:
10008d2c:	440a      	add	r2, r1
10008d2e:	4291      	cmp	r1, r2
10008d30:	d226      	bcs.n	10008d80 <tu_edpt_bind_driver+0x54>
10008d32:	f891 c001 	ldrb.w	ip, [r1, #1]
10008d36:	f1bc 0f05 	cmp.w	ip, #5
10008d3a:	d005      	beq.n	10008d48 <tu_edpt_bind_driver+0x1c>
10008d3c:	f891 c000 	ldrb.w	ip, [r1]
10008d40:	4461      	add	r1, ip
10008d42:	428a      	cmp	r2, r1
10008d44:	d8f5      	bhi.n	10008d32 <tu_edpt_bind_driver+0x6>
10008d46:	4770      	bx	lr
10008d48:	b500      	push	{lr}
10008d4a:	f891 c002 	ldrb.w	ip, [r1, #2]
10008d4e:	f00c 0e7f 	and.w	lr, ip, #127	; 0x7f
10008d52:	eb00 0e4e 	add.w	lr, r0, lr, lsl #1
10008d56:	ea4f 1cdc 	mov.w	ip, ip, lsr #7
10008d5a:	f80e 300c 	strb.w	r3, [lr, ip]
10008d5e:	f891 c000 	ldrb.w	ip, [r1]
10008d62:	4461      	add	r1, ip
10008d64:	428a      	cmp	r2, r1
10008d66:	d909      	bls.n	10008d7c <tu_edpt_bind_driver+0x50>
10008d68:	f891 c001 	ldrb.w	ip, [r1, #1]
10008d6c:	f1bc 0f05 	cmp.w	ip, #5
10008d70:	d0eb      	beq.n	10008d4a <tu_edpt_bind_driver+0x1e>
10008d72:	f891 c000 	ldrb.w	ip, [r1]
10008d76:	4461      	add	r1, ip
10008d78:	428a      	cmp	r2, r1
10008d7a:	d8f5      	bhi.n	10008d68 <tu_edpt_bind_driver+0x3c>
10008d7c:	f85d fb04 	ldr.w	pc, [sp], #4
10008d80:	4770      	bx	lr
10008d82:	bf00      	nop

10008d84 <tu_edpt_stream_init>:
10008d84:	e92d 41f0 	stmdb	sp!, {r4, r5, r6, r7, r8, lr}
10008d88:	468e      	mov	lr, r1
10008d8a:	b082      	sub	sp, #8
10008d8c:	9300      	str	r3, [sp, #0]
10008d8e:	f890 c000 	ldrb.w	ip, [r0]
10008d92:	9e08      	ldr	r6, [sp, #32]
10008d94:	f8bd 7024 	ldrh.w	r7, [sp, #36]	; 0x24
10008d98:	f36e 0c00 	bfi	ip, lr, #0, #1
10008d9c:	4604      	mov	r4, r0
10008d9e:	4615      	mov	r5, r2
10008da0:	2301      	movs	r3, #1
10008da2:	4631      	mov	r1, r6
10008da4:	463a      	mov	r2, r7
10008da6:	f800 cb08 	strb.w	ip, [r0], #8
10008daa:	f8bd 802c 	ldrh.w	r8, [sp, #44]	; 0x2c
10008dae:	f000 f8ef 	bl	10008f90 <tu_fifo_config>
10008db2:	b106      	cbz	r6, 10008db6 <tu_edpt_stream_init+0x32>
10008db4:	b93f      	cbnz	r7, 10008dc6 <tu_edpt_stream_init+0x42>
10008db6:	2001      	movs	r0, #1
10008db8:	9b0a      	ldr	r3, [sp, #40]	; 0x28
10008dba:	f8a4 8002 	strh.w	r8, [r4, #2]
10008dbe:	6063      	str	r3, [r4, #4]
10008dc0:	b002      	add	sp, #8
10008dc2:	e8bd 81f0 	ldmia.w	sp!, {r4, r5, r6, r7, r8, pc}
10008dc6:	f104 061c 	add.w	r6, r4, #28
10008dca:	4630      	mov	r0, r6
10008dcc:	f7f7 ffe4 	bl	10000d98 <mutex_init>
10008dd0:	b10d      	cbz	r5, 10008dd6 <tu_edpt_stream_init+0x52>
10008dd2:	4635      	mov	r5, r6
10008dd4:	2600      	movs	r6, #0
10008dd6:	e9c4 5605 	strd	r5, r6, [r4, #20]
10008dda:	e7ec      	b.n	10008db6 <tu_edpt_stream_init+0x32>

10008ddc <tu_edpt_stream_deinit>:
10008ddc:	2001      	movs	r0, #1
10008dde:	4770      	bx	lr

10008de0 <tu_edpt_stream_write_zlp_if_needed>:
10008de0:	b5f8      	push	{r3, r4, r5, r6, r7, lr}
10008de2:	4607      	mov	r7, r0
10008de4:	4608      	mov	r0, r1
10008de6:	f240 13ff 	movw	r3, #511	; 0x1ff
10008dea:	4615      	mov	r5, r2
10008dec:	f810 2b08 	ldrb.w	r2, [r0], #8
10008df0:	460c      	mov	r4, r1
10008df2:	f012 0f02 	tst.w	r2, #2
10008df6:	bf14      	ite	ne
10008df8:	461e      	movne	r6, r3
10008dfa:	263f      	moveq	r6, #63	; 0x3f
10008dfc:	f000 f8fa 	bl	10008ff4 <tu_fifo_count>
10008e00:	b928      	cbnz	r0, 10008e0e <tu_edpt_stream_write_zlp_if_needed+0x2e>
10008e02:	b125      	cbz	r5, 10008e0e <tu_edpt_stream_write_zlp_if_needed+0x2e>
10008e04:	4235      	tst	r5, r6
10008e06:	d102      	bne.n	10008e0e <tu_edpt_stream_write_zlp_if_needed+0x2e>
10008e08:	7823      	ldrb	r3, [r4, #0]
10008e0a:	07da      	lsls	r2, r3, #31
10008e0c:	d501      	bpl.n	10008e12 <tu_edpt_stream_write_zlp_if_needed+0x32>
10008e0e:	2000      	movs	r0, #0
10008e10:	bdf8      	pop	{r3, r4, r5, r6, r7, pc}
10008e12:	4638      	mov	r0, r7
10008e14:	7861      	ldrb	r1, [r4, #1]
10008e16:	f7ff f977 	bl	10008108 <usbd_edpt_claim>
10008e1a:	2800      	cmp	r0, #0
10008e1c:	d0f7      	beq.n	10008e0e <tu_edpt_stream_write_zlp_if_needed+0x2e>
10008e1e:	7823      	ldrb	r3, [r4, #0]
10008e20:	f013 0301 	ands.w	r3, r3, #1
10008e24:	d007      	beq.n	10008e36 <tu_edpt_stream_write_zlp_if_needed+0x56>
10008e26:	f04f 23e0 	mov.w	r3, #3758153728	; 0xe000e000
10008e2a:	f8d3 3df0 	ldr.w	r3, [r3, #3568]	; 0xdf0
10008e2e:	07db      	lsls	r3, r3, #31
10008e30:	d5ed      	bpl.n	10008e0e <tu_edpt_stream_write_zlp_if_needed+0x2e>
10008e32:	be00      	bkpt	0x0000
10008e34:	e7eb      	b.n	10008e0e <tu_edpt_stream_write_zlp_if_needed+0x2e>
10008e36:	461a      	mov	r2, r3
10008e38:	4638      	mov	r0, r7
10008e3a:	7861      	ldrb	r1, [r4, #1]
10008e3c:	f7ff f988 	bl	10008150 <usbd_edpt_xfer>
10008e40:	2800      	cmp	r0, #0
10008e42:	d0f0      	beq.n	10008e26 <tu_edpt_stream_write_zlp_if_needed+0x46>
10008e44:	bdf8      	pop	{r3, r4, r5, r6, r7, pc}
10008e46:	bf00      	nop

10008e48 <tu_edpt_stream_write_xfer>:
10008e48:	b570      	push	{r4, r5, r6, lr}
10008e4a:	f101 0508 	add.w	r5, r1, #8
10008e4e:	4606      	mov	r6, r0
10008e50:	4628      	mov	r0, r5
10008e52:	460c      	mov	r4, r1
10008e54:	f000 f8ce 	bl	10008ff4 <tu_fifo_count>
10008e58:	b110      	cbz	r0, 10008e60 <tu_edpt_stream_write_xfer+0x18>
10008e5a:	7823      	ldrb	r3, [r4, #0]
10008e5c:	07d9      	lsls	r1, r3, #31
10008e5e:	d501      	bpl.n	10008e64 <tu_edpt_stream_write_xfer+0x1c>
10008e60:	2000      	movs	r0, #0
10008e62:	bd70      	pop	{r4, r5, r6, pc}
10008e64:	4630      	mov	r0, r6
10008e66:	7861      	ldrb	r1, [r4, #1]
10008e68:	f7ff f94e 	bl	10008108 <usbd_edpt_claim>
10008e6c:	2800      	cmp	r0, #0
10008e6e:	d0f7      	beq.n	10008e60 <tu_edpt_stream_write_xfer+0x18>
10008e70:	4628      	mov	r0, r5
10008e72:	8862      	ldrh	r2, [r4, #2]
10008e74:	6861      	ldr	r1, [r4, #4]
10008e76:	f000 f933 	bl	100090e0 <tu_fifo_read_n>
10008e7a:	7823      	ldrb	r3, [r4, #0]
10008e7c:	4605      	mov	r5, r0
10008e7e:	b148      	cbz	r0, 10008e94 <tu_edpt_stream_write_xfer+0x4c>
10008e80:	07da      	lsls	r2, r3, #31
10008e82:	d510      	bpl.n	10008ea6 <tu_edpt_stream_write_xfer+0x5e>
10008e84:	f04f 23e0 	mov.w	r3, #3758153728	; 0xe000e000
10008e88:	f8d3 3df0 	ldr.w	r3, [r3, #3568]	; 0xdf0
10008e8c:	07db      	lsls	r3, r3, #31
10008e8e:	d5e7      	bpl.n	10008e60 <tu_edpt_stream_write_xfer+0x18>
10008e90:	be00      	bkpt	0x0000
10008e92:	e7e5      	b.n	10008e60 <tu_edpt_stream_write_xfer+0x18>
10008e94:	f013 0501 	ands.w	r5, r3, #1
10008e98:	d1e2      	bne.n	10008e60 <tu_edpt_stream_write_xfer+0x18>
10008e9a:	4630      	mov	r0, r6
10008e9c:	7861      	ldrb	r1, [r4, #1]
10008e9e:	f7ff f945 	bl	1000812c <usbd_edpt_release>
10008ea2:	4628      	mov	r0, r5
10008ea4:	bd70      	pop	{r4, r5, r6, pc}
10008ea6:	4603      	mov	r3, r0
10008ea8:	6862      	ldr	r2, [r4, #4]
10008eaa:	4630      	mov	r0, r6
10008eac:	7861      	ldrb	r1, [r4, #1]
10008eae:	f7ff f94f 	bl	10008150 <usbd_edpt_xfer>
10008eb2:	2800      	cmp	r0, #0
10008eb4:	d0e6      	beq.n	10008e84 <tu_edpt_stream_write_xfer+0x3c>
10008eb6:	4628      	mov	r0, r5
10008eb8:	e7f4      	b.n	10008ea4 <tu_edpt_stream_write_xfer+0x5c>
10008eba:	bf00      	nop

10008ebc <tu_edpt_stream_read_xfer>:
10008ebc:	898b      	ldrh	r3, [r1, #12]
10008ebe:	e92d 41f0 	stmdb	sp!, {r4, r5, r6, r7, r8, lr}
10008ec2:	460c      	mov	r4, r1
10008ec4:	4605      	mov	r5, r0
10008ec6:	b92b      	cbnz	r3, 10008ed4 <tu_edpt_stream_read_xfer+0x18>
10008ec8:	780b      	ldrb	r3, [r1, #0]
10008eca:	07de      	lsls	r6, r3, #31
10008ecc:	d53d      	bpl.n	10008f4a <tu_edpt_stream_read_xfer+0x8e>
10008ece:	2000      	movs	r0, #0
10008ed0:	e8bd 81f0 	ldmia.w	sp!, {r4, r5, r6, r7, r8, pc}
10008ed4:	460e      	mov	r6, r1
10008ed6:	f816 3b08 	ldrb.w	r3, [r6], #8
10008eda:	4a2c      	ldr	r2, [pc, #176]	; (10008f8c <tu_edpt_stream_read_xfer+0xd0>)
10008edc:	f003 0302 	and.w	r3, r3, #2
10008ee0:	2b00      	cmp	r3, #0
10008ee2:	4630      	mov	r0, r6
10008ee4:	bf15      	itete	ne
10008ee6:	4690      	movne	r8, r2
10008ee8:	f06f 083f 	mvneq.w	r8, #63	; 0x3f
10008eec:	f44f 7700 	movne.w	r7, #512	; 0x200
10008ef0:	2740      	moveq	r7, #64	; 0x40
10008ef2:	f000 f899 	bl	10009028 <tu_fifo_remaining>
10008ef6:	4287      	cmp	r7, r0
10008ef8:	d8e9      	bhi.n	10008ece <tu_edpt_stream_read_xfer+0x12>
10008efa:	7823      	ldrb	r3, [r4, #0]
10008efc:	07d9      	lsls	r1, r3, #31
10008efe:	d4e6      	bmi.n	10008ece <tu_edpt_stream_read_xfer+0x12>
10008f00:	4628      	mov	r0, r5
10008f02:	7861      	ldrb	r1, [r4, #1]
10008f04:	f7ff f900 	bl	10008108 <usbd_edpt_claim>
10008f08:	2800      	cmp	r0, #0
10008f0a:	d0e0      	beq.n	10008ece <tu_edpt_stream_read_xfer+0x12>
10008f0c:	4630      	mov	r0, r6
10008f0e:	f000 f88b 	bl	10009028 <tu_fifo_remaining>
10008f12:	4287      	cmp	r7, r0
10008f14:	7823      	ldrb	r3, [r4, #0]
10008f16:	d82b      	bhi.n	10008f70 <tu_edpt_stream_read_xfer+0xb4>
10008f18:	07da      	lsls	r2, r3, #31
10008f1a:	d40e      	bmi.n	10008f3a <tu_edpt_stream_read_xfer+0x7e>
10008f1c:	8866      	ldrh	r6, [r4, #2]
10008f1e:	ea08 0200 	and.w	r2, r8, r0
10008f22:	b290      	uxth	r0, r2
10008f24:	4286      	cmp	r6, r0
10008f26:	bf28      	it	cs
10008f28:	4606      	movcs	r6, r0
10008f2a:	7861      	ldrb	r1, [r4, #1]
10008f2c:	b35e      	cbz	r6, 10008f86 <tu_edpt_stream_read_xfer+0xca>
10008f2e:	6862      	ldr	r2, [r4, #4]
10008f30:	4633      	mov	r3, r6
10008f32:	4628      	mov	r0, r5
10008f34:	f7ff f90c 	bl	10008150 <usbd_edpt_xfer>
10008f38:	bb08      	cbnz	r0, 10008f7e <tu_edpt_stream_read_xfer+0xc2>
10008f3a:	f04f 23e0 	mov.w	r3, #3758153728	; 0xe000e000
10008f3e:	f8d3 3df0 	ldr.w	r3, [r3, #3568]	; 0xdf0
10008f42:	07db      	lsls	r3, r3, #31
10008f44:	d5c3      	bpl.n	10008ece <tu_edpt_stream_read_xfer+0x12>
10008f46:	be00      	bkpt	0x0000
10008f48:	e7c1      	b.n	10008ece <tu_edpt_stream_read_xfer+0x12>
10008f4a:	7849      	ldrb	r1, [r1, #1]
10008f4c:	f7ff f8dc 	bl	10008108 <usbd_edpt_claim>
10008f50:	2800      	cmp	r0, #0
10008f52:	d0bc      	beq.n	10008ece <tu_edpt_stream_read_xfer+0x12>
10008f54:	7823      	ldrb	r3, [r4, #0]
10008f56:	07d8      	lsls	r0, r3, #31
10008f58:	d4ef      	bmi.n	10008f3a <tu_edpt_stream_read_xfer+0x7e>
10008f5a:	8863      	ldrh	r3, [r4, #2]
10008f5c:	7861      	ldrb	r1, [r4, #1]
10008f5e:	b183      	cbz	r3, 10008f82 <tu_edpt_stream_read_xfer+0xc6>
10008f60:	6862      	ldr	r2, [r4, #4]
10008f62:	4628      	mov	r0, r5
10008f64:	f7ff f8f4 	bl	10008150 <usbd_edpt_xfer>
10008f68:	2800      	cmp	r0, #0
10008f6a:	d0e6      	beq.n	10008f3a <tu_edpt_stream_read_xfer+0x7e>
10008f6c:	8860      	ldrh	r0, [r4, #2]
10008f6e:	e7af      	b.n	10008ed0 <tu_edpt_stream_read_xfer+0x14>
10008f70:	f013 0601 	ands.w	r6, r3, #1
10008f74:	d1ab      	bne.n	10008ece <tu_edpt_stream_read_xfer+0x12>
10008f76:	4628      	mov	r0, r5
10008f78:	7861      	ldrb	r1, [r4, #1]
10008f7a:	f7ff f8d7 	bl	1000812c <usbd_edpt_release>
10008f7e:	4630      	mov	r0, r6
10008f80:	e7a6      	b.n	10008ed0 <tu_edpt_stream_read_xfer+0x14>
10008f82:	461a      	mov	r2, r3
10008f84:	e7ed      	b.n	10008f62 <tu_edpt_stream_read_xfer+0xa6>
10008f86:	4632      	mov	r2, r6
10008f88:	e7d2      	b.n	10008f30 <tu_edpt_stream_read_xfer+0x74>
10008f8a:	bf00      	nop
10008f8c:	fffffe00 	.word	0xfffffe00

10008f90 <tu_fifo_config>:
10008f90:	e92d 41f0 	stmdb	sp!, {r4, r5, r6, r7, r8, lr}
10008f94:	f5b2 4f00 	cmp.w	r2, #32768	; 0x8000
10008f98:	f89d 8018 	ldrb.w	r8, [sp, #24]
10008f9c:	d827      	bhi.n	10008fee <tu_fifo_config+0x5e>
10008f9e:	4604      	mov	r4, r0
10008fa0:	68c0      	ldr	r0, [r0, #12]
10008fa2:	4617      	mov	r7, r2
10008fa4:	460e      	mov	r6, r1
10008fa6:	461d      	mov	r5, r3
10008fa8:	b118      	cbz	r0, 10008fb2 <tu_fifo_config+0x22>
10008faa:	f04f 31ff 	mov.w	r1, #4294967295
10008fae:	f000 fb43 	bl	10009638 <__mutex_enter_timeout_ms_veneer>
10008fb2:	6920      	ldr	r0, [r4, #16]
10008fb4:	b118      	cbz	r0, 10008fbe <tu_fifo_config+0x2e>
10008fb6:	f04f 31ff 	mov.w	r1, #4294967295
10008fba:	f000 fb3d 	bl	10009638 <__mutex_enter_timeout_ms_veneer>
10008fbe:	2200      	movs	r2, #0
10008fc0:	f3c5 030e 	ubfx	r3, r5, #0, #15
10008fc4:	68e0      	ldr	r0, [r4, #12]
10008fc6:	ea43 33c8 	orr.w	r3, r3, r8, lsl #15
10008fca:	8162      	strh	r2, [r4, #10]
10008fcc:	6026      	str	r6, [r4, #0]
10008fce:	80a7      	strh	r7, [r4, #4]
10008fd0:	80e3      	strh	r3, [r4, #6]
10008fd2:	8122      	strh	r2, [r4, #8]
10008fd4:	b108      	cbz	r0, 10008fda <tu_fifo_config+0x4a>
10008fd6:	f000 fb17 	bl	10009608 <__mutex_exit_veneer>
10008fda:	6920      	ldr	r0, [r4, #16]
10008fdc:	b120      	cbz	r0, 10008fe8 <tu_fifo_config+0x58>
10008fde:	f000 fb13 	bl	10009608 <__mutex_exit_veneer>
10008fe2:	2001      	movs	r0, #1
10008fe4:	e8bd 81f0 	ldmia.w	sp!, {r4, r5, r6, r7, r8, pc}
10008fe8:	2001      	movs	r0, #1
10008fea:	e8bd 81f0 	ldmia.w	sp!, {r4, r5, r6, r7, r8, pc}
10008fee:	2000      	movs	r0, #0
10008ff0:	e8bd 81f0 	ldmia.w	sp!, {r4, r5, r6, r7, r8, pc}

10008ff4 <tu_fifo_count>:
10008ff4:	8903      	ldrh	r3, [r0, #8]
10008ff6:	8942      	ldrh	r2, [r0, #10]
10008ff8:	b29b      	uxth	r3, r3
10008ffa:	b292      	uxth	r2, r2
10008ffc:	8880      	ldrh	r0, [r0, #4]
10008ffe:	4293      	cmp	r3, r2
10009000:	bf36      	itet	cc
10009002:	ebc2 0240 	rsbcc	r2, r2, r0, lsl #1
10009006:	1a9b      	subcs	r3, r3, r2
10009008:	189b      	addcc	r3, r3, r2
1000900a:	b29b      	uxth	r3, r3
1000900c:	4298      	cmp	r0, r3
1000900e:	bf28      	it	cs
10009010:	4618      	movcs	r0, r3
10009012:	4770      	bx	lr

10009014 <tu_fifo_empty>:
10009014:	8902      	ldrh	r2, [r0, #8]
10009016:	8943      	ldrh	r3, [r0, #10]
10009018:	b290      	uxth	r0, r2
1000901a:	b29b      	uxth	r3, r3
1000901c:	1ac0      	subs	r0, r0, r3
1000901e:	fab0 f080 	clz	r0, r0
10009022:	0940      	lsrs	r0, r0, #5
10009024:	4770      	bx	lr
10009026:	bf00      	nop

10009028 <tu_fifo_remaining>:
10009028:	8903      	ldrh	r3, [r0, #8]
1000902a:	8942      	ldrh	r2, [r0, #10]
1000902c:	b29b      	uxth	r3, r3
1000902e:	8880      	ldrh	r0, [r0, #4]
10009030:	b292      	uxth	r2, r2
10009032:	4293      	cmp	r3, r2
10009034:	bf36      	itet	cc
10009036:	ebc2 0240 	rsbcc	r2, r2, r0, lsl #1
1000903a:	1a9b      	subcs	r3, r3, r2
1000903c:	189b      	addcc	r3, r3, r2
1000903e:	b29b      	uxth	r3, r3
10009040:	4298      	cmp	r0, r3
10009042:	bf86      	itte	hi
10009044:	1ac0      	subhi	r0, r0, r3
10009046:	b280      	uxthhi	r0, r0
10009048:	2000      	movls	r0, #0
1000904a:	4770      	bx	lr

1000904c <tu_fifo_read>:
1000904c:	b538      	push	{r3, r4, r5, lr}
1000904e:	4604      	mov	r4, r0
10009050:	6900      	ldr	r0, [r0, #16]
10009052:	460d      	mov	r5, r1
10009054:	b118      	cbz	r0, 1000905e <tu_fifo_read+0x12>
10009056:	f04f 31ff 	mov.w	r1, #4294967295
1000905a:	f000 faed 	bl	10009638 <__mutex_enter_timeout_ms_veneer>
1000905e:	8921      	ldrh	r1, [r4, #8]
10009060:	8963      	ldrh	r3, [r4, #10]
10009062:	b289      	uxth	r1, r1
10009064:	b29b      	uxth	r3, r3
10009066:	88a2      	ldrh	r2, [r4, #4]
10009068:	4299      	cmp	r1, r3
1000906a:	bf36      	itet	cc
1000906c:	ebc3 0042 	rsbcc	r0, r3, r2, lsl #1
10009070:	1ac8      	subcs	r0, r1, r3
10009072:	1840      	addcc	r0, r0, r1
10009074:	b280      	uxth	r0, r0
10009076:	b350      	cbz	r0, 100090ce <tu_fifo_read+0x82>
10009078:	4282      	cmp	r2, r0
1000907a:	d209      	bcs.n	10009090 <tu_fifo_read+0x44>
1000907c:	4291      	cmp	r1, r2
1000907e:	bf2c      	ite	cs
10009080:	1a89      	subcs	r1, r1, r2
10009082:	1889      	addcc	r1, r1, r2
10009084:	b28b      	uxth	r3, r1
10009086:	429a      	cmp	r2, r3
10009088:	8163      	strh	r3, [r4, #10]
1000908a:	d803      	bhi.n	10009094 <tu_fifo_read+0x48>
1000908c:	1a9b      	subs	r3, r3, r2
1000908e:	b29b      	uxth	r3, r3
10009090:	429a      	cmp	r2, r3
10009092:	d9fb      	bls.n	1000908c <tu_fifo_read+0x40>
10009094:	88e2      	ldrh	r2, [r4, #6]
10009096:	6821      	ldr	r1, [r4, #0]
10009098:	f3c2 020e 	ubfx	r2, r2, #0, #15
1000909c:	fb02 1103 	mla	r1, r2, r3, r1
100090a0:	4628      	mov	r0, r5
100090a2:	f000 f9b1 	bl	10009408 <memcpy>
100090a6:	8961      	ldrh	r1, [r4, #10]
100090a8:	2501      	movs	r5, #1
100090aa:	b289      	uxth	r1, r1
100090ac:	1c4b      	adds	r3, r1, #1
100090ae:	b29b      	uxth	r3, r3
100090b0:	4299      	cmp	r1, r3
100090b2:	88a2      	ldrh	r2, [r4, #4]
100090b4:	d90e      	bls.n	100090d4 <tu_fifo_read+0x88>
100090b6:	2300      	movs	r3, #0
100090b8:	fa02 f105 	lsl.w	r1, r2, r5
100090bc:	1a5b      	subs	r3, r3, r1
100090be:	b29b      	uxth	r3, r3
100090c0:	6920      	ldr	r0, [r4, #16]
100090c2:	8163      	strh	r3, [r4, #10]
100090c4:	b108      	cbz	r0, 100090ca <tu_fifo_read+0x7e>
100090c6:	f000 fa9f 	bl	10009608 <__mutex_exit_veneer>
100090ca:	4628      	mov	r0, r5
100090cc:	bd38      	pop	{r3, r4, r5, pc}
100090ce:	4605      	mov	r5, r0
100090d0:	8963      	ldrh	r3, [r4, #10]
100090d2:	b29b      	uxth	r3, r3
100090d4:	ebb3 0f42 	cmp.w	r3, r2, lsl #1
100090d8:	ea4f 0142 	mov.w	r1, r2, lsl #1
100090dc:	dbf0      	blt.n	100090c0 <tu_fifo_read+0x74>
100090de:	e7ed      	b.n	100090bc <tu_fifo_read+0x70>

100090e0 <tu_fifo_read_n>:
100090e0:	e92d 47f0 	stmdb	sp!, {r4, r5, r6, r7, r8, r9, sl, lr}
100090e4:	4606      	mov	r6, r0
100090e6:	6900      	ldr	r0, [r0, #16]
100090e8:	4688      	mov	r8, r1
100090ea:	4691      	mov	r9, r2
100090ec:	b118      	cbz	r0, 100090f6 <tu_fifo_read_n+0x16>
100090ee:	f04f 31ff 	mov.w	r1, #4294967295
100090f2:	f000 faa1 	bl	10009638 <__mutex_enter_timeout_ms_veneer>
100090f6:	8933      	ldrh	r3, [r6, #8]
100090f8:	8974      	ldrh	r4, [r6, #10]
100090fa:	b29b      	uxth	r3, r3
100090fc:	b2a4      	uxth	r4, r4
100090fe:	88b5      	ldrh	r5, [r6, #4]
10009100:	42a3      	cmp	r3, r4
10009102:	bf36      	itet	cc
10009104:	ebc4 0745 	rsbcc	r7, r4, r5, lsl #1
10009108:	1b1f      	subcs	r7, r3, r4
1000910a:	18ff      	addcc	r7, r7, r3
1000910c:	b2bf      	uxth	r7, r7
1000910e:	2f00      	cmp	r7, #0
10009110:	d048      	beq.n	100091a4 <tu_fifo_read_n+0xc4>
10009112:	42bd      	cmp	r5, r7
10009114:	d33e      	bcc.n	10009194 <tu_fifo_read_n+0xb4>
10009116:	454f      	cmp	r7, r9
10009118:	bf28      	it	cs
1000911a:	464f      	movcs	r7, r9
1000911c:	42a5      	cmp	r5, r4
1000911e:	b2bf      	uxth	r7, r7
10009120:	d803      	bhi.n	1000912a <tu_fifo_read_n+0x4a>
10009122:	1b64      	subs	r4, r4, r5
10009124:	b2a4      	uxth	r4, r4
10009126:	42a5      	cmp	r5, r4
10009128:	d9fb      	bls.n	10009122 <tu_fifo_read_n+0x42>
1000912a:	88f2      	ldrh	r2, [r6, #6]
1000912c:	1b2b      	subs	r3, r5, r4
1000912e:	6831      	ldr	r1, [r6, #0]
10009130:	b29b      	uxth	r3, r3
10009132:	f3c2 0c0e 	ubfx	ip, r2, #0, #15
10009136:	429f      	cmp	r7, r3
10009138:	46e2      	mov	sl, ip
1000913a:	fb0c 1104 	mla	r1, ip, r4, r1
1000913e:	d923      	bls.n	10009188 <tu_fifo_read_n+0xa8>
10009140:	fb13 f30c 	smulbb	r3, r3, ip
10009144:	fa1f f983 	uxth.w	r9, r3
10009148:	464a      	mov	r2, r9
1000914a:	4640      	mov	r0, r8
1000914c:	f000 f95c 	bl	10009408 <memcpy>
10009150:	1b7a      	subs	r2, r7, r5
10009152:	4422      	add	r2, r4
10009154:	fb12 f20a 	smulbb	r2, r2, sl
10009158:	6831      	ldr	r1, [r6, #0]
1000915a:	eb08 0009 	add.w	r0, r8, r9
1000915e:	b292      	uxth	r2, r2
10009160:	f000 f952 	bl	10009408 <memcpy>
10009164:	8972      	ldrh	r2, [r6, #10]
10009166:	88b5      	ldrh	r5, [r6, #4]
10009168:	b292      	uxth	r2, r2
1000916a:	19d3      	adds	r3, r2, r7
1000916c:	b29b      	uxth	r3, r3
1000916e:	429a      	cmp	r2, r3
10009170:	d91a      	bls.n	100091a8 <tu_fifo_read_n+0xc8>
10009172:	006a      	lsls	r2, r5, #1
10009174:	1a9b      	subs	r3, r3, r2
10009176:	b29b      	uxth	r3, r3
10009178:	6930      	ldr	r0, [r6, #16]
1000917a:	8173      	strh	r3, [r6, #10]
1000917c:	b108      	cbz	r0, 10009182 <tu_fifo_read_n+0xa2>
1000917e:	f000 fa43 	bl	10009608 <__mutex_exit_veneer>
10009182:	4638      	mov	r0, r7
10009184:	e8bd 87f0 	ldmia.w	sp!, {r4, r5, r6, r7, r8, r9, sl, pc}
10009188:	4640      	mov	r0, r8
1000918a:	fb0c f207 	mul.w	r2, ip, r7
1000918e:	f000 f93b 	bl	10009408 <memcpy>
10009192:	e7e7      	b.n	10009164 <tu_fifo_read_n+0x84>
10009194:	42ab      	cmp	r3, r5
10009196:	bf2c      	ite	cs
10009198:	1b5b      	subcs	r3, r3, r5
1000919a:	195b      	addcc	r3, r3, r5
1000919c:	b29c      	uxth	r4, r3
1000919e:	462f      	mov	r7, r5
100091a0:	8174      	strh	r4, [r6, #10]
100091a2:	e7b8      	b.n	10009116 <tu_fifo_read_n+0x36>
100091a4:	8973      	ldrh	r3, [r6, #10]
100091a6:	b29b      	uxth	r3, r3
100091a8:	ebb3 0f45 	cmp.w	r3, r5, lsl #1
100091ac:	ea4f 0245 	mov.w	r2, r5, lsl #1
100091b0:	dbe2      	blt.n	10009178 <tu_fifo_read_n+0x98>
100091b2:	e7df      	b.n	10009174 <tu_fifo_read_n+0x94>

100091b4 <tu_fifo_write>:
100091b4:	b5f8      	push	{r3, r4, r5, r6, r7, lr}
100091b6:	4604      	mov	r4, r0
100091b8:	68c0      	ldr	r0, [r0, #12]
100091ba:	460e      	mov	r6, r1
100091bc:	b118      	cbz	r0, 100091c6 <tu_fifo_write+0x12>
100091be:	f04f 31ff 	mov.w	r1, #4294967295
100091c2:	f000 fa39 	bl	10009638 <__mutex_enter_timeout_ms_veneer>
100091c6:	8925      	ldrh	r5, [r4, #8]
100091c8:	8923      	ldrh	r3, [r4, #8]
100091ca:	8961      	ldrh	r1, [r4, #10]
100091cc:	b29b      	uxth	r3, r3
100091ce:	b289      	uxth	r1, r1
100091d0:	88a2      	ldrh	r2, [r4, #4]
100091d2:	428b      	cmp	r3, r1
100091d4:	bf36      	itet	cc
100091d6:	ebc1 0142 	rsbcc	r1, r1, r2, lsl #1
100091da:	1a5b      	subcs	r3, r3, r1
100091dc:	185b      	addcc	r3, r3, r1
100091de:	b29b      	uxth	r3, r3
100091e0:	429a      	cmp	r2, r3
100091e2:	b2ad      	uxth	r5, r5
100091e4:	d808      	bhi.n	100091f8 <tu_fifo_write+0x44>
100091e6:	79e7      	ldrb	r7, [r4, #7]
100091e8:	09ff      	lsrs	r7, r7, #7
100091ea:	d105      	bne.n	100091f8 <tu_fifo_write+0x44>
100091ec:	68e0      	ldr	r0, [r4, #12]
100091ee:	b108      	cbz	r0, 100091f4 <tu_fifo_write+0x40>
100091f0:	f000 fa0a 	bl	10009608 <__mutex_exit_veneer>
100091f4:	4638      	mov	r0, r7
100091f6:	bdf8      	pop	{r3, r4, r5, r6, r7, pc}
100091f8:	4295      	cmp	r5, r2
100091fa:	462b      	mov	r3, r5
100091fc:	d303      	bcc.n	10009206 <tu_fifo_write+0x52>
100091fe:	1a9b      	subs	r3, r3, r2
10009200:	b29b      	uxth	r3, r3
10009202:	4293      	cmp	r3, r2
10009204:	d2fb      	bcs.n	100091fe <tu_fifo_write+0x4a>
10009206:	88e2      	ldrh	r2, [r4, #6]
10009208:	6820      	ldr	r0, [r4, #0]
1000920a:	f3c2 020e 	ubfx	r2, r2, #0, #15
1000920e:	fb02 0003 	mla	r0, r2, r3, r0
10009212:	4631      	mov	r1, r6
10009214:	f000 f8f8 	bl	10009408 <memcpy>
10009218:	1c6b      	adds	r3, r5, #1
1000921a:	88a2      	ldrh	r2, [r4, #4]
1000921c:	b29b      	uxth	r3, r3
1000921e:	429d      	cmp	r5, r3
10009220:	ea4f 0142 	mov.w	r1, r2, lsl #1
10009224:	d904      	bls.n	10009230 <tu_fifo_write+0x7c>
10009226:	1a5b      	subs	r3, r3, r1
10009228:	b29b      	uxth	r3, r3
1000922a:	2701      	movs	r7, #1
1000922c:	8123      	strh	r3, [r4, #8]
1000922e:	e7dd      	b.n	100091ec <tu_fifo_write+0x38>
10009230:	ebb3 0f42 	cmp.w	r3, r2, lsl #1
10009234:	dbf9      	blt.n	1000922a <tu_fifo_write+0x76>
10009236:	e7f6      	b.n	10009226 <tu_fifo_write+0x72>

10009238 <tu_fifo_write_n>:
10009238:	e92d 4ff0 	stmdb	sp!, {r4, r5, r6, r7, r8, r9, sl, fp, lr}
1000923c:	4614      	mov	r4, r2
1000923e:	b083      	sub	sp, #12
10009240:	2a00      	cmp	r2, #0
10009242:	d05c      	beq.n	100092fe <tu_fifo_write_n+0xc6>
10009244:	4605      	mov	r5, r0
10009246:	68c0      	ldr	r0, [r0, #12]
10009248:	468b      	mov	fp, r1
1000924a:	b118      	cbz	r0, 10009254 <tu_fifo_write_n+0x1c>
1000924c:	f04f 31ff 	mov.w	r1, #4294967295
10009250:	f000 f9f2 	bl	10009638 <__mutex_enter_timeout_ms_veneer>
10009254:	79ea      	ldrb	r2, [r5, #7]
10009256:	892f      	ldrh	r7, [r5, #8]
10009258:	896b      	ldrh	r3, [r5, #10]
1000925a:	09d2      	lsrs	r2, r2, #7
1000925c:	b2bf      	uxth	r7, r7
1000925e:	b29b      	uxth	r3, r3
10009260:	d13b      	bne.n	100092da <tu_fifo_write_n+0xa2>
10009262:	88ae      	ldrh	r6, [r5, #4]
10009264:	429f      	cmp	r7, r3
10009266:	bf36      	itet	cc
10009268:	ebc3 0346 	rsbcc	r3, r3, r6, lsl #1
1000926c:	1afb      	subcs	r3, r7, r3
1000926e:	19db      	addcc	r3, r3, r7
10009270:	b29b      	uxth	r3, r3
10009272:	429e      	cmp	r6, r3
10009274:	d948      	bls.n	10009308 <tu_fifo_write_n+0xd0>
10009276:	eba6 0803 	sub.w	r8, r6, r3
1000927a:	fa1f f888 	uxth.w	r8, r8
1000927e:	45a0      	cmp	r8, r4
10009280:	bf28      	it	cs
10009282:	46a0      	movcs	r8, r4
10009284:	f8b5 a006 	ldrh.w	sl, [r5, #6]
10009288:	eb08 0907 	add.w	r9, r8, r7
1000928c:	fa1f f989 	uxth.w	r9, r9
10009290:	42be      	cmp	r6, r7
10009292:	463c      	mov	r4, r7
10009294:	d803      	bhi.n	1000929e <tu_fifo_write_n+0x66>
10009296:	1ba4      	subs	r4, r4, r6
10009298:	b2a4      	uxth	r4, r4
1000929a:	42b4      	cmp	r4, r6
1000929c:	d2fb      	bcs.n	10009296 <tu_fifo_write_n+0x5e>
1000929e:	1b33      	subs	r3, r6, r4
100092a0:	6828      	ldr	r0, [r5, #0]
100092a2:	b29b      	uxth	r3, r3
100092a4:	f3ca 020e 	ubfx	r2, sl, #0, #15
100092a8:	4543      	cmp	r3, r8
100092aa:	4692      	mov	sl, r2
100092ac:	fb02 0004 	mla	r0, r2, r4, r0
100092b0:	d355      	bcc.n	1000935e <tu_fifo_write_n+0x126>
100092b2:	4659      	mov	r1, fp
100092b4:	fb02 f208 	mul.w	r2, r2, r8
100092b8:	f000 f8a6 	bl	10009408 <memcpy>
100092bc:	88aa      	ldrh	r2, [r5, #4]
100092be:	45b9      	cmp	r9, r7
100092c0:	ea4f 0342 	mov.w	r3, r2, lsl #1
100092c4:	d302      	bcc.n	100092cc <tu_fifo_write_n+0x94>
100092c6:	ebb9 0f42 	cmp.w	r9, r2, lsl #1
100092ca:	db03      	blt.n	100092d4 <tu_fifo_write_n+0x9c>
100092cc:	eba9 0903 	sub.w	r9, r9, r3
100092d0:	fa1f f989 	uxth.w	r9, r9
100092d4:	f8a5 9008 	strh.w	r9, [r5, #8]
100092d8:	e018      	b.n	1000930c <tu_fifo_write_n+0xd4>
100092da:	f8b5 8004 	ldrh.w	r8, [r5, #4]
100092de:	4544      	cmp	r4, r8
100092e0:	d31d      	bcc.n	1000931e <tu_fifo_write_n+0xe6>
100092e2:	f8b5 a006 	ldrh.w	sl, [r5, #6]
100092e6:	eba4 0408 	sub.w	r4, r4, r8
100092ea:	f3ca 020e 	ubfx	r2, sl, #0, #15
100092ee:	fb02 bb04 	mla	fp, r2, r4, fp
100092f2:	f1b8 0f00 	cmp.w	r8, #0
100092f6:	d009      	beq.n	1000930c <tu_fifo_write_n+0xd4>
100092f8:	461f      	mov	r7, r3
100092fa:	4646      	mov	r6, r8
100092fc:	e7c4      	b.n	10009288 <tu_fifo_write_n+0x50>
100092fe:	4690      	mov	r8, r2
10009300:	4640      	mov	r0, r8
10009302:	b003      	add	sp, #12
10009304:	e8bd 8ff0 	ldmia.w	sp!, {r4, r5, r6, r7, r8, r9, sl, fp, pc}
10009308:	f04f 0800 	mov.w	r8, #0
1000930c:	68e8      	ldr	r0, [r5, #12]
1000930e:	2800      	cmp	r0, #0
10009310:	d0f6      	beq.n	10009300 <tu_fifo_write_n+0xc8>
10009312:	f000 f979 	bl	10009608 <__mutex_exit_veneer>
10009316:	4640      	mov	r0, r8
10009318:	b003      	add	sp, #12
1000931a:	e8bd 8ff0 	ldmia.w	sp!, {r4, r5, r6, r7, r8, r9, sl, fp, pc}
1000931e:	429f      	cmp	r7, r3
10009320:	bf36      	itet	cc
10009322:	ebc3 0248 	rsbcc	r2, r3, r8, lsl #1
10009326:	1afa      	subcs	r2, r7, r3
10009328:	19d2      	addcc	r2, r2, r7
1000932a:	b292      	uxth	r2, r2
1000932c:	ea4f 0148 	mov.w	r1, r8, lsl #1
10009330:	4422      	add	r2, r4
10009332:	428a      	cmp	r2, r1
10009334:	db0a      	blt.n	1000934c <tu_fifo_write_n+0x114>
10009336:	eb03 0908 	add.w	r9, r3, r8
1000933a:	fa1f f989 	uxth.w	r9, r9
1000933e:	eba9 0704 	sub.w	r7, r9, r4
10009342:	b2bf      	uxth	r7, r7
10009344:	42bb      	cmp	r3, r7
10009346:	d91e      	bls.n	10009386 <tu_fifo_write_n+0x14e>
10009348:	1a7f      	subs	r7, r7, r1
1000934a:	b2bf      	uxth	r7, r7
1000934c:	eb04 0907 	add.w	r9, r4, r7
10009350:	4646      	mov	r6, r8
10009352:	f8b5 a006 	ldrh.w	sl, [r5, #6]
10009356:	46a0      	mov	r8, r4
10009358:	fa1f f989 	uxth.w	r9, r9
1000935c:	e798      	b.n	10009290 <tu_fifo_write_n+0x58>
1000935e:	fb13 f302 	smulbb	r3, r3, r2
10009362:	4659      	mov	r1, fp
10009364:	b29a      	uxth	r2, r3
10009366:	9201      	str	r2, [sp, #4]
10009368:	f000 f84e 	bl	10009408 <memcpy>
1000936c:	9a01      	ldr	r2, [sp, #4]
1000936e:	6828      	ldr	r0, [r5, #0]
10009370:	eb0b 0102 	add.w	r1, fp, r2
10009374:	eba8 0206 	sub.w	r2, r8, r6
10009378:	4422      	add	r2, r4
1000937a:	fb12 f20a 	smulbb	r2, r2, sl
1000937e:	b292      	uxth	r2, r2
10009380:	f000 f842 	bl	10009408 <memcpy>
10009384:	e79a      	b.n	100092bc <tu_fifo_write_n+0x84>
10009386:	42b9      	cmp	r1, r7
10009388:	ddde      	ble.n	10009348 <tu_fifo_write_n+0x110>
1000938a:	4646      	mov	r6, r8
1000938c:	f8b5 a006 	ldrh.w	sl, [r5, #6]
10009390:	46a0      	mov	r8, r4
10009392:	e77d      	b.n	10009290 <tu_fifo_write_n+0x58>

10009394 <tu_fifo_clear>:
10009394:	b510      	push	{r4, lr}
10009396:	4604      	mov	r4, r0
10009398:	68c0      	ldr	r0, [r0, #12]
1000939a:	b118      	cbz	r0, 100093a4 <tu_fifo_clear+0x10>
1000939c:	f04f 31ff 	mov.w	r1, #4294967295
100093a0:	f000 f94a 	bl	10009638 <__mutex_enter_timeout_ms_veneer>
100093a4:	6920      	ldr	r0, [r4, #16]
100093a6:	b118      	cbz	r0, 100093b0 <tu_fifo_clear+0x1c>
100093a8:	f04f 31ff 	mov.w	r1, #4294967295
100093ac:	f000 f944 	bl	10009638 <__mutex_enter_timeout_ms_veneer>
100093b0:	2300      	movs	r3, #0
100093b2:	68e0      	ldr	r0, [r4, #12]
100093b4:	8163      	strh	r3, [r4, #10]
100093b6:	8123      	strh	r3, [r4, #8]
100093b8:	b108      	cbz	r0, 100093be <tu_fifo_clear+0x2a>
100093ba:	f000 f925 	bl	10009608 <__mutex_exit_veneer>
100093be:	6920      	ldr	r0, [r4, #16]
100093c0:	b108      	cbz	r0, 100093c6 <tu_fifo_clear+0x32>
100093c2:	f000 f921 	bl	10009608 <__mutex_exit_veneer>
100093c6:	2001      	movs	r0, #1
100093c8:	bd10      	pop	{r4, pc}
100093ca:	bf00      	nop

100093cc <tu_fifo_set_overwritable>:
100093cc:	b538      	push	{r3, r4, r5, lr}
100093ce:	4604      	mov	r4, r0
100093d0:	68c0      	ldr	r0, [r0, #12]
100093d2:	460d      	mov	r5, r1
100093d4:	b118      	cbz	r0, 100093de <tu_fifo_set_overwritable+0x12>
100093d6:	f04f 31ff 	mov.w	r1, #4294967295
100093da:	f000 f92d 	bl	10009638 <__mutex_enter_timeout_ms_veneer>
100093de:	6920      	ldr	r0, [r4, #16]
100093e0:	b118      	cbz	r0, 100093ea <tu_fifo_set_overwritable+0x1e>
100093e2:	f04f 31ff 	mov.w	r1, #4294967295
100093e6:	f000 f927 	bl	10009638 <__mutex_enter_timeout_ms_veneer>
100093ea:	79e3      	ldrb	r3, [r4, #7]
100093ec:	68e0      	ldr	r0, [r4, #12]
100093ee:	f365 13c7 	bfi	r3, r5, #7, #1
100093f2:	71e3      	strb	r3, [r4, #7]
100093f4:	b108      	cbz	r0, 100093fa <tu_fifo_set_overwritable+0x2e>
100093f6:	f000 f907 	bl	10009608 <__mutex_exit_veneer>
100093fa:	6920      	ldr	r0, [r4, #16]
100093fc:	b108      	cbz	r0, 10009402 <tu_fifo_set_overwritable+0x36>
100093fe:	f000 f903 	bl	10009608 <__mutex_exit_veneer>
10009402:	2001      	movs	r0, #1
10009404:	bd38      	pop	{r3, r4, r5, pc}
10009406:	bf00      	nop

10009408 <memcpy>:
10009408:	4684      	mov	ip, r0
1000940a:	ea41 0300 	orr.w	r3, r1, r0
1000940e:	f013 0303 	ands.w	r3, r3, #3
10009412:	d149      	bne.n	100094a8 <memcpy+0xa0>
10009414:	3a40      	subs	r2, #64	; 0x40
10009416:	d323      	bcc.n	10009460 <memcpy+0x58>
10009418:	680b      	ldr	r3, [r1, #0]
1000941a:	6003      	str	r3, [r0, #0]
1000941c:	684b      	ldr	r3, [r1, #4]
1000941e:	6043      	str	r3, [r0, #4]
10009420:	688b      	ldr	r3, [r1, #8]
10009422:	6083      	str	r3, [r0, #8]
10009424:	68cb      	ldr	r3, [r1, #12]
10009426:	60c3      	str	r3, [r0, #12]
10009428:	690b      	ldr	r3, [r1, #16]
1000942a:	6103      	str	r3, [r0, #16]
1000942c:	694b      	ldr	r3, [r1, #20]
1000942e:	6143      	str	r3, [r0, #20]
10009430:	698b      	ldr	r3, [r1, #24]
10009432:	6183      	str	r3, [r0, #24]
10009434:	69cb      	ldr	r3, [r1, #28]
10009436:	61c3      	str	r3, [r0, #28]
10009438:	6a0b      	ldr	r3, [r1, #32]
1000943a:	6203      	str	r3, [r0, #32]
1000943c:	6a4b      	ldr	r3, [r1, #36]	; 0x24
1000943e:	6243      	str	r3, [r0, #36]	; 0x24
10009440:	6a8b      	ldr	r3, [r1, #40]	; 0x28
10009442:	6283      	str	r3, [r0, #40]	; 0x28
10009444:	6acb      	ldr	r3, [r1, #44]	; 0x2c
10009446:	62c3      	str	r3, [r0, #44]	; 0x2c
10009448:	6b0b      	ldr	r3, [r1, #48]	; 0x30
1000944a:	6303      	str	r3, [r0, #48]	; 0x30
1000944c:	6b4b      	ldr	r3, [r1, #52]	; 0x34
1000944e:	6343      	str	r3, [r0, #52]	; 0x34
10009450:	6b8b      	ldr	r3, [r1, #56]	; 0x38
10009452:	6383      	str	r3, [r0, #56]	; 0x38
10009454:	6bcb      	ldr	r3, [r1, #60]	; 0x3c
10009456:	63c3      	str	r3, [r0, #60]	; 0x3c
10009458:	3040      	adds	r0, #64	; 0x40
1000945a:	3140      	adds	r1, #64	; 0x40
1000945c:	3a40      	subs	r2, #64	; 0x40
1000945e:	d2db      	bcs.n	10009418 <memcpy+0x10>
10009460:	3230      	adds	r2, #48	; 0x30
10009462:	d30b      	bcc.n	1000947c <memcpy+0x74>
10009464:	680b      	ldr	r3, [r1, #0]
10009466:	6003      	str	r3, [r0, #0]
10009468:	684b      	ldr	r3, [r1, #4]
1000946a:	6043      	str	r3, [r0, #4]
1000946c:	688b      	ldr	r3, [r1, #8]
1000946e:	6083      	str	r3, [r0, #8]
10009470:	68cb      	ldr	r3, [r1, #12]
10009472:	60c3      	str	r3, [r0, #12]
10009474:	3010      	adds	r0, #16
10009476:	3110      	adds	r1, #16
10009478:	3a10      	subs	r2, #16
1000947a:	d2f3      	bcs.n	10009464 <memcpy+0x5c>
1000947c:	320c      	adds	r2, #12
1000947e:	d305      	bcc.n	1000948c <memcpy+0x84>
10009480:	f851 3b04 	ldr.w	r3, [r1], #4
10009484:	f840 3b04 	str.w	r3, [r0], #4
10009488:	3a04      	subs	r2, #4
1000948a:	d2f9      	bcs.n	10009480 <memcpy+0x78>
1000948c:	3204      	adds	r2, #4
1000948e:	d008      	beq.n	100094a2 <memcpy+0x9a>
10009490:	07d2      	lsls	r2, r2, #31
10009492:	bf1c      	itt	ne
10009494:	f811 3b01 	ldrbne.w	r3, [r1], #1
10009498:	f800 3b01 	strbne.w	r3, [r0], #1
1000949c:	d301      	bcc.n	100094a2 <memcpy+0x9a>
1000949e:	880b      	ldrh	r3, [r1, #0]
100094a0:	8003      	strh	r3, [r0, #0]
100094a2:	4660      	mov	r0, ip
100094a4:	4770      	bx	lr
100094a6:	bf00      	nop
100094a8:	2a08      	cmp	r2, #8
100094aa:	d313      	bcc.n	100094d4 <memcpy+0xcc>
100094ac:	078b      	lsls	r3, r1, #30
100094ae:	d0b1      	beq.n	10009414 <memcpy+0xc>
100094b0:	f010 0303 	ands.w	r3, r0, #3
100094b4:	d0ae      	beq.n	10009414 <memcpy+0xc>
100094b6:	f1c3 0304 	rsb	r3, r3, #4
100094ba:	1ad2      	subs	r2, r2, r3
100094bc:	07db      	lsls	r3, r3, #31
100094be:	bf1c      	itt	ne
100094c0:	f811 3b01 	ldrbne.w	r3, [r1], #1
100094c4:	f800 3b01 	strbne.w	r3, [r0], #1
100094c8:	d3a4      	bcc.n	10009414 <memcpy+0xc>
100094ca:	f831 3b02 	ldrh.w	r3, [r1], #2
100094ce:	f820 3b02 	strh.w	r3, [r0], #2
100094d2:	e79f      	b.n	10009414 <memcpy+0xc>
100094d4:	3a04      	subs	r2, #4
100094d6:	d3d9      	bcc.n	1000948c <memcpy+0x84>
100094d8:	3a01      	subs	r2, #1
100094da:	f811 3b01 	ldrb.w	r3, [r1], #1
100094de:	f800 3b01 	strb.w	r3, [r0], #1
100094e2:	d2f9      	bcs.n	100094d8 <memcpy+0xd0>
100094e4:	780b      	ldrb	r3, [r1, #0]
100094e6:	7003      	strb	r3, [r0, #0]
100094e8:	784b      	ldrb	r3, [r1, #1]
100094ea:	7043      	strb	r3, [r0, #1]
100094ec:	788b      	ldrb	r3, [r1, #2]
100094ee:	7083      	strb	r3, [r0, #2]
100094f0:	4660      	mov	r0, ip
100094f2:	4770      	bx	lr

100094f4 <memset>:
100094f4:	b570      	push	{r4, r5, r6, lr}
100094f6:	0786      	lsls	r6, r0, #30
100094f8:	d048      	beq.n	1000958c <memset+0x98>
100094fa:	1e54      	subs	r4, r2, #1
100094fc:	2a00      	cmp	r2, #0
100094fe:	d03f      	beq.n	10009580 <memset+0x8c>
10009500:	b2ca      	uxtb	r2, r1
10009502:	4603      	mov	r3, r0
10009504:	e001      	b.n	1000950a <memset+0x16>
10009506:	3c01      	subs	r4, #1
10009508:	d33a      	bcc.n	10009580 <memset+0x8c>
1000950a:	f803 2b01 	strb.w	r2, [r3], #1
1000950e:	079d      	lsls	r5, r3, #30
10009510:	d1f9      	bne.n	10009506 <memset+0x12>
10009512:	2c03      	cmp	r4, #3
10009514:	d92d      	bls.n	10009572 <memset+0x7e>
10009516:	b2cd      	uxtb	r5, r1
10009518:	2c0f      	cmp	r4, #15
1000951a:	ea45 2505 	orr.w	r5, r5, r5, lsl #8
1000951e:	ea45 4505 	orr.w	r5, r5, r5, lsl #16
10009522:	d936      	bls.n	10009592 <memset+0x9e>
10009524:	f1a4 0c10 	sub.w	ip, r4, #16
10009528:	f103 0e20 	add.w	lr, r3, #32
1000952c:	f103 0210 	add.w	r2, r3, #16
10009530:	f02c 060f 	bic.w	r6, ip, #15
10009534:	ea4f 1c1c 	mov.w	ip, ip, lsr #4
10009538:	44b6      	add	lr, r6
1000953a:	e942 5504 	strd	r5, r5, [r2, #-16]
1000953e:	e942 5502 	strd	r5, r5, [r2, #-8]
10009542:	3210      	adds	r2, #16
10009544:	4572      	cmp	r2, lr
10009546:	d1f8      	bne.n	1000953a <memset+0x46>
10009548:	f10c 0201 	add.w	r2, ip, #1
1000954c:	f014 0f0c 	tst.w	r4, #12
10009550:	f004 0c0f 	and.w	ip, r4, #15
10009554:	eb03 1202 	add.w	r2, r3, r2, lsl #4
10009558:	d013      	beq.n	10009582 <memset+0x8e>
1000955a:	f1ac 0304 	sub.w	r3, ip, #4
1000955e:	f023 0303 	bic.w	r3, r3, #3
10009562:	3304      	adds	r3, #4
10009564:	4413      	add	r3, r2
10009566:	f842 5b04 	str.w	r5, [r2], #4
1000956a:	4293      	cmp	r3, r2
1000956c:	d1fb      	bne.n	10009566 <memset+0x72>
1000956e:	f00c 0403 	and.w	r4, ip, #3
10009572:	b12c      	cbz	r4, 10009580 <memset+0x8c>
10009574:	b2ca      	uxtb	r2, r1
10009576:	441c      	add	r4, r3
10009578:	f803 2b01 	strb.w	r2, [r3], #1
1000957c:	429c      	cmp	r4, r3
1000957e:	d1fb      	bne.n	10009578 <memset+0x84>
10009580:	bd70      	pop	{r4, r5, r6, pc}
10009582:	4664      	mov	r4, ip
10009584:	4613      	mov	r3, r2
10009586:	2c00      	cmp	r4, #0
10009588:	d1f4      	bne.n	10009574 <memset+0x80>
1000958a:	e7f9      	b.n	10009580 <memset+0x8c>
1000958c:	4603      	mov	r3, r0
1000958e:	4614      	mov	r4, r2
10009590:	e7bf      	b.n	10009512 <memset+0x1e>
10009592:	461a      	mov	r2, r3
10009594:	46a4      	mov	ip, r4
10009596:	e7e0      	b.n	1000955a <memset+0x66>

10009598 <strlen>:
10009598:	f020 0103 	bic.w	r1, r0, #3
1000959c:	f010 0003 	ands.w	r0, r0, #3
100095a0:	f1c0 0000 	rsb	r0, r0, #0
100095a4:	f851 3b04 	ldr.w	r3, [r1], #4
100095a8:	f100 0c04 	add.w	ip, r0, #4
100095ac:	ea4f 0ccc 	mov.w	ip, ip, lsl #3
100095b0:	f06f 0200 	mvn.w	r2, #0
100095b4:	bf1c      	itt	ne
100095b6:	fa22 f20c 	lsrne.w	r2, r2, ip
100095ba:	4313      	orrne	r3, r2
100095bc:	f04f 0c01 	mov.w	ip, #1
100095c0:	ea4c 2c0c 	orr.w	ip, ip, ip, lsl #8
100095c4:	ea4c 4c0c 	orr.w	ip, ip, ip, lsl #16
100095c8:	eba3 020c 	sub.w	r2, r3, ip
100095cc:	ea22 0203 	bic.w	r2, r2, r3
100095d0:	ea12 12cc 	ands.w	r2, r2, ip, lsl #7
100095d4:	bf04      	itt	eq
100095d6:	f851 3b04 	ldreq.w	r3, [r1], #4
100095da:	3004      	addeq	r0, #4
100095dc:	d0f4      	beq.n	100095c8 <strlen+0x30>
100095de:	f1c2 0100 	rsb	r1, r2, #0
100095e2:	ea02 0201 	and.w	r2, r2, r1
100095e6:	fab2 f282 	clz	r2, r2
100095ea:	f1c2 021f 	rsb	r2, r2, #31
100095ee:	eb00 00d2 	add.w	r0, r0, r2, lsr #3
100095f2:	4770      	bx	lr

100095f4 <_fini>:
100095f4:	b5f8      	push	{r3, r4, r5, r6, r7, lr}
100095f6:	bf00      	nop

100095f8 <____aeabi_uldivmod_veneer>:
100095f8:	b401      	push	{r0}
100095fa:	4802      	ldr	r0, [pc, #8]	; (10009604 <____aeabi_uldivmod_veneer+0xc>)
100095fc:	4684      	mov	ip, r0
100095fe:	bc01      	pop	{r0}
10009600:	4760      	bx	ip
10009602:	bf00      	nop
10009604:	20000e5d 	.word	0x20000e5d

10009608 <__mutex_exit_veneer>:
10009608:	b401      	push	{r0}
1000960a:	4802      	ldr	r0, [pc, #8]	; (10009614 <__mutex_exit_veneer+0xc>)
1000960c:	4684      	mov	ip, r0
1000960e:	bc01      	pop	{r0}
10009610:	4760      	bx	ip
10009612:	bf00      	nop
10009614:	20000285 	.word	0x20000285

10009618 <__e15_is_critical_frame_period_veneer>:
10009618:	b401      	push	{r0}
1000961a:	4802      	ldr	r0, [pc, #8]	; (10009624 <__e15_is_critical_frame_period_veneer+0xc>)
1000961c:	4684      	mov	ip, r0
1000961e:	bc01      	pop	{r0}
10009620:	4760      	bx	ip
10009622:	bf00      	nop
10009624:	20000a89 	.word	0x20000a89

10009628 <__mutex_try_enter_veneer>:
10009628:	b401      	push	{r0}
1000962a:	4802      	ldr	r0, [pc, #8]	; (10009634 <__mutex_try_enter_veneer+0xc>)
1000962c:	4684      	mov	ip, r0
1000962e:	bc01      	pop	{r0}
10009630:	4760      	bx	ip
10009632:	bf00      	nop
10009634:	20000111 	.word	0x20000111

10009638 <__mutex_enter_timeout_ms_veneer>:
10009638:	b401      	push	{r0}
1000963a:	4802      	ldr	r0, [pc, #8]	; (10009644 <__mutex_enter_timeout_ms_veneer+0xc>)
1000963c:	4684      	mov	ip, r0
1000963e:	bc01      	pop	{r0}
10009640:	4760      	bx	ip
10009642:	bf00      	nop
10009644:	2000020d 	.word	0x2000020d

10009648 <____aeabi_ldivmod_veneer>:
10009648:	b401      	push	{r0}
1000964a:	4802      	ldr	r0, [pc, #8]	; (10009654 <____aeabi_ldivmod_veneer+0xc>)
1000964c:	4684      	mov	ip, r0
1000964e:	bc01      	pop	{r0}
10009650:	4760      	bx	ip
10009652:	bf00      	nop
10009654:	20000dbd 	.word	0x20000dbd

10009658 <__mutex_try_enter_block_until_veneer>:
10009658:	b401      	push	{r0}
1000965a:	4802      	ldr	r0, [pc, #8]	; (10009664 <__mutex_try_enter_block_until_veneer+0xc>)
1000965c:	4684      	mov	ip, r0
1000965e:	bc01      	pop	{r0}
10009660:	4760      	bx	ip
10009662:	bf00      	nop
10009664:	2000015d 	.word	0x2000015d

10009668 <__hw_endpoint_start_next_buffer_veneer>:
10009668:	b401      	push	{r0}
1000966a:	4802      	ldr	r0, [pc, #8]	; (10009674 <__hw_endpoint_start_next_buffer_veneer+0xc>)
1000966c:	4684      	mov	ip, r0
1000966e:	bc01      	pop	{r0}
10009670:	4760      	bx	ip
10009672:	bf00      	nop
10009674:	20000b01 	.word	0x20000b01

10009678 <__hw_endpoint_reset_transfer_veneer>:
10009678:	b401      	push	{r0}
1000967a:	4802      	ldr	r0, [pc, #8]	; (10009684 <__hw_endpoint_reset_transfer_veneer+0xc>)
1000967c:	4684      	mov	ip, r0
1000967e:	bc01      	pop	{r0}
10009680:	4760      	bx	ip
10009682:	bf00      	nop
10009684:	20000ab1 	.word	0x20000ab1

10009688 <___hw_endpoint_buffer_control_update32_veneer>:
10009688:	b401      	push	{r0}
1000968a:	4802      	ldr	r0, [pc, #8]	; (10009694 <___hw_endpoint_buffer_control_update32_veneer+0xc>)
1000968c:	4684      	mov	ip, r0
1000968e:	bc01      	pop	{r0}
10009690:	4760      	bx	ip
10009692:	bf00      	nop
10009694:	20000abd 	.word	0x20000abd

10009698 <__e15_is_bulkin_ep_veneer>:
10009698:	b401      	push	{r0}
1000969a:	4802      	ldr	r0, [pc, #8]	; (100096a4 <__e15_is_bulkin_ep_veneer+0xc>)
1000969c:	4684      	mov	ip, r0
1000969e:	bc01      	pop	{r0}
100096a0:	4760      	bx	ip
100096a2:	bf00      	nop
100096a4:	20000a61 	.word	0x20000a61

100096a8 <__reset_non_control_endpoints_veneer>:
100096a8:	b401      	push	{r0}
100096aa:	4802      	ldr	r0, [pc, #8]	; (100096b4 <__reset_non_control_endpoints_veneer+0xc>)
100096ac:	4684      	mov	ip, r0
100096ae:	bc01      	pop	{r0}
100096b0:	4760      	bx	ip
100096b2:	bf00      	nop
100096b4:	200002b9 	.word	0x200002b9

100096b8 <__pre_init_runtime_init_bootrom_reset>:
100096b8:	10004f1d                                .O..

100096bc <__pre_init_runtime_init_early_resets>:
100096bc:	10004e91                                .N..

100096c0 <__pre_init_runtime_init_usb_power_down>:
100096c0:	10004ec5                                .N..

100096c4 <__pre_init_runtime_init_clocks>:
100096c4:	10005019                                .P..

100096c8 <__pre_init_runtime_init_post_clock_resets>:
100096c8:	10004efd                                .N..

100096cc <__pre_init_runtime_init_boot_locks_reset>:
100096cc:	10001b55                                U...

100096d0 <__pre_init_runtime_init_spin_locks_reset>:
100096d0:	10004f45                                EO..

100096d4 <__pre_init_runtime_init_bootrom_locking_enable>:
100096d4:	10001b41                                A...

100096d8 <__pre_init_runtime_init_mutex>:
100096d8:	10000d35                                5...

100096dc <__pre_init_runtime_init_install_ram_vector_table>:
100096dc:	10004f49                                IO..

100096e0 <__pre_init_runtime_init_default_alarm_pool>:
100096e0:	10001115                                ....

100096e4 <__pre_init_first_per_core_initializer>:
100096e4:	10004e41                                AN..

100096e8 <__pre_init_runtime_init_per_core_bootrom_reset>:
100096e8:	10004f31                                1O..

100096ec <__pre_init_runtime_init_per_core_enable_coprocessors>:
100096ec:	10004ee1                                .N..

100096f0 <__pre_init_spinlock_set_extexclall>:
100096f0:	100008e5                                ....

100096f4 <__pre_init_runtime_init_per_core_irq_priorities>:
100096f4:	1000090d                                ....

100096f8 <__init_array_start>:
100096f8:	100071f1 	.word	0x100071f1

100096fc <__frame_dummy_init_array_entry>:
100096fc:	1000020d 10002229                       ....)"..

Disassembly of section .data:

20000110 <mutex_try_enter>:
20000110:	b538      	push	{r3, r4, r5, lr}
20000112:	4604      	mov	r4, r0
20000114:	6803      	ldr	r3, [r0, #0]
20000116:	f3ef 8510 	mrs	r5, PRIMASK
2000011a:	b672      	cpsid	i
2000011c:	e8d3 0fcf 	ldaexb	r0, [r3]
20000120:	2201      	movs	r2, #1
20000122:	2800      	cmp	r0, #0
20000124:	d1fa      	bne.n	2000011c <mutex_try_enter+0xc>
20000126:	e8c3 2f40 	strexb	r0, r2, [r3]
2000012a:	2800      	cmp	r0, #0
2000012c:	d1f6      	bne.n	2000011c <mutex_try_enter+0xc>
2000012e:	f3bf 8f5f 	dmb	sy
20000132:	6863      	ldr	r3, [r4, #4]
20000134:	1c5a      	adds	r2, r3, #1
20000136:	d00b      	beq.n	20000150 <mutex_try_enter+0x40>
20000138:	b141      	cbz	r1, 2000014c <mutex_try_enter+0x3c>
2000013a:	2000      	movs	r0, #0
2000013c:	600b      	str	r3, [r1, #0]
2000013e:	2300      	movs	r3, #0
20000140:	6822      	ldr	r2, [r4, #0]
20000142:	e8c2 3f8f 	stlb	r3, [r2]
20000146:	f385 8810 	msr	PRIMASK, r5
2000014a:	bd38      	pop	{r3, r4, r5, pc}
2000014c:	4608      	mov	r0, r1
2000014e:	e7f6      	b.n	2000013e <mutex_try_enter+0x2e>
20000150:	f001 f846 	bl	200011e0 <__ulPortLockGetCurrentOwnerId_veneer>
20000154:	4603      	mov	r3, r0
20000156:	2001      	movs	r0, #1
20000158:	6063      	str	r3, [r4, #4]
2000015a:	e7f0      	b.n	2000013e <mutex_try_enter+0x2e>

2000015c <mutex_try_enter_block_until>:
2000015c:	e92d 41f0 	stmdb	sp!, {r4, r5, r6, r7, r8, lr}
20000160:	461f      	mov	r7, r3
20000162:	4604      	mov	r4, r0
20000164:	4616      	mov	r6, r2
20000166:	6803      	ldr	r3, [r0, #0]
20000168:	f3ef 8810 	mrs	r8, PRIMASK
2000016c:	b672      	cpsid	i
2000016e:	e8d3 1fcf 	ldaexb	r1, [r3]
20000172:	2201      	movs	r2, #1
20000174:	2900      	cmp	r1, #0
20000176:	d1fa      	bne.n	2000016e <mutex_try_enter_block_until+0x12>
20000178:	e8c3 2f41 	strexb	r1, r2, [r3]
2000017c:	2900      	cmp	r1, #0
2000017e:	d1f6      	bne.n	2000016e <mutex_try_enter_block_until+0x12>
20000180:	f3bf 8f5f 	dmb	sy
20000184:	6845      	ldr	r5, [r0, #4]
20000186:	1c6b      	adds	r3, r5, #1
20000188:	d00c      	beq.n	200001a4 <mutex_try_enter_block_until+0x48>
2000018a:	2300      	movs	r3, #0
2000018c:	6802      	ldr	r2, [r0, #0]
2000018e:	e8c2 3f8f 	stlb	r3, [r2]
20000192:	f388 8810 	msr	PRIMASK, r8
20000196:	f001 f823 	bl	200011e0 <__ulPortLockGetCurrentOwnerId_veneer>
2000019a:	42a8      	cmp	r0, r5
2000019c:	d10e      	bne.n	200001bc <mutex_try_enter_block_until+0x60>
2000019e:	2000      	movs	r0, #0
200001a0:	e8bd 81f0 	ldmia.w	sp!, {r4, r5, r6, r7, r8, pc}
200001a4:	f001 f81c 	bl	200011e0 <__ulPortLockGetCurrentOwnerId_veneer>
200001a8:	2300      	movs	r3, #0
200001aa:	6822      	ldr	r2, [r4, #0]
200001ac:	6060      	str	r0, [r4, #4]
200001ae:	e8c2 3f8f 	stlb	r3, [r2]
200001b2:	f388 8810 	msr	PRIMASK, r8
200001b6:	2001      	movs	r0, #1
200001b8:	e8bd 81f0 	ldmia.w	sp!, {r4, r5, r6, r7, r8, pc}
200001bc:	f001 f810 	bl	200011e0 <__ulPortLockGetCurrentOwnerId_veneer>
200001c0:	4680      	mov	r8, r0
200001c2:	e006      	b.n	200001d2 <mutex_try_enter_block_until+0x76>
200001c4:	4632      	mov	r2, r6
200001c6:	463b      	mov	r3, r7
200001c8:	4620      	mov	r0, r4
200001ca:	f001 f811 	bl	200011f0 <__xPortLockInternalSpinUnlockWithBestEffortWaitOrTimeout_veneer>
200001ce:	2800      	cmp	r0, #0
200001d0:	d1e5      	bne.n	2000019e <mutex_try_enter_block_until+0x42>
200001d2:	6825      	ldr	r5, [r4, #0]
200001d4:	f3ef 8110 	mrs	r1, PRIMASK
200001d8:	b672      	cpsid	i
200001da:	e8d5 2fcf 	ldaexb	r2, [r5]
200001de:	2301      	movs	r3, #1
200001e0:	2a00      	cmp	r2, #0
200001e2:	d1fa      	bne.n	200001da <mutex_try_enter_block_until+0x7e>
200001e4:	e8c5 3f42 	strexb	r2, r3, [r5]
200001e8:	2a00      	cmp	r2, #0
200001ea:	d1f6      	bne.n	200001da <mutex_try_enter_block_until+0x7e>
200001ec:	f3bf 8f5f 	dmb	sy
200001f0:	6863      	ldr	r3, [r4, #4]
200001f2:	3301      	adds	r3, #1
200001f4:	d1e6      	bne.n	200001c4 <mutex_try_enter_block_until+0x68>
200001f6:	2300      	movs	r3, #0
200001f8:	6822      	ldr	r2, [r4, #0]
200001fa:	f8c4 8004 	str.w	r8, [r4, #4]
200001fe:	e8c2 3f8f 	stlb	r3, [r2]
20000202:	f381 8810 	msr	PRIMASK, r1
20000206:	2001      	movs	r0, #1
20000208:	e7ca      	b.n	200001a0 <mutex_try_enter_block_until+0x44>
2000020a:	bf00      	nop

2000020c <mutex_enter_timeout_ms>:
2000020c:	e92d 41f0 	stmdb	sp!, {r4, r5, r6, r7, r8, lr}
20000210:	460d      	mov	r5, r1
20000212:	4604      	mov	r4, r0
20000214:	f000 ffdc 	bl	200011d0 <__time_us_64_veneer>
20000218:	f44f 737a 	mov.w	r3, #1000	; 0x3e8
2000021c:	fbe5 0103 	umlal	r0, r1, r5, r3
20000220:	2900      	cmp	r1, #0
20000222:	bfb9      	ittee	lt
20000224:	f04f 36ff 	movlt.w	r6, #4294967295
20000228:	f06f 4700 	mvnlt.w	r7, #2147483648	; 0x80000000
2000022c:	460f      	movge	r7, r1
2000022e:	4606      	movge	r6, r0
20000230:	f000 ffd6 	bl	200011e0 <__ulPortLockGetCurrentOwnerId_veneer>
20000234:	4680      	mov	r8, r0
20000236:	e005      	b.n	20000244 <mutex_enter_timeout_ms+0x38>
20000238:	4632      	mov	r2, r6
2000023a:	463b      	mov	r3, r7
2000023c:	4620      	mov	r0, r4
2000023e:	f000 ffd7 	bl	200011f0 <__xPortLockInternalSpinUnlockWithBestEffortWaitOrTimeout_veneer>
20000242:	b9e0      	cbnz	r0, 2000027e <mutex_enter_timeout_ms+0x72>
20000244:	6825      	ldr	r5, [r4, #0]
20000246:	f3ef 8110 	mrs	r1, PRIMASK
2000024a:	b672      	cpsid	i
2000024c:	e8d5 2fcf 	ldaexb	r2, [r5]
20000250:	2301      	movs	r3, #1
20000252:	2a00      	cmp	r2, #0
20000254:	d1fa      	bne.n	2000024c <mutex_enter_timeout_ms+0x40>
20000256:	e8c5 3f42 	strexb	r2, r3, [r5]
2000025a:	2a00      	cmp	r2, #0
2000025c:	d1f6      	bne.n	2000024c <mutex_enter_timeout_ms+0x40>
2000025e:	f3bf 8f5f 	dmb	sy
20000262:	6865      	ldr	r5, [r4, #4]
20000264:	3501      	adds	r5, #1
20000266:	d1e7      	bne.n	20000238 <mutex_enter_timeout_ms+0x2c>
20000268:	2300      	movs	r3, #0
2000026a:	6822      	ldr	r2, [r4, #0]
2000026c:	f8c4 8004 	str.w	r8, [r4, #4]
20000270:	e8c2 3f8f 	stlb	r3, [r2]
20000274:	f381 8810 	msr	PRIMASK, r1
20000278:	2001      	movs	r0, #1
2000027a:	e8bd 81f0 	ldmia.w	sp!, {r4, r5, r6, r7, r8, pc}
2000027e:	2000      	movs	r0, #0
20000280:	e8bd 81f0 	ldmia.w	sp!, {r4, r5, r6, r7, r8, pc}

20000284 <mutex_exit>:
20000284:	b500      	push	{lr}
20000286:	6802      	ldr	r2, [r0, #0]
20000288:	f3ef 8110 	mrs	r1, PRIMASK
2000028c:	b672      	cpsid	i
2000028e:	e8d2 efcf 	ldaexb	lr, [r2]
20000292:	f05f 0c01 	movs.w	ip, #1
20000296:	f1be 0f00 	cmp.w	lr, #0
2000029a:	d1f8      	bne.n	2000028e <mutex_exit+0xa>
2000029c:	e8c2 cf4e 	strexb	lr, ip, [r2]
200002a0:	f1be 0f00 	cmp.w	lr, #0
200002a4:	d1f3      	bne.n	2000028e <mutex_exit+0xa>
200002a6:	f3bf 8f5f 	dmb	sy
200002aa:	f04f 32ff 	mov.w	r2, #4294967295
200002ae:	f85d eb04 	ldr.w	lr, [sp], #4
200002b2:	6042      	str	r2, [r0, #4]
200002b4:	f000 bf6c 	b.w	20001190 <__vPortLockInternalSpinUnlockWithNotify_veneer>

200002b8 <reset_non_control_endpoints>:
200002b8:	2100      	movs	r1, #0
200002ba:	b508      	push	{r3, lr}
200002bc:	4b13      	ldr	r3, [pc, #76]	; (2000030c <reset_non_control_endpoints+0x54>)
200002be:	f44f 7270 	mov.w	r2, #960	; 0x3c0
200002c2:	6099      	str	r1, [r3, #8]
200002c4:	4812      	ldr	r0, [pc, #72]	; (20000310 <reset_non_control_endpoints+0x58>)
200002c6:	60d9      	str	r1, [r3, #12]
200002c8:	6119      	str	r1, [r3, #16]
200002ca:	6159      	str	r1, [r3, #20]
200002cc:	6199      	str	r1, [r3, #24]
200002ce:	61d9      	str	r1, [r3, #28]
200002d0:	6219      	str	r1, [r3, #32]
200002d2:	6259      	str	r1, [r3, #36]	; 0x24
200002d4:	6299      	str	r1, [r3, #40]	; 0x28
200002d6:	62d9      	str	r1, [r3, #44]	; 0x2c
200002d8:	6319      	str	r1, [r3, #48]	; 0x30
200002da:	6359      	str	r1, [r3, #52]	; 0x34
200002dc:	6399      	str	r1, [r3, #56]	; 0x38
200002de:	63d9      	str	r1, [r3, #60]	; 0x3c
200002e0:	6419      	str	r1, [r3, #64]	; 0x40
200002e2:	6459      	str	r1, [r3, #68]	; 0x44
200002e4:	6499      	str	r1, [r3, #72]	; 0x48
200002e6:	64d9      	str	r1, [r3, #76]	; 0x4c
200002e8:	6519      	str	r1, [r3, #80]	; 0x50
200002ea:	6559      	str	r1, [r3, #84]	; 0x54
200002ec:	6599      	str	r1, [r3, #88]	; 0x58
200002ee:	65d9      	str	r1, [r3, #92]	; 0x5c
200002f0:	6619      	str	r1, [r3, #96]	; 0x60
200002f2:	6659      	str	r1, [r3, #100]	; 0x64
200002f4:	6699      	str	r1, [r3, #104]	; 0x68
200002f6:	66d9      	str	r1, [r3, #108]	; 0x6c
200002f8:	6719      	str	r1, [r3, #112]	; 0x70
200002fa:	6759      	str	r1, [r3, #116]	; 0x74
200002fc:	6799      	str	r1, [r3, #120]	; 0x78
200002fe:	67d9      	str	r1, [r3, #124]	; 0x7c
20000300:	f000 ff56 	bl	200011b0 <__memset_veneer>
20000304:	4b03      	ldr	r3, [pc, #12]	; (20000314 <reset_non_control_endpoints+0x5c>)
20000306:	4a04      	ldr	r2, [pc, #16]	; (20000318 <reset_non_control_endpoints+0x60>)
20000308:	601a      	str	r2, [r3, #0]
2000030a:	bd08      	pop	{r3, pc}
2000030c:	50100000 	.word	0x50100000
20000310:	20001b2c 	.word	0x20001b2c
20000314:	20001ef4 	.word	0x20001ef4
20000318:	50100180 	.word	0x50100180

2000031c <hw_handle_buff_status>:
2000031c:	e92d 4ff0 	stmdb	sp!, {r4, r5, r6, r7, r8, r9, sl, fp, lr}
20000320:	4b23      	ldr	r3, [pc, #140]	; (200003b0 <hw_handle_buff_status+0x94>)
20000322:	b085      	sub	sp, #20
20000324:	f8d3 a058 	ldr.w	sl, [r3, #88]	; 0x58
20000328:	f1ba 0f00 	cmp.w	sl, #0
2000032c:	d025      	beq.n	2000037a <hw_handle_buff_status+0x5e>
2000032e:	2400      	movs	r4, #0
20000330:	2501      	movs	r5, #1
20000332:	f04f 0802 	mov.w	r8, #2
20000336:	4f1f      	ldr	r7, [pc, #124]	; (200003b4 <hw_handle_buff_status+0x98>)
20000338:	e003      	b.n	20000342 <hw_handle_buff_status+0x26>
2000033a:	006d      	lsls	r5, r5, #1
2000033c:	b2dc      	uxtb	r4, r3
2000033e:	2c20      	cmp	r4, #32
20000340:	d01b      	beq.n	2000037a <hw_handle_buff_status+0x5e>
20000342:	ea1a 0f05 	tst.w	sl, r5
20000346:	f104 0301 	add.w	r3, r4, #1
2000034a:	d0f6      	beq.n	2000033a <hw_handle_buff_status+0x1e>
2000034c:	43e6      	mvns	r6, r4
2000034e:	ea4f 0954 	mov.w	r9, r4, lsr #1
20000352:	f006 0601 	and.w	r6, r6, #1
20000356:	fb18 6b09 	smlabb	fp, r8, r9, r6
2000035a:	4b17      	ldr	r3, [pc, #92]	; (200003b8 <hw_handle_buff_status+0x9c>)
2000035c:	eb07 1b4b 	add.w	fp, r7, fp, lsl #5
20000360:	659d      	str	r5, [r3, #88]	; 0x58
20000362:	4658      	mov	r0, fp
20000364:	ea2a 0a05 	bic.w	sl, sl, r5
20000368:	006d      	lsls	r5, r5, #1
2000036a:	f000 fbfb 	bl	20000b64 <hw_endpoint_xfer_continue>
2000036e:	b938      	cbnz	r0, 20000380 <hw_handle_buff_status+0x64>
20000370:	3401      	adds	r4, #1
20000372:	b2e4      	uxtb	r4, r4
20000374:	f1ba 0f00 	cmp.w	sl, #0
20000378:	d1e1      	bne.n	2000033e <hw_handle_buff_status+0x22>
2000037a:	b005      	add	sp, #20
2000037c:	e8bd 8ff0 	ldmia.w	sp!, {r4, r5, r6, r7, r8, r9, sl, fp, pc}
20000380:	f44f 63e0 	mov.w	r3, #1792	; 0x700
20000384:	f8ad 3004 	strh.w	r3, [sp, #4]
20000388:	2300      	movs	r3, #0
2000038a:	eb06 0649 	add.w	r6, r6, r9, lsl #1
2000038e:	eb07 1646 	add.w	r6, r7, r6, lsl #5
20000392:	78b2      	ldrb	r2, [r6, #2]
20000394:	f88d 3009 	strb.w	r3, [sp, #9]
20000398:	8af3      	ldrh	r3, [r6, #22]
2000039a:	a801      	add	r0, sp, #4
2000039c:	2101      	movs	r1, #1
2000039e:	f88d 2008 	strb.w	r2, [sp, #8]
200003a2:	9303      	str	r3, [sp, #12]
200003a4:	f000 fbfe 	bl	20000ba4 <dcd_event_handler>
200003a8:	4658      	mov	r0, fp
200003aa:	f000 fb81 	bl	20000ab0 <hw_endpoint_reset_transfer>
200003ae:	e7df      	b.n	20000370 <hw_handle_buff_status+0x54>
200003b0:	50110000 	.word	0x50110000
200003b4:	20001aec 	.word	0x20001aec
200003b8:	50113000 	.word	0x50113000

200003bc <dcd_rp2040_irq>:
200003bc:	b570      	push	{r4, r5, r6, lr}
200003be:	4bb2      	ldr	r3, [pc, #712]	; (20000688 <dcd_rp2040_irq+0x2cc>)
200003c0:	b084      	sub	sp, #16
200003c2:	f8d3 5098 	ldr.w	r5, [r3, #152]	; 0x98
200003c6:	f415 3600 	ands.w	r6, r5, #131072	; 0x20000
200003ca:	d074      	beq.n	200004b6 <dcd_rp2040_irq+0xfa>
200003cc:	4baf      	ldr	r3, [pc, #700]	; (2000068c <dcd_rp2040_irq+0x2d0>)
200003ce:	4cb0      	ldr	r4, [pc, #704]	; (20000690 <dcd_rp2040_irq+0x2d4>)
200003d0:	6a99      	ldr	r1, [r3, #40]	; 0x28
200003d2:	f894 303b 	ldrb.w	r3, [r4, #59]	; 0x3b
200003d6:	4aaf      	ldr	r2, [pc, #700]	; (20000694 <dcd_rp2040_irq+0x2d8>)
200003d8:	2b02      	cmp	r3, #2
200003da:	6011      	str	r1, [r2, #0]
200003dc:	f000 80f9 	beq.w	200005d2 <dcd_rp2040_irq+0x216>
200003e0:	2600      	movs	r6, #0
200003e2:	f894 307b 	ldrb.w	r3, [r4, #123]	; 0x7b
200003e6:	2b02      	cmp	r3, #2
200003e8:	f000 81c8 	beq.w	2000077c <dcd_rp2040_irq+0x3c0>
200003ec:	f894 30bb 	ldrb.w	r3, [r4, #187]	; 0xbb
200003f0:	2b02      	cmp	r3, #2
200003f2:	f000 81b9 	beq.w	20000768 <dcd_rp2040_irq+0x3ac>
200003f6:	f894 30fb 	ldrb.w	r3, [r4, #251]	; 0xfb
200003fa:	2b02      	cmp	r3, #2
200003fc:	f000 81aa 	beq.w	20000754 <dcd_rp2040_irq+0x398>
20000400:	f894 313b 	ldrb.w	r3, [r4, #315]	; 0x13b
20000404:	2b02      	cmp	r3, #2
20000406:	f000 819a 	beq.w	2000073e <dcd_rp2040_irq+0x382>
2000040a:	f894 317b 	ldrb.w	r3, [r4, #379]	; 0x17b
2000040e:	2b02      	cmp	r3, #2
20000410:	f000 818a 	beq.w	20000728 <dcd_rp2040_irq+0x36c>
20000414:	f894 31bb 	ldrb.w	r3, [r4, #443]	; 0x1bb
20000418:	2b02      	cmp	r3, #2
2000041a:	f000 817a 	beq.w	20000712 <dcd_rp2040_irq+0x356>
2000041e:	f894 31fb 	ldrb.w	r3, [r4, #507]	; 0x1fb
20000422:	2b02      	cmp	r3, #2
20000424:	f000 816a 	beq.w	200006fc <dcd_rp2040_irq+0x340>
20000428:	f894 323b 	ldrb.w	r3, [r4, #571]	; 0x23b
2000042c:	2b02      	cmp	r3, #2
2000042e:	f000 8159 	beq.w	200006e4 <dcd_rp2040_irq+0x328>
20000432:	f894 327b 	ldrb.w	r3, [r4, #635]	; 0x27b
20000436:	2b02      	cmp	r3, #2
20000438:	f000 8148 	beq.w	200006cc <dcd_rp2040_irq+0x310>
2000043c:	f894 32bb 	ldrb.w	r3, [r4, #699]	; 0x2bb
20000440:	2b02      	cmp	r3, #2
20000442:	f000 8137 	beq.w	200006b4 <dcd_rp2040_irq+0x2f8>
20000446:	f894 32fb 	ldrb.w	r3, [r4, #763]	; 0x2fb
2000044a:	2b02      	cmp	r3, #2
2000044c:	f000 8110 	beq.w	20000670 <dcd_rp2040_irq+0x2b4>
20000450:	f894 333b 	ldrb.w	r3, [r4, #827]	; 0x33b
20000454:	2b02      	cmp	r3, #2
20000456:	f000 80ff 	beq.w	20000658 <dcd_rp2040_irq+0x29c>
2000045a:	f894 337b 	ldrb.w	r3, [r4, #891]	; 0x37b
2000045e:	2b02      	cmp	r3, #2
20000460:	f000 80ee 	beq.w	20000640 <dcd_rp2040_irq+0x284>
20000464:	f894 33bb 	ldrb.w	r3, [r4, #955]	; 0x3bb
20000468:	2b02      	cmp	r3, #2
2000046a:	f000 80d5 	beq.w	20000618 <dcd_rp2040_irq+0x25c>
2000046e:	f894 33fb 	ldrb.w	r3, [r4, #1019]	; 0x3fb
20000472:	2b02      	cmp	r3, #2
20000474:	f000 80bf 	beq.w	200005f6 <dcd_rp2040_irq+0x23a>
20000478:	b93e      	cbnz	r6, 2000048a <dcd_rp2040_irq+0xce>
2000047a:	4b87      	ldr	r3, [pc, #540]	; (20000698 <dcd_rp2040_irq+0x2dc>)
2000047c:	781b      	ldrb	r3, [r3, #0]
2000047e:	b923      	cbnz	r3, 2000048a <dcd_rp2040_irq+0xce>
20000480:	f44f 3200 	mov.w	r2, #131072	; 0x20000
20000484:	4b85      	ldr	r3, [pc, #532]	; (2000069c <dcd_rp2040_irq+0x2e0>)
20000486:	f8c3 2090 	str.w	r2, [r3, #144]	; 0x90
2000048a:	f44f 7240 	mov.w	r2, #768	; 0x300
2000048e:	4b7e      	ldr	r3, [pc, #504]	; (20000688 <dcd_rp2040_irq+0x2cc>)
20000490:	2101      	movs	r1, #1
20000492:	6c9b      	ldr	r3, [r3, #72]	; 0x48
20000494:	a801      	add	r0, sp, #4
20000496:	f3c3 030a 	ubfx	r3, r3, #0, #11
2000049a:	9302      	str	r3, [sp, #8]
2000049c:	f8ad 2004 	strh.w	r2, [sp, #4]
200004a0:	f000 fb80 	bl	20000ba4 <dcd_event_handler>
200004a4:	06e9      	lsls	r1, r5, #27
200004a6:	f44f 3600 	mov.w	r6, #131072	; 0x20000
200004aa:	4c7d      	ldr	r4, [pc, #500]	; (200006a0 <dcd_rp2040_irq+0x2e4>)
200004ac:	d507      	bpl.n	200004be <dcd_rp2040_irq+0x102>
200004ae:	f7ff ff35 	bl	2000031c <hw_handle_buff_status>
200004b2:	4626      	mov	r6, r4
200004b4:	e003      	b.n	200004be <dcd_rp2040_irq+0x102>
200004b6:	06e9      	lsls	r1, r5, #27
200004b8:	f04f 0410 	mov.w	r4, #16
200004bc:	d4f7      	bmi.n	200004ae <dcd_rp2040_irq+0xf2>
200004be:	03ea      	lsls	r2, r5, #15
200004c0:	d532      	bpl.n	20000528 <dcd_rp2040_irq+0x16c>
200004c2:	4c73      	ldr	r4, [pc, #460]	; (20000690 <dcd_rp2040_irq+0x2d4>)
200004c4:	f446 3680 	orr.w	r6, r6, #65536	; 0x10000
200004c8:	7ea3      	ldrb	r3, [r4, #26]
200004ca:	b19b      	cbz	r3, 200004f4 <dcd_rp2040_irq+0x138>
200004cc:	2102      	movs	r1, #2
200004ce:	4b75      	ldr	r3, [pc, #468]	; (200006a4 <dcd_rp2040_irq+0x2e8>)
200004d0:	4a6d      	ldr	r2, [pc, #436]	; (20000688 <dcd_rp2040_irq+0x2cc>)
200004d2:	6619      	str	r1, [r3, #96]	; 0x60
200004d4:	6e53      	ldr	r3, [r2, #100]	; 0x64
200004d6:	079b      	lsls	r3, r3, #30
200004d8:	d5fc      	bpl.n	200004d4 <dcd_rp2040_irq+0x118>
200004da:	f44f 5240 	mov.w	r2, #12288	; 0x3000
200004de:	2100      	movs	r1, #0
200004e0:	486b      	ldr	r0, [pc, #428]	; (20000690 <dcd_rp2040_irq+0x2d4>)
200004e2:	f000 faeb 	bl	20000abc <_hw_endpoint_buffer_control_update32>
200004e6:	486a      	ldr	r0, [pc, #424]	; (20000690 <dcd_rp2040_irq+0x2d4>)
200004e8:	f000 fae2 	bl	20000ab0 <hw_endpoint_reset_transfer>
200004ec:	2202      	movs	r2, #2
200004ee:	4b6b      	ldr	r3, [pc, #428]	; (2000069c <dcd_rp2040_irq+0x2e0>)
200004f0:	665a      	str	r2, [r3, #100]	; 0x64
200004f2:	661a      	str	r2, [r3, #96]	; 0x60
200004f4:	2301      	movs	r3, #1
200004f6:	f894 203a 	ldrb.w	r2, [r4, #58]	; 0x3a
200004fa:	70e3      	strb	r3, [r4, #3]
200004fc:	b9fa      	cbnz	r2, 2000053e <dcd_rp2040_irq+0x182>
200004fe:	2301      	movs	r3, #1
20000500:	f44f 61c0 	mov.w	r1, #1536	; 0x600
20000504:	4a68      	ldr	r2, [pc, #416]	; (200006a8 <dcd_rp2040_irq+0x2ec>)
20000506:	f884 3023 	strb.w	r3, [r4, #35]	; 0x23
2000050a:	f8ad 1004 	strh.w	r1, [sp, #4]
2000050e:	e892 0003 	ldmia.w	r2, {r0, r1}
20000512:	aa04      	add	r2, sp, #16
20000514:	e902 0003 	stmdb	r2, {r0, r1}
20000518:	4619      	mov	r1, r3
2000051a:	a801      	add	r0, sp, #4
2000051c:	f000 fb42 	bl	20000ba4 <dcd_event_handler>
20000520:	f44f 3200 	mov.w	r2, #131072	; 0x20000
20000524:	4b5d      	ldr	r3, [pc, #372]	; (2000069c <dcd_rp2040_irq+0x2e0>)
20000526:	651a      	str	r2, [r3, #80]	; 0x50
20000528:	04e9      	lsls	r1, r5, #19
2000052a:	d41d      	bmi.n	20000568 <dcd_rp2040_irq+0x1ac>
2000052c:	046a      	lsls	r2, r5, #17
2000052e:	d432      	bmi.n	20000596 <dcd_rp2040_irq+0x1da>
20000530:	042b      	lsls	r3, r5, #16
20000532:	d43f      	bmi.n	200005b4 <dcd_rp2040_irq+0x1f8>
20000534:	42ae      	cmp	r6, r5
20000536:	f040 819a 	bne.w	2000086e <dcd_rp2040_irq+0x4b2>
2000053a:	b004      	add	sp, #16
2000053c:	bd70      	pop	{r4, r5, r6, pc}
2000053e:	4a59      	ldr	r2, [pc, #356]	; (200006a4 <dcd_rp2040_irq+0x2e8>)
20000540:	6613      	str	r3, [r2, #96]	; 0x60
20000542:	f5a2 5200 	sub.w	r2, r2, #8192	; 0x2000
20000546:	6e53      	ldr	r3, [r2, #100]	; 0x64
20000548:	07d8      	lsls	r0, r3, #31
2000054a:	d5fc      	bpl.n	20000546 <dcd_rp2040_irq+0x18a>
2000054c:	f44f 5240 	mov.w	r2, #12288	; 0x3000
20000550:	2100      	movs	r1, #0
20000552:	4856      	ldr	r0, [pc, #344]	; (200006ac <dcd_rp2040_irq+0x2f0>)
20000554:	f000 fab2 	bl	20000abc <_hw_endpoint_buffer_control_update32>
20000558:	4854      	ldr	r0, [pc, #336]	; (200006ac <dcd_rp2040_irq+0x2f0>)
2000055a:	f000 faa9 	bl	20000ab0 <hw_endpoint_reset_transfer>
2000055e:	2201      	movs	r2, #1
20000560:	4b4e      	ldr	r3, [pc, #312]	; (2000069c <dcd_rp2040_irq+0x2e0>)
20000562:	665a      	str	r2, [r3, #100]	; 0x64
20000564:	661a      	str	r2, [r3, #96]	; 0x60
20000566:	e7ca      	b.n	200004fe <dcd_rp2040_irq+0x142>
20000568:	2400      	movs	r4, #0
2000056a:	4b47      	ldr	r3, [pc, #284]	; (20000688 <dcd_rp2040_irq+0x2cc>)
2000056c:	f446 5680 	orr.w	r6, r6, #4096	; 0x1000
20000570:	601c      	str	r4, [r3, #0]
20000572:	f7ff fea1 	bl	200002b8 <reset_non_control_endpoints>
20000576:	f44f 7380 	mov.w	r3, #256	; 0x100
2000057a:	2101      	movs	r1, #1
2000057c:	a801      	add	r0, sp, #4
2000057e:	f8ad 3004 	strh.w	r3, [sp, #4]
20000582:	f88d 4008 	strb.w	r4, [sp, #8]
20000586:	f000 fb0d 	bl	20000ba4 <dcd_event_handler>
2000058a:	f44f 2200 	mov.w	r2, #524288	; 0x80000
2000058e:	4b43      	ldr	r3, [pc, #268]	; (2000069c <dcd_rp2040_irq+0x2e0>)
20000590:	651a      	str	r2, [r3, #80]	; 0x50
20000592:	046a      	lsls	r2, r5, #17
20000594:	d5cc      	bpl.n	20000530 <dcd_rp2040_irq+0x174>
20000596:	f44f 6380 	mov.w	r3, #1024	; 0x400
2000059a:	2101      	movs	r1, #1
2000059c:	a801      	add	r0, sp, #4
2000059e:	f8ad 3004 	strh.w	r3, [sp, #4]
200005a2:	f000 faff 	bl	20000ba4 <dcd_event_handler>
200005a6:	2210      	movs	r2, #16
200005a8:	4b3c      	ldr	r3, [pc, #240]	; (2000069c <dcd_rp2040_irq+0x2e0>)
200005aa:	f446 4680 	orr.w	r6, r6, #16384	; 0x4000
200005ae:	651a      	str	r2, [r3, #80]	; 0x50
200005b0:	042b      	lsls	r3, r5, #16
200005b2:	d5bf      	bpl.n	20000534 <dcd_rp2040_irq+0x178>
200005b4:	f44f 63a0 	mov.w	r3, #1280	; 0x500
200005b8:	2101      	movs	r1, #1
200005ba:	a801      	add	r0, sp, #4
200005bc:	f8ad 3004 	strh.w	r3, [sp, #4]
200005c0:	f000 faf0 	bl	20000ba4 <dcd_event_handler>
200005c4:	f44f 6200 	mov.w	r2, #2048	; 0x800
200005c8:	4b34      	ldr	r3, [pc, #208]	; (2000069c <dcd_rp2040_irq+0x2e0>)
200005ca:	f446 4600 	orr.w	r6, r6, #32768	; 0x8000
200005ce:	651a      	str	r2, [r3, #80]	; 0x50
200005d0:	e7b0      	b.n	20000534 <dcd_rp2040_irq+0x178>
200005d2:	f894 603a 	ldrb.w	r6, [r4, #58]	; 0x3a
200005d6:	2e00      	cmp	r6, #0
200005d8:	f43f af03 	beq.w	200003e2 <dcd_rp2040_irq+0x26>
200005dc:	f894 303c 	ldrb.w	r3, [r4, #60]	; 0x3c
200005e0:	2b00      	cmp	r3, #0
200005e2:	f43f aefe 	beq.w	200003e2 <dcd_rp2040_irq+0x26>
200005e6:	2300      	movs	r3, #0
200005e8:	f104 0020 	add.w	r0, r4, #32
200005ec:	f884 303c 	strb.w	r3, [r4, #60]	; 0x3c
200005f0:	f000 fa86 	bl	20000b00 <hw_endpoint_start_next_buffer>
200005f4:	e6f5      	b.n	200003e2 <dcd_rp2040_irq+0x26>
200005f6:	f894 33fa 	ldrb.w	r3, [r4, #1018]	; 0x3fa
200005fa:	2b00      	cmp	r3, #0
200005fc:	f43f af3c 	beq.w	20000478 <dcd_rp2040_irq+0xbc>
20000600:	f894 33fc 	ldrb.w	r3, [r4, #1020]	; 0x3fc
20000604:	2b00      	cmp	r3, #0
20000606:	f43f af40 	beq.w	2000048a <dcd_rp2040_irq+0xce>
2000060a:	2300      	movs	r3, #0
2000060c:	4828      	ldr	r0, [pc, #160]	; (200006b0 <dcd_rp2040_irq+0x2f4>)
2000060e:	f884 33fc 	strb.w	r3, [r4, #1020]	; 0x3fc
20000612:	f000 fa75 	bl	20000b00 <hw_endpoint_start_next_buffer>
20000616:	e738      	b.n	2000048a <dcd_rp2040_irq+0xce>
20000618:	f894 33ba 	ldrb.w	r3, [r4, #954]	; 0x3ba
2000061c:	2b00      	cmp	r3, #0
2000061e:	f43f af26 	beq.w	2000046e <dcd_rp2040_irq+0xb2>
20000622:	f894 33bc 	ldrb.w	r3, [r4, #956]	; 0x3bc
20000626:	2b00      	cmp	r3, #0
20000628:	f040 80b2 	bne.w	20000790 <dcd_rp2040_irq+0x3d4>
2000062c:	f894 33fb 	ldrb.w	r3, [r4, #1019]	; 0x3fb
20000630:	2b02      	cmp	r3, #2
20000632:	f47f af2a 	bne.w	2000048a <dcd_rp2040_irq+0xce>
20000636:	f894 33fa 	ldrb.w	r3, [r4, #1018]	; 0x3fa
2000063a:	2b00      	cmp	r3, #0
2000063c:	d1e0      	bne.n	20000600 <dcd_rp2040_irq+0x244>
2000063e:	e724      	b.n	2000048a <dcd_rp2040_irq+0xce>
20000640:	f894 337a 	ldrb.w	r3, [r4, #890]	; 0x37a
20000644:	2b00      	cmp	r3, #0
20000646:	f43f af0d 	beq.w	20000464 <dcd_rp2040_irq+0xa8>
2000064a:	f894 237c 	ldrb.w	r2, [r4, #892]	; 0x37c
2000064e:	2a00      	cmp	r2, #0
20000650:	f040 8105 	bne.w	2000085e <dcd_rp2040_irq+0x4a2>
20000654:	461e      	mov	r6, r3
20000656:	e705      	b.n	20000464 <dcd_rp2040_irq+0xa8>
20000658:	f894 333a 	ldrb.w	r3, [r4, #826]	; 0x33a
2000065c:	2b00      	cmp	r3, #0
2000065e:	f43f aefc 	beq.w	2000045a <dcd_rp2040_irq+0x9e>
20000662:	f894 233c 	ldrb.w	r2, [r4, #828]	; 0x33c
20000666:	2a00      	cmp	r2, #0
20000668:	f040 80f1 	bne.w	2000084e <dcd_rp2040_irq+0x492>
2000066c:	461e      	mov	r6, r3
2000066e:	e6f4      	b.n	2000045a <dcd_rp2040_irq+0x9e>
20000670:	f894 32fa 	ldrb.w	r3, [r4, #762]	; 0x2fa
20000674:	2b00      	cmp	r3, #0
20000676:	f43f aeeb 	beq.w	20000450 <dcd_rp2040_irq+0x94>
2000067a:	f894 22fc 	ldrb.w	r2, [r4, #764]	; 0x2fc
2000067e:	2a00      	cmp	r2, #0
20000680:	f040 80dd 	bne.w	2000083e <dcd_rp2040_irq+0x482>
20000684:	461e      	mov	r6, r3
20000686:	e6e3      	b.n	20000450 <dcd_rp2040_irq+0x94>
20000688:	50110000 	.word	0x50110000
2000068c:	400b0000 	.word	0x400b0000
20000690:	20001aec 	.word	0x20001aec
20000694:	20001ae4 	.word	0x20001ae4
20000698:	200422e5 	.word	0x200422e5
2000069c:	50113000 	.word	0x50113000
200006a0:	00020010 	.word	0x00020010
200006a4:	50112000 	.word	0x50112000
200006a8:	50100000 	.word	0x50100000
200006ac:	20001b0c 	.word	0x20001b0c
200006b0:	20001ecc 	.word	0x20001ecc
200006b4:	f894 32ba 	ldrb.w	r3, [r4, #698]	; 0x2ba
200006b8:	2b00      	cmp	r3, #0
200006ba:	f43f aec4 	beq.w	20000446 <dcd_rp2040_irq+0x8a>
200006be:	f894 22bc 	ldrb.w	r2, [r4, #700]	; 0x2bc
200006c2:	2a00      	cmp	r2, #0
200006c4:	f040 80b3 	bne.w	2000082e <dcd_rp2040_irq+0x472>
200006c8:	461e      	mov	r6, r3
200006ca:	e6bc      	b.n	20000446 <dcd_rp2040_irq+0x8a>
200006cc:	f894 327a 	ldrb.w	r3, [r4, #634]	; 0x27a
200006d0:	2b00      	cmp	r3, #0
200006d2:	f43f aeb3 	beq.w	2000043c <dcd_rp2040_irq+0x80>
200006d6:	f894 227c 	ldrb.w	r2, [r4, #636]	; 0x27c
200006da:	2a00      	cmp	r2, #0
200006dc:	f040 809f 	bne.w	2000081e <dcd_rp2040_irq+0x462>
200006e0:	461e      	mov	r6, r3
200006e2:	e6ab      	b.n	2000043c <dcd_rp2040_irq+0x80>
200006e4:	f894 323a 	ldrb.w	r3, [r4, #570]	; 0x23a
200006e8:	2b00      	cmp	r3, #0
200006ea:	f43f aea2 	beq.w	20000432 <dcd_rp2040_irq+0x76>
200006ee:	f894 223c 	ldrb.w	r2, [r4, #572]	; 0x23c
200006f2:	2a00      	cmp	r2, #0
200006f4:	f040 808b 	bne.w	2000080e <dcd_rp2040_irq+0x452>
200006f8:	461e      	mov	r6, r3
200006fa:	e69a      	b.n	20000432 <dcd_rp2040_irq+0x76>
200006fc:	f894 31fa 	ldrb.w	r3, [r4, #506]	; 0x1fa
20000700:	2b00      	cmp	r3, #0
20000702:	f43f ae91 	beq.w	20000428 <dcd_rp2040_irq+0x6c>
20000706:	f894 21fc 	ldrb.w	r2, [r4, #508]	; 0x1fc
2000070a:	2a00      	cmp	r2, #0
2000070c:	d177      	bne.n	200007fe <dcd_rp2040_irq+0x442>
2000070e:	461e      	mov	r6, r3
20000710:	e68a      	b.n	20000428 <dcd_rp2040_irq+0x6c>
20000712:	f894 31ba 	ldrb.w	r3, [r4, #442]	; 0x1ba
20000716:	2b00      	cmp	r3, #0
20000718:	f43f ae81 	beq.w	2000041e <dcd_rp2040_irq+0x62>
2000071c:	f894 21bc 	ldrb.w	r2, [r4, #444]	; 0x1bc
20000720:	2a00      	cmp	r2, #0
20000722:	d164      	bne.n	200007ee <dcd_rp2040_irq+0x432>
20000724:	461e      	mov	r6, r3
20000726:	e67a      	b.n	2000041e <dcd_rp2040_irq+0x62>
20000728:	f894 317a 	ldrb.w	r3, [r4, #378]	; 0x17a
2000072c:	2b00      	cmp	r3, #0
2000072e:	f43f ae71 	beq.w	20000414 <dcd_rp2040_irq+0x58>
20000732:	f894 217c 	ldrb.w	r2, [r4, #380]	; 0x17c
20000736:	2a00      	cmp	r2, #0
20000738:	d151      	bne.n	200007de <dcd_rp2040_irq+0x422>
2000073a:	461e      	mov	r6, r3
2000073c:	e66a      	b.n	20000414 <dcd_rp2040_irq+0x58>
2000073e:	f894 313a 	ldrb.w	r3, [r4, #314]	; 0x13a
20000742:	2b00      	cmp	r3, #0
20000744:	f43f ae61 	beq.w	2000040a <dcd_rp2040_irq+0x4e>
20000748:	f894 213c 	ldrb.w	r2, [r4, #316]	; 0x13c
2000074c:	2a00      	cmp	r2, #0
2000074e:	d13e      	bne.n	200007ce <dcd_rp2040_irq+0x412>
20000750:	461e      	mov	r6, r3
20000752:	e65a      	b.n	2000040a <dcd_rp2040_irq+0x4e>
20000754:	f894 30fa 	ldrb.w	r3, [r4, #250]	; 0xfa
20000758:	2b00      	cmp	r3, #0
2000075a:	f43f ae51 	beq.w	20000400 <dcd_rp2040_irq+0x44>
2000075e:	f894 20fc 	ldrb.w	r2, [r4, #252]	; 0xfc
20000762:	bb62      	cbnz	r2, 200007be <dcd_rp2040_irq+0x402>
20000764:	461e      	mov	r6, r3
20000766:	e64b      	b.n	20000400 <dcd_rp2040_irq+0x44>
20000768:	f894 30ba 	ldrb.w	r3, [r4, #186]	; 0xba
2000076c:	2b00      	cmp	r3, #0
2000076e:	f43f ae42 	beq.w	200003f6 <dcd_rp2040_irq+0x3a>
20000772:	f894 20bc 	ldrb.w	r2, [r4, #188]	; 0xbc
20000776:	b9d2      	cbnz	r2, 200007ae <dcd_rp2040_irq+0x3f2>
20000778:	461e      	mov	r6, r3
2000077a:	e63c      	b.n	200003f6 <dcd_rp2040_irq+0x3a>
2000077c:	f894 307a 	ldrb.w	r3, [r4, #122]	; 0x7a
20000780:	2b00      	cmp	r3, #0
20000782:	f43f ae33 	beq.w	200003ec <dcd_rp2040_irq+0x30>
20000786:	f894 207c 	ldrb.w	r2, [r4, #124]	; 0x7c
2000078a:	b942      	cbnz	r2, 2000079e <dcd_rp2040_irq+0x3e2>
2000078c:	461e      	mov	r6, r3
2000078e:	e62d      	b.n	200003ec <dcd_rp2040_irq+0x30>
20000790:	2300      	movs	r3, #0
20000792:	4839      	ldr	r0, [pc, #228]	; (20000878 <dcd_rp2040_irq+0x4bc>)
20000794:	f884 33bc 	strb.w	r3, [r4, #956]	; 0x3bc
20000798:	f000 f9b2 	bl	20000b00 <hw_endpoint_start_next_buffer>
2000079c:	e746      	b.n	2000062c <dcd_rp2040_irq+0x270>
2000079e:	2200      	movs	r2, #0
200007a0:	4836      	ldr	r0, [pc, #216]	; (2000087c <dcd_rp2040_irq+0x4c0>)
200007a2:	f884 207c 	strb.w	r2, [r4, #124]	; 0x7c
200007a6:	461e      	mov	r6, r3
200007a8:	f000 f9aa 	bl	20000b00 <hw_endpoint_start_next_buffer>
200007ac:	e61e      	b.n	200003ec <dcd_rp2040_irq+0x30>
200007ae:	2200      	movs	r2, #0
200007b0:	4833      	ldr	r0, [pc, #204]	; (20000880 <dcd_rp2040_irq+0x4c4>)
200007b2:	f884 20bc 	strb.w	r2, [r4, #188]	; 0xbc
200007b6:	461e      	mov	r6, r3
200007b8:	f000 f9a2 	bl	20000b00 <hw_endpoint_start_next_buffer>
200007bc:	e61b      	b.n	200003f6 <dcd_rp2040_irq+0x3a>
200007be:	2200      	movs	r2, #0
200007c0:	4830      	ldr	r0, [pc, #192]	; (20000884 <dcd_rp2040_irq+0x4c8>)
200007c2:	f884 20fc 	strb.w	r2, [r4, #252]	; 0xfc
200007c6:	461e      	mov	r6, r3
200007c8:	f000 f99a 	bl	20000b00 <hw_endpoint_start_next_buffer>
200007cc:	e618      	b.n	20000400 <dcd_rp2040_irq+0x44>
200007ce:	2200      	movs	r2, #0
200007d0:	482d      	ldr	r0, [pc, #180]	; (20000888 <dcd_rp2040_irq+0x4cc>)
200007d2:	f884 213c 	strb.w	r2, [r4, #316]	; 0x13c
200007d6:	461e      	mov	r6, r3
200007d8:	f000 f992 	bl	20000b00 <hw_endpoint_start_next_buffer>
200007dc:	e615      	b.n	2000040a <dcd_rp2040_irq+0x4e>
200007de:	2200      	movs	r2, #0
200007e0:	482a      	ldr	r0, [pc, #168]	; (2000088c <dcd_rp2040_irq+0x4d0>)
200007e2:	f884 217c 	strb.w	r2, [r4, #380]	; 0x17c
200007e6:	461e      	mov	r6, r3
200007e8:	f000 f98a 	bl	20000b00 <hw_endpoint_start_next_buffer>
200007ec:	e612      	b.n	20000414 <dcd_rp2040_irq+0x58>
200007ee:	2200      	movs	r2, #0
200007f0:	4827      	ldr	r0, [pc, #156]	; (20000890 <dcd_rp2040_irq+0x4d4>)
200007f2:	f884 21bc 	strb.w	r2, [r4, #444]	; 0x1bc
200007f6:	461e      	mov	r6, r3
200007f8:	f000 f982 	bl	20000b00 <hw_endpoint_start_next_buffer>
200007fc:	e60f      	b.n	2000041e <dcd_rp2040_irq+0x62>
200007fe:	2200      	movs	r2, #0
20000800:	4824      	ldr	r0, [pc, #144]	; (20000894 <dcd_rp2040_irq+0x4d8>)
20000802:	f884 21fc 	strb.w	r2, [r4, #508]	; 0x1fc
20000806:	461e      	mov	r6, r3
20000808:	f000 f97a 	bl	20000b00 <hw_endpoint_start_next_buffer>
2000080c:	e60c      	b.n	20000428 <dcd_rp2040_irq+0x6c>
2000080e:	2200      	movs	r2, #0
20000810:	4821      	ldr	r0, [pc, #132]	; (20000898 <dcd_rp2040_irq+0x4dc>)
20000812:	f884 223c 	strb.w	r2, [r4, #572]	; 0x23c
20000816:	461e      	mov	r6, r3
20000818:	f000 f972 	bl	20000b00 <hw_endpoint_start_next_buffer>
2000081c:	e609      	b.n	20000432 <dcd_rp2040_irq+0x76>
2000081e:	2200      	movs	r2, #0
20000820:	481e      	ldr	r0, [pc, #120]	; (2000089c <dcd_rp2040_irq+0x4e0>)
20000822:	f884 227c 	strb.w	r2, [r4, #636]	; 0x27c
20000826:	461e      	mov	r6, r3
20000828:	f000 f96a 	bl	20000b00 <hw_endpoint_start_next_buffer>
2000082c:	e606      	b.n	2000043c <dcd_rp2040_irq+0x80>
2000082e:	2200      	movs	r2, #0
20000830:	481b      	ldr	r0, [pc, #108]	; (200008a0 <dcd_rp2040_irq+0x4e4>)
20000832:	f884 22bc 	strb.w	r2, [r4, #700]	; 0x2bc
20000836:	461e      	mov	r6, r3
20000838:	f000 f962 	bl	20000b00 <hw_endpoint_start_next_buffer>
2000083c:	e603      	b.n	20000446 <dcd_rp2040_irq+0x8a>
2000083e:	2200      	movs	r2, #0
20000840:	4818      	ldr	r0, [pc, #96]	; (200008a4 <dcd_rp2040_irq+0x4e8>)
20000842:	f884 22fc 	strb.w	r2, [r4, #764]	; 0x2fc
20000846:	461e      	mov	r6, r3
20000848:	f000 f95a 	bl	20000b00 <hw_endpoint_start_next_buffer>
2000084c:	e600      	b.n	20000450 <dcd_rp2040_irq+0x94>
2000084e:	2200      	movs	r2, #0
20000850:	4815      	ldr	r0, [pc, #84]	; (200008a8 <dcd_rp2040_irq+0x4ec>)
20000852:	f884 233c 	strb.w	r2, [r4, #828]	; 0x33c
20000856:	461e      	mov	r6, r3
20000858:	f000 f952 	bl	20000b00 <hw_endpoint_start_next_buffer>
2000085c:	e5fd      	b.n	2000045a <dcd_rp2040_irq+0x9e>
2000085e:	2200      	movs	r2, #0
20000860:	4812      	ldr	r0, [pc, #72]	; (200008ac <dcd_rp2040_irq+0x4f0>)
20000862:	f884 237c 	strb.w	r2, [r4, #892]	; 0x37c
20000866:	461e      	mov	r6, r3
20000868:	f000 f94a 	bl	20000b00 <hw_endpoint_start_next_buffer>
2000086c:	e5fa      	b.n	20000464 <dcd_rp2040_irq+0xa8>
2000086e:	4810      	ldr	r0, [pc, #64]	; (200008b0 <dcd_rp2040_irq+0x4f4>)
20000870:	ea86 0105 	eor.w	r1, r6, r5
20000874:	f000 fc94 	bl	200011a0 <__panic_veneer>
20000878:	20001e8c 	.word	0x20001e8c
2000087c:	20001b4c 	.word	0x20001b4c
20000880:	20001b8c 	.word	0x20001b8c
20000884:	20001bcc 	.word	0x20001bcc
20000888:	20001c0c 	.word	0x20001c0c
2000088c:	20001c4c 	.word	0x20001c4c
20000890:	20001c8c 	.word	0x20001c8c
20000894:	20001ccc 	.word	0x20001ccc
20000898:	20001d0c 	.word	0x20001d0c
2000089c:	20001d4c 	.word	0x20001d4c
200008a0:	20001d8c 	.word	0x20001d8c
200008a4:	20001dcc 	.word	0x20001dcc
200008a8:	20001e0c 	.word	0x20001e0c
200008ac:	20001e4c 	.word	0x20001e4c
200008b0:	10009cbc 	.word	0x10009cbc

200008b4 <prepare_ep_buffer>:
200008b4:	8a82      	ldrh	r2, [r0, #20]
200008b6:	e92d 43f0 	stmdb	sp!, {r4, r5, r6, r7, r8, r9, lr}
200008ba:	8b04      	ldrh	r4, [r0, #24]
200008bc:	78c3      	ldrb	r3, [r0, #3]
200008be:	4294      	cmp	r4, r2
200008c0:	bf28      	it	cs
200008c2:	4614      	movcs	r4, r2
200008c4:	1b12      	subs	r2, r2, r4
200008c6:	b292      	uxth	r2, r2
200008c8:	8282      	strh	r2, [r0, #20]
200008ca:	2b00      	cmp	r3, #0
200008cc:	d046      	beq.n	2000095c <prepare_ep_buffer+0xa8>
200008ce:	f444 5610 	orr.w	r6, r4, #9216	; 0x2400
200008d2:	f083 0301 	eor.w	r3, r3, #1
200008d6:	70c3      	strb	r3, [r0, #3]
200008d8:	7843      	ldrb	r3, [r0, #1]
200008da:	4635      	mov	r5, r6
200008dc:	bbb3      	cbnz	r3, 2000094c <prepare_ep_buffer+0x98>
200008de:	68c5      	ldr	r5, [r0, #12]
200008e0:	f104 39ff 	add.w	r9, r4, #4294967295
200008e4:	eb05 1881 	add.w	r8, r5, r1, lsl #6
200008e8:	6905      	ldr	r5, [r0, #16]
200008ea:	b35c      	cbz	r4, 20000944 <prepare_ep_buffer+0x90>
200008ec:	1c6a      	adds	r2, r5, #1
200008ee:	eba8 0702 	sub.w	r7, r8, r2
200008f2:	2f02      	cmp	r7, #2
200008f4:	d935      	bls.n	20000962 <prepare_ep_buffer+0xae>
200008f6:	f1b9 0f07 	cmp.w	r9, #7
200008fa:	d932      	bls.n	20000962 <prepare_ep_buffer+0xae>
200008fc:	46ae      	mov	lr, r5
200008fe:	46c4      	mov	ip, r8
20000900:	1f22      	subs	r2, r4, #4
20000902:	0892      	lsrs	r2, r2, #2
20000904:	3201      	adds	r2, #1
20000906:	f85e 7b04 	ldr.w	r7, [lr], #4
2000090a:	3301      	adds	r3, #1
2000090c:	429a      	cmp	r2, r3
2000090e:	f84c 7b04 	str.w	r7, [ip], #4
20000912:	d8f8      	bhi.n	20000906 <prepare_ep_buffer+0x52>
20000914:	ebb4 0f82 	cmp.w	r4, r2, lsl #2
20000918:	eba9 0382 	sub.w	r3, r9, r2, lsl #2
2000091c:	eb05 0c82 	add.w	ip, r5, r2, lsl #2
20000920:	eb08 0782 	add.w	r7, r8, r2, lsl #2
20000924:	d00c      	beq.n	20000940 <prepare_ep_buffer+0x8c>
20000926:	f815 5022 	ldrb.w	r5, [r5, r2, lsl #2]
2000092a:	f808 5022 	strb.w	r5, [r8, r2, lsl #2]
2000092e:	b13b      	cbz	r3, 20000940 <prepare_ep_buffer+0x8c>
20000930:	f89c 2001 	ldrb.w	r2, [ip, #1]
20000934:	2b01      	cmp	r3, #1
20000936:	707a      	strb	r2, [r7, #1]
20000938:	d002      	beq.n	20000940 <prepare_ep_buffer+0x8c>
2000093a:	f89c 3002 	ldrb.w	r3, [ip, #2]
2000093e:	70bb      	strb	r3, [r7, #2]
20000940:	6905      	ldr	r5, [r0, #16]
20000942:	8a82      	ldrh	r2, [r0, #20]
20000944:	442c      	add	r4, r5
20000946:	6104      	str	r4, [r0, #16]
20000948:	f446 4500 	orr.w	r5, r6, #32768	; 0x8000
2000094c:	b90a      	cbnz	r2, 20000952 <prepare_ep_buffer+0x9e>
2000094e:	f445 4580 	orr.w	r5, r5, #16384	; 0x4000
20000952:	b101      	cbz	r1, 20000956 <prepare_ep_buffer+0xa2>
20000954:	042d      	lsls	r5, r5, #16
20000956:	4628      	mov	r0, r5
20000958:	e8bd 83f0 	ldmia.w	sp!, {r4, r5, r6, r7, r8, r9, pc}
2000095c:	f444 6680 	orr.w	r6, r4, #1024	; 0x400
20000960:	e7b7      	b.n	200008d2 <prepare_ep_buffer+0x1e>
20000962:	f108 38ff 	add.w	r8, r8, #4294967295
20000966:	4425      	add	r5, r4
20000968:	e000      	b.n	2000096c <prepare_ep_buffer+0xb8>
2000096a:	3201      	adds	r2, #1
2000096c:	f812 3c01 	ldrb.w	r3, [r2, #-1]
20000970:	42aa      	cmp	r2, r5
20000972:	f808 3f01 	strb.w	r3, [r8, #1]!
20000976:	d1f8      	bne.n	2000096a <prepare_ep_buffer+0xb6>
20000978:	e7e2      	b.n	20000940 <prepare_ep_buffer+0x8c>
2000097a:	bf00      	nop

2000097c <sync_ep_buffer>:
2000097c:	6883      	ldr	r3, [r0, #8]
2000097e:	681b      	ldr	r3, [r3, #0]
20000980:	b101      	cbz	r1, 20000984 <sync_ep_buffer+0x8>
20000982:	0c1b      	lsrs	r3, r3, #16
20000984:	7842      	ldrb	r2, [r0, #1]
20000986:	f3c3 0309 	ubfx	r3, r3, #0, #10
2000098a:	2a00      	cmp	r2, #0
2000098c:	d03f      	beq.n	20000a0e <sync_ep_buffer+0x92>
2000098e:	b5f0      	push	{r4, r5, r6, r7, lr}
20000990:	e9d0 2403 	ldrd	r2, r4, [r0, #12]
20000994:	018d      	lsls	r5, r1, #6
20000996:	1e5f      	subs	r7, r3, #1
20000998:	eb02 1181 	add.w	r1, r2, r1, lsl #6
2000099c:	b35b      	cbz	r3, 200009f6 <sync_ep_buffer+0x7a>
2000099e:	3501      	adds	r5, #1
200009a0:	442a      	add	r2, r5
200009a2:	1aa2      	subs	r2, r4, r2
200009a4:	2a02      	cmp	r2, #2
200009a6:	d93c      	bls.n	20000a22 <sync_ep_buffer+0xa6>
200009a8:	2f07      	cmp	r7, #7
200009aa:	d93a      	bls.n	20000a22 <sync_ep_buffer+0xa6>
200009ac:	460d      	mov	r5, r1
200009ae:	46a6      	mov	lr, r4
200009b0:	2200      	movs	r2, #0
200009b2:	f1a3 0c04 	sub.w	ip, r3, #4
200009b6:	ea4f 0c9c 	mov.w	ip, ip, lsr #2
200009ba:	f10c 0c01 	add.w	ip, ip, #1
200009be:	f855 6b04 	ldr.w	r6, [r5], #4
200009c2:	3201      	adds	r2, #1
200009c4:	4594      	cmp	ip, r2
200009c6:	f84e 6b04 	str.w	r6, [lr], #4
200009ca:	d8f8      	bhi.n	200009be <sync_ep_buffer+0x42>
200009cc:	ebb3 0f8c 	cmp.w	r3, ip, lsl #2
200009d0:	eba7 078c 	sub.w	r7, r7, ip, lsl #2
200009d4:	eb01 058c 	add.w	r5, r1, ip, lsl #2
200009d8:	eb04 028c 	add.w	r2, r4, ip, lsl #2
200009dc:	d00a      	beq.n	200009f4 <sync_ep_buffer+0x78>
200009de:	f811 102c 	ldrb.w	r1, [r1, ip, lsl #2]
200009e2:	f804 102c 	strb.w	r1, [r4, ip, lsl #2]
200009e6:	b12f      	cbz	r7, 200009f4 <sync_ep_buffer+0x78>
200009e8:	7869      	ldrb	r1, [r5, #1]
200009ea:	2f01      	cmp	r7, #1
200009ec:	7051      	strb	r1, [r2, #1]
200009ee:	d001      	beq.n	200009f4 <sync_ep_buffer+0x78>
200009f0:	78a9      	ldrb	r1, [r5, #2]
200009f2:	7091      	strb	r1, [r2, #2]
200009f4:	6904      	ldr	r4, [r0, #16]
200009f6:	8ac2      	ldrh	r2, [r0, #22]
200009f8:	441c      	add	r4, r3
200009fa:	441a      	add	r2, r3
200009fc:	82c2      	strh	r2, [r0, #22]
200009fe:	8b02      	ldrh	r2, [r0, #24]
20000a00:	6104      	str	r4, [r0, #16]
20000a02:	429a      	cmp	r2, r3
20000a04:	bf84      	itt	hi
20000a06:	2200      	movhi	r2, #0
20000a08:	8282      	strhhi	r2, [r0, #20]
20000a0a:	4618      	mov	r0, r3
20000a0c:	bdf0      	pop	{r4, r5, r6, r7, pc}
20000a0e:	8ac2      	ldrh	r2, [r0, #22]
20000a10:	441a      	add	r2, r3
20000a12:	82c2      	strh	r2, [r0, #22]
20000a14:	8b02      	ldrh	r2, [r0, #24]
20000a16:	429a      	cmp	r2, r3
20000a18:	bf84      	itt	hi
20000a1a:	2200      	movhi	r2, #0
20000a1c:	8282      	strhhi	r2, [r0, #20]
20000a1e:	4618      	mov	r0, r3
20000a20:	4770      	bx	lr
20000a22:	3c01      	subs	r4, #1
20000a24:	18cd      	adds	r5, r1, r3
20000a26:	f811 2b01 	ldrb.w	r2, [r1], #1
20000a2a:	42a9      	cmp	r1, r5
20000a2c:	f804 2f01 	strb.w	r2, [r4, #1]!
20000a30:	d1f9      	bne.n	20000a26 <sync_ep_buffer+0xaa>
20000a32:	e7df      	b.n	200009f4 <sync_ep_buffer+0x78>

20000a34 <_hw_endpoint_xfer_sync>:
20000a34:	b510      	push	{r4, lr}
20000a36:	4604      	mov	r4, r0
20000a38:	6883      	ldr	r3, [r0, #8]
20000a3a:	2100      	movs	r1, #0
20000a3c:	681b      	ldr	r3, [r3, #0]
20000a3e:	f7ff ff9d 	bl	2000097c <sync_ep_buffer>
20000a42:	6863      	ldr	r3, [r4, #4]
20000a44:	681b      	ldr	r3, [r3, #0]
20000a46:	005b      	lsls	r3, r3, #1
20000a48:	d502      	bpl.n	20000a50 <_hw_endpoint_xfer_sync+0x1c>
20000a4a:	8b23      	ldrh	r3, [r4, #24]
20000a4c:	4283      	cmp	r3, r0
20000a4e:	d000      	beq.n	20000a52 <_hw_endpoint_xfer_sync+0x1e>
20000a50:	bd10      	pop	{r4, pc}
20000a52:	4620      	mov	r0, r4
20000a54:	e8bd 4010 	ldmia.w	sp!, {r4, lr}
20000a58:	2101      	movs	r1, #1
20000a5a:	f7ff bf8f 	b.w	2000097c <sync_ep_buffer>
20000a5e:	bf00      	nop

20000a60 <e15_is_bulkin_ep>:
20000a60:	4b08      	ldr	r3, [pc, #32]	; (20000a84 <e15_is_bulkin_ep+0x24>)
20000a62:	6c1b      	ldr	r3, [r3, #64]	; 0x40
20000a64:	f013 0302 	ands.w	r3, r3, #2
20000a68:	d102      	bne.n	20000a70 <e15_is_bulkin_ep+0x10>
20000a6a:	7882      	ldrb	r2, [r0, #2]
20000a6c:	09d2      	lsrs	r2, r2, #7
20000a6e:	d101      	bne.n	20000a74 <e15_is_bulkin_ep+0x14>
20000a70:	2000      	movs	r0, #0
20000a72:	4770      	bx	lr
20000a74:	7ec0      	ldrb	r0, [r0, #27]
20000a76:	f1a0 0002 	sub.w	r0, r0, #2
20000a7a:	fab0 f080 	clz	r0, r0
20000a7e:	0940      	lsrs	r0, r0, #5
20000a80:	4770      	bx	lr
20000a82:	bf00      	nop
20000a84:	50110000 	.word	0x50110000

20000a88 <e15_is_critical_frame_period>:
20000a88:	b508      	push	{r3, lr}
20000a8a:	f7ff ffe9 	bl	20000a60 <e15_is_bulkin_ep>
20000a8e:	b150      	cbz	r0, 20000aa6 <e15_is_critical_frame_period+0x1e>
20000a90:	4a05      	ldr	r2, [pc, #20]	; (20000aa8 <e15_is_critical_frame_period+0x20>)
20000a92:	4b06      	ldr	r3, [pc, #24]	; (20000aac <e15_is_critical_frame_period+0x24>)
20000a94:	6a90      	ldr	r0, [r2, #40]	; 0x28
20000a96:	681b      	ldr	r3, [r3, #0]
20000a98:	f5a0 7048 	sub.w	r0, r0, #800	; 0x320
20000a9c:	1ac0      	subs	r0, r0, r3
20000a9e:	28c6      	cmp	r0, #198	; 0xc6
20000aa0:	bf8c      	ite	hi
20000aa2:	2000      	movhi	r0, #0
20000aa4:	2001      	movls	r0, #1
20000aa6:	bd08      	pop	{r3, pc}
20000aa8:	400b0000 	.word	0x400b0000
20000aac:	20001ae4 	.word	0x20001ae4

20000ab0 <hw_endpoint_reset_transfer>:
20000ab0:	2300      	movs	r3, #0
20000ab2:	e9c0 3304 	strd	r3, r3, [r0, #16]
20000ab6:	7683      	strb	r3, [r0, #26]
20000ab8:	4770      	bx	lr
20000aba:	bf00      	nop

20000abc <_hw_endpoint_buffer_control_update32>:
20000abc:	b510      	push	{r4, lr}
20000abe:	6883      	ldr	r3, [r0, #8]
20000ac0:	b109      	cbz	r1, 20000ac6 <_hw_endpoint_buffer_control_update32+0xa>
20000ac2:	681c      	ldr	r4, [r3, #0]
20000ac4:	4021      	ands	r1, r4
20000ac6:	b182      	cbz	r2, 20000aea <_hw_endpoint_buffer_control_update32+0x2e>
20000ac8:	4311      	orrs	r1, r2
20000aca:	0552      	lsls	r2, r2, #21
20000acc:	d50d      	bpl.n	20000aea <_hw_endpoint_buffer_control_update32+0x2e>
20000ace:	681a      	ldr	r2, [r3, #0]
20000ad0:	0554      	lsls	r4, r2, #21
20000ad2:	d40c      	bmi.n	20000aee <_hw_endpoint_buffer_control_update32+0x32>
20000ad4:	4a08      	ldr	r2, [pc, #32]	; (20000af8 <_hw_endpoint_buffer_control_update32+0x3c>)
20000ad6:	f421 6480 	bic.w	r4, r1, #1024	; 0x400
20000ada:	601c      	str	r4, [r3, #0]
20000adc:	6c12      	ldr	r2, [r2, #64]	; 0x40
20000ade:	0792      	lsls	r2, r2, #30
20000ae0:	d403      	bmi.n	20000aea <_hw_endpoint_buffer_control_update32+0x2e>
20000ae2:	230c      	movs	r3, #12
20000ae4:	3b03      	subs	r3, #3
20000ae6:	d2fd      	bcs.n	20000ae4 <_hw_endpoint_buffer_control_update32+0x28>
20000ae8:	6883      	ldr	r3, [r0, #8]
20000aea:	6019      	str	r1, [r3, #0]
20000aec:	bd10      	pop	{r4, pc}
20000aee:	7881      	ldrb	r1, [r0, #2]
20000af0:	4802      	ldr	r0, [pc, #8]	; (20000afc <_hw_endpoint_buffer_control_update32+0x40>)
20000af2:	f000 fb55 	bl	200011a0 <__panic_veneer>
20000af6:	bf00      	nop
20000af8:	50110000 	.word	0x50110000
20000afc:	10009cd0 	.word	0x10009cd0

20000b00 <hw_endpoint_start_next_buffer>:
20000b00:	b530      	push	{r4, r5, lr}
20000b02:	6843      	ldr	r3, [r0, #4]
20000b04:	2100      	movs	r1, #0
20000b06:	b083      	sub	sp, #12
20000b08:	4604      	mov	r4, r0
20000b0a:	681d      	ldr	r5, [r3, #0]
20000b0c:	f7ff fed2 	bl	200008b4 <prepare_ep_buffer>
20000b10:	4b13      	ldr	r3, [pc, #76]	; (20000b60 <hw_endpoint_start_next_buffer+0x60>)
20000b12:	f440 5280 	orr.w	r2, r0, #4096	; 0x1000
20000b16:	6c1b      	ldr	r3, [r3, #64]	; 0x40
20000b18:	f013 0f02 	tst.w	r3, #2
20000b1c:	78a3      	ldrb	r3, [r4, #2]
20000b1e:	d00e      	beq.n	20000b3e <hw_endpoint_start_next_buffer+0x3e>
20000b20:	065b      	lsls	r3, r3, #25
20000b22:	d00e      	beq.n	20000b42 <hw_endpoint_start_next_buffer+0x42>
20000b24:	f025 45a0 	bic.w	r5, r5, #1342177280	; 0x50000000
20000b28:	f045 5500 	orr.w	r5, r5, #536870912	; 0x20000000
20000b2c:	2100      	movs	r1, #0
20000b2e:	4620      	mov	r0, r4
20000b30:	6863      	ldr	r3, [r4, #4]
20000b32:	601d      	str	r5, [r3, #0]
20000b34:	b003      	add	sp, #12
20000b36:	e8bd 4030 	ldmia.w	sp!, {r4, r5, lr}
20000b3a:	f7ff bfbf 	b.w	20000abc <_hw_endpoint_buffer_control_update32>
20000b3e:	09db      	lsrs	r3, r3, #7
20000b40:	d0f0      	beq.n	20000b24 <hw_endpoint_start_next_buffer+0x24>
20000b42:	8aa3      	ldrh	r3, [r4, #20]
20000b44:	2b00      	cmp	r3, #0
20000b46:	d0ed      	beq.n	20000b24 <hw_endpoint_start_next_buffer+0x24>
20000b48:	2101      	movs	r1, #1
20000b4a:	4620      	mov	r0, r4
20000b4c:	9201      	str	r2, [sp, #4]
20000b4e:	f7ff feb1 	bl	200008b4 <prepare_ep_buffer>
20000b52:	9a01      	ldr	r2, [sp, #4]
20000b54:	f025 5500 	bic.w	r5, r5, #536870912	; 0x20000000
20000b58:	f045 45a0 	orr.w	r5, r5, #1342177280	; 0x50000000
20000b5c:	4302      	orrs	r2, r0
20000b5e:	e7e5      	b.n	20000b2c <hw_endpoint_start_next_buffer+0x2c>
20000b60:	50110000 	.word	0x50110000

20000b64 <hw_endpoint_xfer_continue>:
20000b64:	b538      	push	{r3, r4, r5, lr}
20000b66:	7e85      	ldrb	r5, [r0, #26]
20000b68:	4604      	mov	r4, r0
20000b6a:	b1a5      	cbz	r5, 20000b96 <hw_endpoint_xfer_continue+0x32>
20000b6c:	f7ff ff62 	bl	20000a34 <_hw_endpoint_xfer_sync>
20000b70:	8aa3      	ldrh	r3, [r4, #20]
20000b72:	b90b      	cbnz	r3, 20000b78 <hw_endpoint_xfer_continue+0x14>
20000b74:	4628      	mov	r0, r5
20000b76:	bd38      	pop	{r3, r4, r5, pc}
20000b78:	4620      	mov	r0, r4
20000b7a:	f7ff ff85 	bl	20000a88 <e15_is_critical_frame_period>
20000b7e:	4605      	mov	r5, r0
20000b80:	b120      	cbz	r0, 20000b8c <hw_endpoint_xfer_continue+0x28>
20000b82:	2301      	movs	r3, #1
20000b84:	2500      	movs	r5, #0
20000b86:	7723      	strb	r3, [r4, #28]
20000b88:	4628      	mov	r0, r5
20000b8a:	bd38      	pop	{r3, r4, r5, pc}
20000b8c:	4620      	mov	r0, r4
20000b8e:	f7ff ffb7 	bl	20000b00 <hw_endpoint_start_next_buffer>
20000b92:	4628      	mov	r0, r5
20000b94:	bd38      	pop	{r3, r4, r5, pc}
20000b96:	7881      	ldrb	r1, [r0, #2]
20000b98:	4801      	ldr	r0, [pc, #4]	; (20000ba0 <hw_endpoint_xfer_continue+0x3c>)
20000b9a:	f000 fb01 	bl	200011a0 <__panic_veneer>
20000b9e:	bf00      	nop
20000ba0:	10009cf0 	.word	0x10009cf0

20000ba4 <dcd_event_handler>:
20000ba4:	e92d 43f0 	stmdb	sp!, {r4, r5, r6, r7, r8, r9, lr}
20000ba8:	7843      	ldrb	r3, [r0, #1]
20000baa:	4680      	mov	r8, r0
20000bac:	3b02      	subs	r3, #2
20000bae:	460d      	mov	r5, r1
20000bb0:	b085      	sub	sp, #20
20000bb2:	2b04      	cmp	r3, #4
20000bb4:	d813      	bhi.n	20000bde <dcd_event_handler+0x3a>
20000bb6:	e8df f003 	tbb	[pc, r3]
20000bba:	4a03      	.short	0x4a03
20000bbc:	756c      	.short	0x756c
20000bbe:	44          	.byte	0x44
20000bbf:	00          	.byte	0x00
20000bc0:	2100      	movs	r1, #0
20000bc2:	4b78      	ldr	r3, [pc, #480]	; (20000da4 <dcd_event_handler+0x200>)
20000bc4:	781a      	ldrb	r2, [r3, #0]
20000bc6:	f36f 0200 	bfc	r2, #0, #1
20000bca:	701a      	strb	r2, [r3, #0]
20000bcc:	781a      	ldrb	r2, [r3, #0]
20000bce:	f36f 0241 	bfc	r2, #1, #1
20000bd2:	701a      	strb	r2, [r3, #0]
20000bd4:	7059      	strb	r1, [r3, #1]
20000bd6:	781a      	ldrb	r2, [r3, #0]
20000bd8:	f361 0282 	bfi	r2, r1, #2, #1
20000bdc:	701a      	strb	r2, [r3, #0]
20000bde:	4b72      	ldr	r3, [pc, #456]	; (20000da8 <dcd_event_handler+0x204>)
20000be0:	681c      	ldr	r4, [r3, #0]
20000be2:	6963      	ldr	r3, [r4, #20]
20000be4:	f3ef 8210 	mrs	r2, PRIMASK
20000be8:	b672      	cpsid	i
20000bea:	e8d3 0fcf 	ldaexb	r0, [r3]
20000bee:	2101      	movs	r1, #1
20000bf0:	2800      	cmp	r0, #0
20000bf2:	d1fa      	bne.n	20000bea <dcd_event_handler+0x46>
20000bf4:	e8c3 1f40 	strexb	r0, r1, [r3]
20000bf8:	2800      	cmp	r0, #0
20000bfa:	d1f6      	bne.n	20000bea <dcd_event_handler+0x46>
20000bfc:	f3bf 8f5f 	dmb	sy
20000c00:	61a2      	str	r2, [r4, #24]
20000c02:	4641      	mov	r1, r8
20000c04:	4620      	mov	r0, r4
20000c06:	f000 fabb 	bl	20001180 <__tu_fifo_write_veneer>
20000c0a:	2300      	movs	r3, #0
20000c0c:	6962      	ldr	r2, [r4, #20]
20000c0e:	e8c2 3f8f 	stlb	r3, [r2]
20000c12:	69a3      	ldr	r3, [r4, #24]
20000c14:	f383 8810 	msr	PRIMASK, r3
20000c18:	b948      	cbnz	r0, 20000c2e <dcd_event_handler+0x8a>
20000c1a:	f04f 23e0 	mov.w	r3, #3758153728	; 0xe000e000
20000c1e:	f8d3 3df0 	ldr.w	r3, [r3, #3568]	; 0xdf0
20000c22:	07db      	lsls	r3, r3, #31
20000c24:	d50a      	bpl.n	20000c3c <dcd_event_handler+0x98>
20000c26:	be00      	bkpt	0x0000
20000c28:	b005      	add	sp, #20
20000c2a:	e8bd 83f0 	ldmia.w	sp!, {r4, r5, r6, r7, r8, r9, pc}
20000c2e:	462a      	mov	r2, r5
20000c30:	f898 1001 	ldrb.w	r1, [r8, #1]
20000c34:	f898 0000 	ldrb.w	r0, [r8]
20000c38:	f000 fac2 	bl	200011c0 <__tud_event_hook_cb_veneer>
20000c3c:	b005      	add	sp, #20
20000c3e:	e8bd 83f0 	ldmia.w	sp!, {r4, r5, r6, r7, r8, r9, pc}
20000c42:	4a5a      	ldr	r2, [pc, #360]	; (20000dac <dcd_event_handler+0x208>)
20000c44:	7813      	ldrb	r3, [r2, #0]
20000c46:	3301      	adds	r3, #1
20000c48:	b2db      	uxtb	r3, r3
20000c4a:	7013      	strb	r3, [r2, #0]
20000c4c:	e7c7      	b.n	20000bde <dcd_event_handler+0x3a>
20000c4e:	2400      	movs	r4, #0
20000c50:	4e57      	ldr	r6, [pc, #348]	; (20000db0 <dcd_event_handler+0x20c>)
20000c52:	4623      	mov	r3, r4
20000c54:	7831      	ldrb	r1, [r6, #0]
20000c56:	4f57      	ldr	r7, [pc, #348]	; (20000db4 <dcd_event_handler+0x210>)
20000c58:	f8df 915c 	ldr.w	r9, [pc, #348]	; 20000db8 <dcd_event_handler+0x214>
20000c5c:	e00a      	b.n	20000c74 <dcd_event_handler+0xd0>
20000c5e:	f8d9 3000 	ldr.w	r3, [r9]
20000c62:	eb13 1344 	adds.w	r3, r3, r4, lsl #5
20000c66:	d10a      	bne.n	20000c7e <dcd_event_handler+0xda>
20000c68:	3401      	adds	r4, #1
20000c6a:	b2e4      	uxtb	r4, r4
20000c6c:	1c4a      	adds	r2, r1, #1
20000c6e:	42a2      	cmp	r2, r4
20000c70:	4623      	mov	r3, r4
20000c72:	db20      	blt.n	20000cb6 <dcd_event_handler+0x112>
20000c74:	42a1      	cmp	r1, r4
20000c76:	d8f2      	bhi.n	20000c5e <dcd_event_handler+0xba>
20000c78:	1a5b      	subs	r3, r3, r1
20000c7a:	eb07 1343 	add.w	r3, r7, r3, lsl #5
20000c7e:	69db      	ldr	r3, [r3, #28]
20000c80:	2b00      	cmp	r3, #0
20000c82:	d0f1      	beq.n	20000c68 <dcd_event_handler+0xc4>
20000c84:	f8d8 1004 	ldr.w	r1, [r8, #4]
20000c88:	f898 0000 	ldrb.w	r0, [r8]
20000c8c:	4798      	blx	r3
20000c8e:	7831      	ldrb	r1, [r6, #0]
20000c90:	e7ea      	b.n	20000c68 <dcd_event_handler+0xc4>
20000c92:	4b44      	ldr	r3, [pc, #272]	; (20000da4 <dcd_event_handler+0x200>)
20000c94:	781a      	ldrb	r2, [r3, #0]
20000c96:	07d6      	lsls	r6, r2, #31
20000c98:	d5d0      	bpl.n	20000c3c <dcd_event_handler+0x98>
20000c9a:	781a      	ldrb	r2, [r3, #0]
20000c9c:	f042 0204 	orr.w	r2, r2, #4
20000ca0:	701a      	strb	r2, [r3, #0]
20000ca2:	e79c      	b.n	20000bde <dcd_event_handler+0x3a>
20000ca4:	4b3f      	ldr	r3, [pc, #252]	; (20000da4 <dcd_event_handler+0x200>)
20000ca6:	781a      	ldrb	r2, [r3, #0]
20000ca8:	07d4      	lsls	r4, r2, #31
20000caa:	d5c7      	bpl.n	20000c3c <dcd_event_handler+0x98>
20000cac:	781a      	ldrb	r2, [r3, #0]
20000cae:	f36f 0282 	bfc	r2, #2, #1
20000cb2:	701a      	strb	r2, [r3, #0]
20000cb4:	e793      	b.n	20000bde <dcd_event_handler+0x3a>
20000cb6:	4c3b      	ldr	r4, [pc, #236]	; (20000da4 <dcd_event_handler+0x200>)
20000cb8:	7823      	ldrb	r3, [r4, #0]
20000cba:	0758      	lsls	r0, r3, #29
20000cbc:	d436      	bmi.n	20000d2c <dcd_event_handler+0x188>
20000cbe:	78e3      	ldrb	r3, [r4, #3]
20000cc0:	07da      	lsls	r2, r3, #31
20000cc2:	d5bb      	bpl.n	20000c3c <dcd_event_handler+0x98>
20000cc4:	2600      	movs	r6, #0
20000cc6:	2303      	movs	r3, #3
20000cc8:	4937      	ldr	r1, [pc, #220]	; (20000da8 <dcd_event_handler+0x204>)
20000cca:	f898 2000 	ldrb.w	r2, [r8]
20000cce:	680c      	ldr	r4, [r1, #0]
20000cd0:	f8d8 1004 	ldr.w	r1, [r8, #4]
20000cd4:	9603      	str	r6, [sp, #12]
20000cd6:	e9cd 6101 	strd	r6, r1, [sp, #4]
20000cda:	f88d 2004 	strb.w	r2, [sp, #4]
20000cde:	f88d 3005 	strb.w	r3, [sp, #5]
20000ce2:	6963      	ldr	r3, [r4, #20]
20000ce4:	f3ef 8210 	mrs	r2, PRIMASK
20000ce8:	b672      	cpsid	i
20000cea:	e8d3 0fcf 	ldaexb	r0, [r3]
20000cee:	2101      	movs	r1, #1
20000cf0:	2800      	cmp	r0, #0
20000cf2:	d1fa      	bne.n	20000cea <dcd_event_handler+0x146>
20000cf4:	e8c3 1f40 	strexb	r0, r1, [r3]
20000cf8:	2800      	cmp	r0, #0
20000cfa:	d1f6      	bne.n	20000cea <dcd_event_handler+0x146>
20000cfc:	f3bf 8f5f 	dmb	sy
20000d00:	4620      	mov	r0, r4
20000d02:	a901      	add	r1, sp, #4
20000d04:	61a2      	str	r2, [r4, #24]
20000d06:	f000 fa3b 	bl	20001180 <__tu_fifo_write_veneer>
20000d0a:	6963      	ldr	r3, [r4, #20]
20000d0c:	e8c3 6f8f 	stlb	r6, [r3]
20000d10:	69a3      	ldr	r3, [r4, #24]
20000d12:	f383 8810 	msr	PRIMASK, r3
20000d16:	2800      	cmp	r0, #0
20000d18:	f43f af7f 	beq.w	20000c1a <dcd_event_handler+0x76>
20000d1c:	462a      	mov	r2, r5
20000d1e:	f89d 1005 	ldrb.w	r1, [sp, #5]
20000d22:	f89d 0004 	ldrb.w	r0, [sp, #4]
20000d26:	f000 fa4b 	bl	200011c0 <__tud_event_hook_cb_veneer>
20000d2a:	e787      	b.n	20000c3c <dcd_event_handler+0x98>
20000d2c:	2700      	movs	r7, #0
20000d2e:	2205      	movs	r2, #5
20000d30:	7823      	ldrb	r3, [r4, #0]
20000d32:	491d      	ldr	r1, [pc, #116]	; (20000da8 <dcd_event_handler+0x204>)
20000d34:	f36f 0382 	bfc	r3, #2, #1
20000d38:	7023      	strb	r3, [r4, #0]
20000d3a:	f898 3000 	ldrb.w	r3, [r8]
20000d3e:	680e      	ldr	r6, [r1, #0]
20000d40:	9701      	str	r7, [sp, #4]
20000d42:	f88d 2005 	strb.w	r2, [sp, #5]
20000d46:	f88d 3004 	strb.w	r3, [sp, #4]
20000d4a:	e9cd 7702 	strd	r7, r7, [sp, #8]
20000d4e:	6973      	ldr	r3, [r6, #20]
20000d50:	f3ef 8210 	mrs	r2, PRIMASK
20000d54:	b672      	cpsid	i
20000d56:	e8d3 0fcf 	ldaexb	r0, [r3]
20000d5a:	2101      	movs	r1, #1
20000d5c:	2800      	cmp	r0, #0
20000d5e:	d1fa      	bne.n	20000d56 <dcd_event_handler+0x1b2>
20000d60:	e8c3 1f40 	strexb	r0, r1, [r3]
20000d64:	2800      	cmp	r0, #0
20000d66:	d1f6      	bne.n	20000d56 <dcd_event_handler+0x1b2>
20000d68:	f3bf 8f5f 	dmb	sy
20000d6c:	4630      	mov	r0, r6
20000d6e:	61b2      	str	r2, [r6, #24]
20000d70:	a901      	add	r1, sp, #4
20000d72:	f000 fa05 	bl	20001180 <__tu_fifo_write_veneer>
20000d76:	6973      	ldr	r3, [r6, #20]
20000d78:	e8c3 7f8f 	stlb	r7, [r3]
20000d7c:	69b3      	ldr	r3, [r6, #24]
20000d7e:	f383 8810 	msr	PRIMASK, r3
20000d82:	b938      	cbnz	r0, 20000d94 <dcd_event_handler+0x1f0>
20000d84:	f04f 23e0 	mov.w	r3, #3758153728	; 0xe000e000
20000d88:	f8d3 3df0 	ldr.w	r3, [r3, #3568]	; 0xdf0
20000d8c:	07d9      	lsls	r1, r3, #31
20000d8e:	d596      	bpl.n	20000cbe <dcd_event_handler+0x11a>
20000d90:	be00      	bkpt	0x0000
20000d92:	e794      	b.n	20000cbe <dcd_event_handler+0x11a>
20000d94:	462a      	mov	r2, r5
20000d96:	f89d 1005 	ldrb.w	r1, [sp, #5]
20000d9a:	f89d 0004 	ldrb.w	r0, [sp, #4]
20000d9e:	f000 fa0f 	bl	200011c0 <__tud_event_hook_cb_veneer>
20000da2:	e78c      	b.n	20000cbe <dcd_event_handler+0x11a>
20000da4:	20001694 	.word	0x20001694
20000da8:	200016ec 	.word	0x200016ec
20000dac:	200422e6 	.word	0x200422e6
20000db0:	200422e4 	.word	0x200422e4
20000db4:	10009d18 	.word	0x10009d18
20000db8:	200014c4 	.word	0x200014c4

20000dbc <__aeabi_ldivmod>:
20000dbc:	b97b      	cbnz	r3, 20000dde <__aeabi_ldivmod+0x22>
20000dbe:	b972      	cbnz	r2, 20000dde <__aeabi_ldivmod+0x22>
20000dc0:	2900      	cmp	r1, #0
20000dc2:	bfbe      	ittt	lt
20000dc4:	2000      	movlt	r0, #0
20000dc6:	f04f 4100 	movlt.w	r1, #2147483648	; 0x80000000
20000dca:	e006      	blt.n	20000dda <__aeabi_ldivmod+0x1e>
20000dcc:	bf08      	it	eq
20000dce:	2800      	cmpeq	r0, #0
20000dd0:	bf1c      	itt	ne
20000dd2:	f06f 4100 	mvnne.w	r1, #2147483648	; 0x80000000
20000dd6:	f04f 30ff 	movne.w	r0, #4294967295
20000dda:	f000 b9cd 	b.w	20001178 <__aeabi_idiv0>
20000dde:	f1ad 0c08 	sub.w	ip, sp, #8
20000de2:	e96d ce04 	strd	ip, lr, [sp, #-16]!
20000de6:	2900      	cmp	r1, #0
20000de8:	db09      	blt.n	20000dfe <__aeabi_ldivmod+0x42>
20000dea:	2b00      	cmp	r3, #0
20000dec:	db1a      	blt.n	20000e24 <__aeabi_ldivmod+0x68>
20000dee:	f000 f84d 	bl	20000e8c <__udivmoddi4>
20000df2:	f8dd e004 	ldr.w	lr, [sp, #4]
20000df6:	e9dd 2302 	ldrd	r2, r3, [sp, #8]
20000dfa:	b004      	add	sp, #16
20000dfc:	4770      	bx	lr
20000dfe:	4240      	negs	r0, r0
20000e00:	eb61 0141 	sbc.w	r1, r1, r1, lsl #1
20000e04:	2b00      	cmp	r3, #0
20000e06:	db1b      	blt.n	20000e40 <__aeabi_ldivmod+0x84>
20000e08:	f000 f840 	bl	20000e8c <__udivmoddi4>
20000e0c:	f8dd e004 	ldr.w	lr, [sp, #4]
20000e10:	e9dd 2302 	ldrd	r2, r3, [sp, #8]
20000e14:	b004      	add	sp, #16
20000e16:	4240      	negs	r0, r0
20000e18:	eb61 0141 	sbc.w	r1, r1, r1, lsl #1
20000e1c:	4252      	negs	r2, r2
20000e1e:	eb63 0343 	sbc.w	r3, r3, r3, lsl #1
20000e22:	4770      	bx	lr
20000e24:	4252      	negs	r2, r2
20000e26:	eb63 0343 	sbc.w	r3, r3, r3, lsl #1
20000e2a:	f000 f82f 	bl	20000e8c <__udivmoddi4>
20000e2e:	f8dd e004 	ldr.w	lr, [sp, #4]
20000e32:	e9dd 2302 	ldrd	r2, r3, [sp, #8]
20000e36:	b004      	add	sp, #16
20000e38:	4240      	negs	r0, r0
20000e3a:	eb61 0141 	sbc.w	r1, r1, r1, lsl #1
20000e3e:	4770      	bx	lr
20000e40:	4252      	negs	r2, r2
20000e42:	eb63 0343 	sbc.w	r3, r3, r3, lsl #1
20000e46:	f000 f821 	bl	20000e8c <__udivmoddi4>
20000e4a:	f8dd e004 	ldr.w	lr, [sp, #4]
20000e4e:	e9dd 2302 	ldrd	r2, r3, [sp, #8]
20000e52:	b004      	add	sp, #16
20000e54:	4252      	negs	r2, r2
20000e56:	eb63 0343 	sbc.w	r3, r3, r3, lsl #1
20000e5a:	4770      	bx	lr

20000e5c <__aeabi_uldivmod>:
20000e5c:	b953      	cbnz	r3, 20000e74 <__aeabi_uldivmod+0x18>
20000e5e:	b94a      	cbnz	r2, 20000e74 <__aeabi_uldivmod+0x18>
20000e60:	2900      	cmp	r1, #0
20000e62:	bf08      	it	eq
20000e64:	2800      	cmpeq	r0, #0
20000e66:	bf1c      	itt	ne
20000e68:	f04f 31ff 	movne.w	r1, #4294967295
20000e6c:	f04f 30ff 	movne.w	r0, #4294967295
20000e70:	f000 b982 	b.w	20001178 <__aeabi_idiv0>
20000e74:	f1ad 0c08 	sub.w	ip, sp, #8
20000e78:	e96d ce04 	strd	ip, lr, [sp, #-16]!
20000e7c:	f000 f806 	bl	20000e8c <__udivmoddi4>
20000e80:	f8dd e004 	ldr.w	lr, [sp, #4]
20000e84:	e9dd 2302 	ldrd	r2, r3, [sp, #8]
20000e88:	b004      	add	sp, #16
20000e8a:	4770      	bx	lr

20000e8c <__udivmoddi4>:
20000e8c:	e92d 4ff0 	stmdb	sp!, {r4, r5, r6, r7, r8, r9, sl, fp, lr}
20000e90:	9d09      	ldr	r5, [sp, #36]	; 0x24
20000e92:	4604      	mov	r4, r0
20000e94:	460f      	mov	r7, r1
20000e96:	2b00      	cmp	r3, #0
20000e98:	d148      	bne.n	20000f2c <__udivmoddi4+0xa0>
20000e9a:	428a      	cmp	r2, r1
20000e9c:	4694      	mov	ip, r2
20000e9e:	d961      	bls.n	20000f64 <__udivmoddi4+0xd8>
20000ea0:	fab2 f382 	clz	r3, r2
20000ea4:	b143      	cbz	r3, 20000eb8 <__udivmoddi4+0x2c>
20000ea6:	f1c3 0120 	rsb	r1, r3, #32
20000eaa:	409f      	lsls	r7, r3
20000eac:	fa02 fc03 	lsl.w	ip, r2, r3
20000eb0:	409c      	lsls	r4, r3
20000eb2:	fa20 f101 	lsr.w	r1, r0, r1
20000eb6:	430f      	orrs	r7, r1
20000eb8:	ea4f 411c 	mov.w	r1, ip, lsr #16
20000ebc:	fa1f fe8c 	uxth.w	lr, ip
20000ec0:	0c22      	lsrs	r2, r4, #16
20000ec2:	fbb7 f6f1 	udiv	r6, r7, r1
20000ec6:	fb01 7716 	mls	r7, r1, r6, r7
20000eca:	fb06 f00e 	mul.w	r0, r6, lr
20000ece:	ea42 4207 	orr.w	r2, r2, r7, lsl #16
20000ed2:	4290      	cmp	r0, r2
20000ed4:	d908      	bls.n	20000ee8 <__udivmoddi4+0x5c>
20000ed6:	eb1c 0202 	adds.w	r2, ip, r2
20000eda:	f106 37ff 	add.w	r7, r6, #4294967295
20000ede:	d202      	bcs.n	20000ee6 <__udivmoddi4+0x5a>
20000ee0:	4290      	cmp	r0, r2
20000ee2:	f200 8137 	bhi.w	20001154 <__udivmoddi4+0x2c8>
20000ee6:	463e      	mov	r6, r7
20000ee8:	1a12      	subs	r2, r2, r0
20000eea:	b2a4      	uxth	r4, r4
20000eec:	fbb2 f0f1 	udiv	r0, r2, r1
20000ef0:	fb01 2210 	mls	r2, r1, r0, r2
20000ef4:	fb00 fe0e 	mul.w	lr, r0, lr
20000ef8:	ea44 4402 	orr.w	r4, r4, r2, lsl #16
20000efc:	45a6      	cmp	lr, r4
20000efe:	d908      	bls.n	20000f12 <__udivmoddi4+0x86>
20000f00:	eb1c 0404 	adds.w	r4, ip, r4
20000f04:	f100 32ff 	add.w	r2, r0, #4294967295
20000f08:	d202      	bcs.n	20000f10 <__udivmoddi4+0x84>
20000f0a:	45a6      	cmp	lr, r4
20000f0c:	f200 811c 	bhi.w	20001148 <__udivmoddi4+0x2bc>
20000f10:	4610      	mov	r0, r2
20000f12:	ea40 4006 	orr.w	r0, r0, r6, lsl #16
20000f16:	eba4 040e 	sub.w	r4, r4, lr
20000f1a:	2600      	movs	r6, #0
20000f1c:	b11d      	cbz	r5, 20000f26 <__udivmoddi4+0x9a>
20000f1e:	40dc      	lsrs	r4, r3
20000f20:	2300      	movs	r3, #0
20000f22:	e9c5 4300 	strd	r4, r3, [r5]
20000f26:	4631      	mov	r1, r6
20000f28:	e8bd 8ff0 	ldmia.w	sp!, {r4, r5, r6, r7, r8, r9, sl, fp, pc}
20000f2c:	428b      	cmp	r3, r1
20000f2e:	d909      	bls.n	20000f44 <__udivmoddi4+0xb8>
20000f30:	2d00      	cmp	r5, #0
20000f32:	f000 80fd 	beq.w	20001130 <__udivmoddi4+0x2a4>
20000f36:	2600      	movs	r6, #0
20000f38:	e9c5 0100 	strd	r0, r1, [r5]
20000f3c:	4630      	mov	r0, r6
20000f3e:	4631      	mov	r1, r6
20000f40:	e8bd 8ff0 	ldmia.w	sp!, {r4, r5, r6, r7, r8, r9, sl, fp, pc}
20000f44:	fab3 f683 	clz	r6, r3
20000f48:	2e00      	cmp	r6, #0
20000f4a:	d14b      	bne.n	20000fe4 <__udivmoddi4+0x158>
20000f4c:	428b      	cmp	r3, r1
20000f4e:	f0c0 80f2 	bcc.w	20001136 <__udivmoddi4+0x2aa>
20000f52:	4282      	cmp	r2, r0
20000f54:	f240 80ef 	bls.w	20001136 <__udivmoddi4+0x2aa>
20000f58:	4630      	mov	r0, r6
20000f5a:	2d00      	cmp	r5, #0
20000f5c:	d0e3      	beq.n	20000f26 <__udivmoddi4+0x9a>
20000f5e:	e9c5 4700 	strd	r4, r7, [r5]
20000f62:	e7e0      	b.n	20000f26 <__udivmoddi4+0x9a>
20000f64:	b902      	cbnz	r2, 20000f68 <__udivmoddi4+0xdc>
20000f66:	deff      	udf	#255	; 0xff
20000f68:	fab2 f382 	clz	r3, r2
20000f6c:	2b00      	cmp	r3, #0
20000f6e:	f040 809d 	bne.w	200010ac <__udivmoddi4+0x220>
20000f72:	1a89      	subs	r1, r1, r2
20000f74:	ea4f 4e12 	mov.w	lr, r2, lsr #16
20000f78:	b297      	uxth	r7, r2
20000f7a:	2601      	movs	r6, #1
20000f7c:	0c20      	lsrs	r0, r4, #16
20000f7e:	fbb1 f2fe 	udiv	r2, r1, lr
20000f82:	fb0e 1112 	mls	r1, lr, r2, r1
20000f86:	ea40 4101 	orr.w	r1, r0, r1, lsl #16
20000f8a:	fb07 f002 	mul.w	r0, r7, r2
20000f8e:	4288      	cmp	r0, r1
20000f90:	d90f      	bls.n	20000fb2 <__udivmoddi4+0x126>
20000f92:	eb1c 0101 	adds.w	r1, ip, r1
20000f96:	f102 38ff 	add.w	r8, r2, #4294967295
20000f9a:	bf2c      	ite	cs
20000f9c:	f04f 0901 	movcs.w	r9, #1
20000fa0:	f04f 0900 	movcc.w	r9, #0
20000fa4:	4288      	cmp	r0, r1
20000fa6:	d903      	bls.n	20000fb0 <__udivmoddi4+0x124>
20000fa8:	f1b9 0f00 	cmp.w	r9, #0
20000fac:	f000 80cf 	beq.w	2000114e <__udivmoddi4+0x2c2>
20000fb0:	4642      	mov	r2, r8
20000fb2:	1a09      	subs	r1, r1, r0
20000fb4:	b2a4      	uxth	r4, r4
20000fb6:	fbb1 f0fe 	udiv	r0, r1, lr
20000fba:	fb0e 1110 	mls	r1, lr, r0, r1
20000fbe:	fb00 f707 	mul.w	r7, r0, r7
20000fc2:	ea44 4401 	orr.w	r4, r4, r1, lsl #16
20000fc6:	42a7      	cmp	r7, r4
20000fc8:	d908      	bls.n	20000fdc <__udivmoddi4+0x150>
20000fca:	eb1c 0404 	adds.w	r4, ip, r4
20000fce:	f100 31ff 	add.w	r1, r0, #4294967295
20000fd2:	d202      	bcs.n	20000fda <__udivmoddi4+0x14e>
20000fd4:	42a7      	cmp	r7, r4
20000fd6:	f200 80b4 	bhi.w	20001142 <__udivmoddi4+0x2b6>
20000fda:	4608      	mov	r0, r1
20000fdc:	1be4      	subs	r4, r4, r7
20000fde:	ea40 4002 	orr.w	r0, r0, r2, lsl #16
20000fe2:	e79b      	b.n	20000f1c <__udivmoddi4+0x90>
20000fe4:	f1c6 0720 	rsb	r7, r6, #32
20000fe8:	40b3      	lsls	r3, r6
20000fea:	fa01 f406 	lsl.w	r4, r1, r6
20000fee:	fa22 fc07 	lsr.w	ip, r2, r7
20000ff2:	40f9      	lsrs	r1, r7
20000ff4:	40b2      	lsls	r2, r6
20000ff6:	ea4c 0c03 	orr.w	ip, ip, r3
20000ffa:	fa20 f307 	lsr.w	r3, r0, r7
20000ffe:	ea4f 491c 	mov.w	r9, ip, lsr #16
20001002:	431c      	orrs	r4, r3
20001004:	fa1f fe8c 	uxth.w	lr, ip
20001008:	fa00 f306 	lsl.w	r3, r0, r6
2000100c:	0c20      	lsrs	r0, r4, #16
2000100e:	fbb1 f8f9 	udiv	r8, r1, r9
20001012:	fb09 1118 	mls	r1, r9, r8, r1
20001016:	ea40 4101 	orr.w	r1, r0, r1, lsl #16
2000101a:	fb08 f00e 	mul.w	r0, r8, lr
2000101e:	4288      	cmp	r0, r1
20001020:	d90f      	bls.n	20001042 <__udivmoddi4+0x1b6>
20001022:	eb1c 0101 	adds.w	r1, ip, r1
20001026:	f108 3aff 	add.w	sl, r8, #4294967295
2000102a:	bf2c      	ite	cs
2000102c:	f04f 0b01 	movcs.w	fp, #1
20001030:	f04f 0b00 	movcc.w	fp, #0
20001034:	4288      	cmp	r0, r1
20001036:	d903      	bls.n	20001040 <__udivmoddi4+0x1b4>
20001038:	f1bb 0f00 	cmp.w	fp, #0
2000103c:	f000 808d 	beq.w	2000115a <__udivmoddi4+0x2ce>
20001040:	46d0      	mov	r8, sl
20001042:	1a09      	subs	r1, r1, r0
20001044:	b2a4      	uxth	r4, r4
20001046:	fbb1 f0f9 	udiv	r0, r1, r9
2000104a:	fb09 1110 	mls	r1, r9, r0, r1
2000104e:	fb00 fe0e 	mul.w	lr, r0, lr
20001052:	ea44 4101 	orr.w	r1, r4, r1, lsl #16
20001056:	458e      	cmp	lr, r1
20001058:	d907      	bls.n	2000106a <__udivmoddi4+0x1de>
2000105a:	eb1c 0101 	adds.w	r1, ip, r1
2000105e:	f100 34ff 	add.w	r4, r0, #4294967295
20001062:	d201      	bcs.n	20001068 <__udivmoddi4+0x1dc>
20001064:	458e      	cmp	lr, r1
20001066:	d87f      	bhi.n	20001168 <__udivmoddi4+0x2dc>
20001068:	4620      	mov	r0, r4
2000106a:	ea40 4008 	orr.w	r0, r0, r8, lsl #16
2000106e:	eba1 010e 	sub.w	r1, r1, lr
20001072:	fba0 9802 	umull	r9, r8, r0, r2
20001076:	4541      	cmp	r1, r8
20001078:	464c      	mov	r4, r9
2000107a:	46c6      	mov	lr, r8
2000107c:	d302      	bcc.n	20001084 <__udivmoddi4+0x1f8>
2000107e:	d106      	bne.n	2000108e <__udivmoddi4+0x202>
20001080:	454b      	cmp	r3, r9
20001082:	d204      	bcs.n	2000108e <__udivmoddi4+0x202>
20001084:	3801      	subs	r0, #1
20001086:	ebb9 0402 	subs.w	r4, r9, r2
2000108a:	eb68 0e0c 	sbc.w	lr, r8, ip
2000108e:	2d00      	cmp	r5, #0
20001090:	d070      	beq.n	20001174 <__udivmoddi4+0x2e8>
20001092:	1b1a      	subs	r2, r3, r4
20001094:	eb61 010e 	sbc.w	r1, r1, lr
20001098:	fa22 f306 	lsr.w	r3, r2, r6
2000109c:	fa01 f707 	lsl.w	r7, r1, r7
200010a0:	40f1      	lsrs	r1, r6
200010a2:	2600      	movs	r6, #0
200010a4:	431f      	orrs	r7, r3
200010a6:	e9c5 7100 	strd	r7, r1, [r5]
200010aa:	e73c      	b.n	20000f26 <__udivmoddi4+0x9a>
200010ac:	fa02 fc03 	lsl.w	ip, r2, r3
200010b0:	f1c3 0020 	rsb	r0, r3, #32
200010b4:	fa01 f203 	lsl.w	r2, r1, r3
200010b8:	fa21 f600 	lsr.w	r6, r1, r0
200010bc:	ea4f 4e1c 	mov.w	lr, ip, lsr #16
200010c0:	fa24 f100 	lsr.w	r1, r4, r0
200010c4:	fa1f f78c 	uxth.w	r7, ip
200010c8:	409c      	lsls	r4, r3
200010ca:	4311      	orrs	r1, r2
200010cc:	fbb6 f0fe 	udiv	r0, r6, lr
200010d0:	0c0a      	lsrs	r2, r1, #16
200010d2:	fb0e 6610 	mls	r6, lr, r0, r6
200010d6:	ea42 4206 	orr.w	r2, r2, r6, lsl #16
200010da:	fb00 f607 	mul.w	r6, r0, r7
200010de:	4296      	cmp	r6, r2
200010e0:	d90e      	bls.n	20001100 <__udivmoddi4+0x274>
200010e2:	eb1c 0202 	adds.w	r2, ip, r2
200010e6:	f100 38ff 	add.w	r8, r0, #4294967295
200010ea:	bf2c      	ite	cs
200010ec:	f04f 0901 	movcs.w	r9, #1
200010f0:	f04f 0900 	movcc.w	r9, #0
200010f4:	4296      	cmp	r6, r2
200010f6:	d902      	bls.n	200010fe <__udivmoddi4+0x272>
200010f8:	f1b9 0f00 	cmp.w	r9, #0
200010fc:	d031      	beq.n	20001162 <__udivmoddi4+0x2d6>
200010fe:	4640      	mov	r0, r8
20001100:	1b92      	subs	r2, r2, r6
20001102:	b289      	uxth	r1, r1
20001104:	fbb2 f6fe 	udiv	r6, r2, lr
20001108:	fb0e 2216 	mls	r2, lr, r6, r2
2000110c:	ea41 4102 	orr.w	r1, r1, r2, lsl #16
20001110:	fb06 f207 	mul.w	r2, r6, r7
20001114:	428a      	cmp	r2, r1
20001116:	d907      	bls.n	20001128 <__udivmoddi4+0x29c>
20001118:	eb1c 0101 	adds.w	r1, ip, r1
2000111c:	f106 38ff 	add.w	r8, r6, #4294967295
20001120:	d201      	bcs.n	20001126 <__udivmoddi4+0x29a>
20001122:	428a      	cmp	r2, r1
20001124:	d823      	bhi.n	2000116e <__udivmoddi4+0x2e2>
20001126:	4646      	mov	r6, r8
20001128:	1a89      	subs	r1, r1, r2
2000112a:	ea46 4600 	orr.w	r6, r6, r0, lsl #16
2000112e:	e725      	b.n	20000f7c <__udivmoddi4+0xf0>
20001130:	462e      	mov	r6, r5
20001132:	4628      	mov	r0, r5
20001134:	e6f7      	b.n	20000f26 <__udivmoddi4+0x9a>
20001136:	1a84      	subs	r4, r0, r2
20001138:	eb61 0303 	sbc.w	r3, r1, r3
2000113c:	2001      	movs	r0, #1
2000113e:	461f      	mov	r7, r3
20001140:	e70b      	b.n	20000f5a <__udivmoddi4+0xce>
20001142:	4464      	add	r4, ip
20001144:	3802      	subs	r0, #2
20001146:	e749      	b.n	20000fdc <__udivmoddi4+0x150>
20001148:	4464      	add	r4, ip
2000114a:	3802      	subs	r0, #2
2000114c:	e6e1      	b.n	20000f12 <__udivmoddi4+0x86>
2000114e:	3a02      	subs	r2, #2
20001150:	4461      	add	r1, ip
20001152:	e72e      	b.n	20000fb2 <__udivmoddi4+0x126>
20001154:	3e02      	subs	r6, #2
20001156:	4462      	add	r2, ip
20001158:	e6c6      	b.n	20000ee8 <__udivmoddi4+0x5c>
2000115a:	f1a8 0802 	sub.w	r8, r8, #2
2000115e:	4461      	add	r1, ip
20001160:	e76f      	b.n	20001042 <__udivmoddi4+0x1b6>
20001162:	3802      	subs	r0, #2
20001164:	4462      	add	r2, ip
20001166:	e7cb      	b.n	20001100 <__udivmoddi4+0x274>
20001168:	3802      	subs	r0, #2
2000116a:	4461      	add	r1, ip
2000116c:	e77d      	b.n	2000106a <__udivmoddi4+0x1de>
2000116e:	3e02      	subs	r6, #2
20001170:	4461      	add	r1, ip
20001172:	e7d9      	b.n	20001128 <__udivmoddi4+0x29c>
20001174:	462e      	mov	r6, r5
20001176:	e6d6      	b.n	20000f26 <__udivmoddi4+0x9a>

20001178 <__aeabi_idiv0>:
20001178:	4770      	bx	lr
2000117a:	bf00      	nop
2000117c:	0000      	movs	r0, r0
	...

20001180 <__tu_fifo_write_veneer>:
20001180:	b401      	push	{r0}
20001182:	4802      	ldr	r0, [pc, #8]	; (2000118c <__tu_fifo_write_veneer+0xc>)
20001184:	4684      	mov	ip, r0
20001186:	bc01      	pop	{r0}
20001188:	4760      	bx	ip
2000118a:	bf00      	nop
2000118c:	100091b5 	.word	0x100091b5

20001190 <__vPortLockInternalSpinUnlockWithNotify_veneer>:
20001190:	b401      	push	{r0}
20001192:	4802      	ldr	r0, [pc, #8]	; (2000119c <__vPortLockInternalSpinUnlockWithNotify_veneer+0xc>)
20001194:	4684      	mov	ip, r0
20001196:	bc01      	pop	{r0}
20001198:	4760      	bx	ip
2000119a:	bf00      	nop
2000119c:	100020a9 	.word	0x100020a9

200011a0 <__panic_veneer>:
200011a0:	b401      	push	{r0}
200011a2:	4802      	ldr	r0, [pc, #8]	; (200011ac <__panic_veneer+0xc>)
200011a4:	4684      	mov	ip, r0
200011a6:	bc01      	pop	{r0}
200011a8:	4760      	bx	ip
200011aa:	bf00      	nop
200011ac:	10000739 	.word	0x10000739

200011b0 <__memset_veneer>:
200011b0:	b401      	push	{r0}
200011b2:	4802      	ldr	r0, [pc, #8]	; (200011bc <__memset_veneer+0xc>)
200011b4:	4684      	mov	ip, r0
200011b6:	bc01      	pop	{r0}
200011b8:	4760      	bx	ip
200011ba:	bf00      	nop
200011bc:	100094f5 	.word	0x100094f5

200011c0 <__tud_event_hook_cb_veneer>:
200011c0:	b401      	push	{r0}
200011c2:	4802      	ldr	r0, [pc, #8]	; (200011cc <__tud_event_hook_cb_veneer+0xc>)
200011c4:	4684      	mov	ip, r0
200011c6:	bc01      	pop	{r0}
200011c8:	4760      	bx	ip
200011ca:	bf00      	nop
200011cc:	10007735 	.word	0x10007735

200011d0 <__time_us_64_veneer>:
200011d0:	b401      	push	{r0}
200011d2:	4802      	ldr	r0, [pc, #8]	; (200011dc <__time_us_64_veneer+0xc>)
200011d4:	4684      	mov	ip, r0
200011d6:	bc01      	pop	{r0}
200011d8:	4760      	bx	ip
200011da:	bf00      	nop
200011dc:	1000162d 	.word	0x1000162d

200011e0 <__ulPortLockGetCurrentOwnerId_veneer>:
200011e0:	b401      	push	{r0}
200011e2:	4802      	ldr	r0, [pc, #8]	; (200011ec <__ulPortLockGetCurrentOwnerId_veneer+0xc>)
200011e4:	4684      	mov	ip, r0
200011e6:	bc01      	pop	{r0}
200011e8:	4760      	bx	ip
200011ea:	bf00      	nop
200011ec:	10002015 	.word	0x10002015

200011f0 <__xPortLockInternalSpinUnlockWithBestEffortWaitOrTimeout_veneer>:
200011f0:	b401      	push	{r0}
200011f2:	4802      	ldr	r0, [pc, #8]	; (200011fc <__xPortLockInternalSpinUnlockWithBestEffortWaitOrTimeout_veneer+0xc>)
200011f4:	4684      	mov	ip, r0
200011f6:	bc01      	pop	{r0}
200011f8:	4760      	bx	ip
200011fa:	bf00      	nop
200011fc:	1000213d 	.word	0x1000213d

20001200 <striped_spin_lock_num>:
20001200:	00000010                                ....

20001204 <irq_handler_chain_slots>:
20001204:	00000000 	.word	0x00000000
20001208:	00010000 	.word	0x00010000
	...
20001214:	00020000 	.word	0x00020000
	...
20001220:	00030000 	.word	0x00030000
	...
2000122c:	00ff0000 	.word	0x00ff0000
20001230:	00000000 	.word	0x00000000

20001234 <irq_handler_chain_first_slot>:
20001234:	b501      	push	{r0, lr}
20001236:	6848      	ldr	r0, [r1, #4]
20001238:	3101      	adds	r1, #1
2000123a:	468e      	mov	lr, r1
2000123c:	4700      	bx	r0

2000123e <irq_handler_chain_remove_tail>:
2000123e:	4670      	mov	r0, lr
20001240:	3809      	subs	r0, #9
20001242:	4901      	ldr	r1, [pc, #4]	; (20001248 <irq_handler_chain_remove_tail+0xa>)
20001244:	4788      	blx	r1
20001246:	bd01      	pop	{r0, pc}
20001248:	10000c45 	.word	0x10000c45

2000124c <default_alarm_pool>:
	...
20001260:	200012c0                                ... 

20001264 <i2c0_inst>:
20001264:	40090000 00000000                       ...@....

2000126c <cDoorbellNum>:
2000126c:	                                         .

2000126d <ucPrimaryCoreNum>:
2000126d:	                                         ...

20001270 <uxTopUsedPriority>:
20001270:	0000001f                                ....

20001274 <stdio_usb>:
20001274:	10006ed5 10006e89 10006e05 10006d75     .n...n...n..um..
20001284:	00000000 00000100                       ........

2000128c <_usbd_qdef>:
2000128c:	200016f0 000c0010 00000000 00000000     ... ............
	...

200012a8 <_usbd_rhport>:
200012a8:	000000ff                                ....

200012ac <malloc_mutex>:
	...

200012b4 <print_mutex>:
	...
